[+] D:\testPoc\Easy File Sharing Web Server\ImageLoad.dll EntryPoint is 0x1001ab40.

rop gadget has 10285.
syscall gadget has 0.
0x1000108d ret
0x1000108c pop ebx ; ret
0x1000108b pop ebp ; pop ebx ; ret
0x1000108a pop esi ; pop ebp ; pop ebx ; ret
0x10001089 pop edi ; pop esi ; pop ebp ; pop ebx ; ret
0x10001088 rcr byte ptr [edi + 0x5e], 0x5d ; pop ebx ; ret
0x10001087 xor eax, eax ; pop edi ; pop esi ; pop ebp ; pop ebx ; ret
0x10001086 adc byte ptr [ebx], dh ; rcr byte ptr [edi + 0x5e], 0x5d ; pop ebx ; ret
0x10001085 add al, 0x10 ; xor eax, eax ; pop edi ; pop esi ; pop ebp ; pop ebx ; ret
0x10001084 rol dword ptr [eax + edx], 1 ; xor eax, eax ; pop edi ; pop esi ; pop ebp ; pop ebx ; ret
0x10001083 dec esp ; rol dword ptr [eax + edx], 1 ; xor eax, eax ; pop edi ; pop esi ; pop ebp ; pop ebx ; ret
0x100010c3 ret
0x100010d0 ret
0x100010cf pop ebx ; ret
0x100010cd add byte ptr [eax], al ; pop ebx ; ret
0x100010cb add byte ptr [eax], al ; add byte ptr [eax], al ; pop ebx ; ret
0x100010c9 add al, 0x10 ; add byte ptr [eax], al ; add byte ptr [eax], al ; pop ebx ; ret
0x100010c8 mov byte ptr [0x1004], al ; add byte ptr [eax], al ; pop ebx ; ret
0x100010c7 cmp al, 0xa2 ; add al, 0x10 ; add byte ptr [eax], al ; add byte ptr [eax], al ; pop ebx ; ret
0x100010c6 add eax, 0x1004a23c ; add byte ptr [eax], al ; add byte ptr [eax], al ; pop ebx ; ret
0x10001107 ret
0x10001105 les ebp, ptr [eax] ; ret
0x10001104 add esp, 0x28 ; ret
0x10001103 pop esi ; add esp, 0x28 ; ret
0x10001101 xor eax, eax ; pop esi ; add esp, 0x28 ; ret
0x10001100 pop es ; xor eax, eax ; pop esi ; add esp, 0x28 ; ret
0x100010ff jge 9 ; xor eax, eax ; pop esi ; add esp, 0x28 ; ret
0x100010fe idiv byte ptr [ebp + 7] ; xor eax, eax ; pop esi ; add esp, 0x28 ; ret
0x100010fd test esi, esi ; jge 0xb ; xor eax, eax ; pop esi ; add esp, 0x28 ; ret
0x100011b1 ret
0x100011af les ebp, ptr [eax] ; ret
0x100011ae add esp, 0x28 ; ret
0x100011ad pop esi ; add esp, 0x28 ; ret
0x100011ac add byte ptr [esi - 0x7d], bl ; les ebp, ptr [eax] ; ret
0x100011ab add byte ptr [eax], al ; pop esi ; add esp, 0x28 ; ret
0x100011aa add byte ptr [eax], al ; add byte ptr [esi - 0x7d], bl ; les ebp, ptr [eax] ; ret
0x100011a9 add dword ptr [eax], eax ; add byte ptr [eax], al ; pop esi ; add esp, 0x28 ; ret
0x100011a8 mov eax, 1 ; pop esi ; add esp, 0x28 ; ret
0x100011a7 add byte ptr [eax + 1], bh ; pop esi ; add esp, 0x28 ; ret
0x10001273 ret
0x10001276 ret
0x10001275 pop ebx ; ret
0x10001274 pop ebp ; pop ebx ; ret
0x10001273 ret ; pop ebp ; pop ebx ; ret
0x10001272 mov eax, ebx ; pop ebp ; pop ebx ; ret
0x10001271 pop esi ; mov eax, ebx ; pop ebp ; pop ebx ; ret
0x10001270 pop edi ; pop esi ; mov eax, ebx ; pop ebp ; pop ebx ; ret
0x1000126f adc byte ptr [edi + 0x5e], bl ; mov eax, ebx ; pop ebp ; pop ebx ; ret
0x1000126e add al, 0x10 ; pop edi ; pop esi ; mov eax, ebx ; pop ebp ; pop ebx ; ret
0x1000126d rol dword ptr [eax + edx], 1 ; pop edi ; pop esi ; mov eax, ebx ; pop ebp ; pop ebx ; ret
0x1000126c push eax ; rol dword ptr [eax + edx], 1 ; pop edi ; pop esi ; mov eax, ebx ; pop ebp ; pop ebx ; ret
0x100012a6 ret
0x100012a4 adc byte ptr [ebx], bh ; ret
0x1000132b ret
0x100015c3 ret
0x1000160b ret
0x10001609 sbb byte ptr [ebx], bh ; ret
0x10001639 ret
0x10001637 add byte ptr [eax], al ; ret
0x10001635 cmp byte ptr [ecx], al ; add byte ptr [eax], al ; ret
0x10001633 add esp, 0x138 ; ret
0x10001632 pop ebx ; add esp, 0x138 ; ret
0x10001631 pop ebp ; pop ebx ; add esp, 0x138 ; ret
0x10001630 pop esi ; pop ebp ; pop ebx ; add esp, 0x138 ; ret
0x1000162f lds ebx, ptr [esi + 0x5d] ; pop ebx ; add esp, 0x138 ; ret
0x10001843 ret
0x10001841 add byte ptr [eax], al ; ret
0x1000183f cmp al, 1 ; add byte ptr [eax], al ; ret
0x1000183e les edi, ptr [ecx + eax] ; add byte ptr [eax], al ; ret
0x1000183d add esp, 0x13c ; ret
0x1000183c pop ebx ; add esp, 0x13c ; ret
0x1000183b pop ebp ; pop ebx ; add esp, 0x13c ; ret
0x1000183a pop esi ; pop ebp ; pop ebx ; add esp, 0x13c ; ret
0x10001839 pop edi ; pop esi ; pop ebp ; pop ebx ; add esp, 0x13c ; ret
0x10001879 ret
0x10001878 pop ebx ; ret
0x10001877 pop esi ; pop ebx ; ret
0x10001876 pop edi ; pop esi ; pop ebx ; ret
0x10001875 pop edi ; pop esi ; pop ebx ; ret
0x10001874 jl 0xfffffff4 ; pop edi ; pop esi ; pop ebx ; ret
0x10001873 adc byte ptr [edx + esi*8 + 0x5f], bh ; pop esi ; pop ebx ; ret
0x10001872 add edx, dword ptr [eax] ; jl 0xfffffff6 ; pop edi ; pop esi ; pop ebx ; ret
0x10001871 inc esi ; add edx, dword ptr [eax] ; jl 0xfffffff7 ; pop edi ; pop esi ; pop ebx ; ret
0x10001870 dec eax ; inc esi ; add edx, dword ptr [eax] ; jl 0xfffffff8 ; pop edi ; pop esi ; pop ebx ; ret
0x1000186f cmp eax, 0x10034648 ; jl 0xfffffff9 ; pop edi ; pop esi ; pop ebx ; ret
0x100018e2 ret
0x100018e1 pop ebx ; ret
0x100018e0 pop esi ; pop ebx ; ret
0x100018df pop edi ; pop esi ; pop ebx ; ret
0x100018de lodsd eax, dword ptr [esi] ; pop edi ; pop esi ; pop ebx ; ret
0x100018dd jne 0xffffffaf ; pop edi ; pop esi ; pop ebx ; ret
0x100018dc dec ebx ; jne 0xffffffb0 ; pop edi ; pop esi ; pop ebx ; ret
0x100018db add cl, byte ptr [ebx + 0x75] ; lodsd eax, dword ptr [esi] ; pop edi ; pop esi ; pop ebx ; ret
0x100018da mov byte ptr [edx], 0x4b ; jne 0xffffffb2 ; pop edi ; pop esi ; pop ebx ; ret
0x100018d9 add esi, 2 ; dec ebx ; jne 0xffffffb3 ; pop edi ; pop esi ; pop ebx ; ret
0x100018d8 add al, byte ptr [ebx + 0x754b02c6] ; lodsd eax, dword ptr [esi] ; pop edi ; pop esi ; pop ebx ; ret
0x10001970 ret
0x1000196d add esp, 0xc ; ret
0x1000196c pop ebx ; add esp, 0xc ; ret
0x1000196b pop ebp ; pop ebx ; add esp, 0xc ; ret
0x1000196a pop esi ; pop ebp ; pop ebx ; add esp, 0xc ; ret
0x10001969 pop edi ; pop esi ; pop ebp ; pop ebx ; add esp, 0xc ; ret
0x10001967 mov eax, edi ; pop edi ; pop esi ; pop ebp ; pop ebx ; add esp, 0xc ; ret
0x10001966 mov ax, di ; pop edi ; pop esi ; pop ebp ; pop ebx ; add esp, 0xc ; ret
0x10001b74 ret
0x10001b71 add esp, 0xc ; ret
0x10001b70 pop ebx ; add esp, 0xc ; ret
0x10001b6f pop ebp ; pop ebx ; add esp, 0xc ; ret
0x10001b6e pop esi ; pop ebp ; pop ebx ; add esp, 0xc ; ret
0x10001b6d pop edi ; pop esi ; pop ebp ; pop ebx ; add esp, 0xc ; ret
0x10001b6c add al, 0x5f ; pop esi ; pop ebp ; pop ebx ; add esp, 0xc ; ret
0x10001b6b les eax, ptr [edi + ebx*2] ; pop esi ; pop ebp ; pop ebx ; add esp, 0xc ; ret
0x10001b6a add esp, 4 ; pop edi ; pop esi ; pop ebp ; pop ebx ; add esp, 0xc ; ret
0x10001b80 ret
0x10001b7d add esp, 0xc ; ret
0x10001b7c pop ebx ; add esp, 0xc ; ret
0x10001b7b pop ebp ; pop ebx ; add esp, 0xc ; ret
0x10001b7a pop esi ; pop ebp ; pop ebx ; add esp, 0xc ; ret
0x10001b79 pop edi ; pop esi ; pop ebp ; pop ebx ; add esp, 0xc ; ret
0x10001b78 lcall ptr [edi + 0x5e] ; pop ebp ; pop ebx ; add esp, 0xc ; ret
0x10001b77 in al, dx ; lcall ptr [edi + 0x5e] ; pop ebp ; pop ebx ; add esp, 0xc ; ret
0x10001b76 mov eax, 0x5e5fffec ; pop ebp ; pop ebx ; add esp, 0xc ; ret
0x10001b8b ret
0x10001b88 add esp, 0xc ; ret
0x10001b87 pop ebx ; add esp, 0xc ; ret
0x10001b85 xor eax, eax ; pop ebx ; add esp, 0xc ; ret
0x10001b84 xor ax, ax ; pop ebx ; add esp, 0xc ; ret
0x10001b83 pop ebp ; xor ax, ax ; pop ebx ; add esp, 0xc ; ret
0x10001b82 pop esi ; pop ebp ; xor ax, ax ; pop ebx ; add esp, 0xc ; ret
0x10001b81 pop edi ; pop esi ; pop ebp ; xor ax, ax ; pop ebx ; add esp, 0xc ; ret
0x10001bb6 ret
0x10001bb5 pop ecx ; ret
0x10001bb1 or ax, 0xffff ; pop ecx ; ret
0x10001bb0 push es ; or ax, 0xffff ; pop ecx ; ret
0x10001baf jne 8 ; or ax, 0xffff ; pop ecx ; ret
0x10001bad test eax, eax ; jne 0xa ; or ax, 0xffff ; pop ecx ; ret
0x10001bbd ret
0x10001bbc pop ecx ; ret
0x10001bba and al, 0 ; pop ecx ; ret
0x10001bb9 inc esp ; and al, 0 ; pop ecx ; ret
0x10001bb8 mov eax, dword ptr [esp] ; pop ecx ; ret
0x10001bb7 mov ax, word ptr [esp] ; pop ecx ; ret
0x10001bb6 ret ; mov ax, word ptr [esp] ; pop ecx ; ret
0x10001bb5 pop ecx ; ret ; mov ax, word ptr [esp] ; pop ecx ; ret
0x10001bb4 lcall ptr [ecx - 0x3d] ; mov ax, word ptr [esp] ; pop ecx ; ret
0x10001c24 ret
0x10001c22 xor eax, eax ; ret
0x10001c21 xor ax, ax ; ret
0x10001c1f add edx, dword ptr [eax] ; xor ax, ax ; ret
0x10001c1e dec ecx ; add edx, dword ptr [eax] ; xor ax, ax ; ret
0x10001c1d jo 0x4b ; add edx, dword ptr [eax] ; xor ax, ax ; ret
0x10001c1c mov dword ptr [0x10034970], eax ; xor ax, ax ; ret
0x10001c1b mov word ptr [0x10034970], ax ; xor ax, ax ; ret
0x10001c1a adc byte ptr [esi - 0x5d], ah ; jo 0x4e ; add edx, dword ptr [eax] ; xor ax, ax ; ret
0x10001da1 ret
0x10001da0 pop ebx ; ret
0x10001d9f pop ebp ; pop ebx ; ret
0x10001d9e pop esi ; pop ebp ; pop ebx ; ret
0x10001d9d pop edi ; pop esi ; pop ebp ; pop ebx ; ret
0x10001d9b mov eax, edi ; pop edi ; pop esi ; pop ebp ; pop ebx ; ret
0x10001d9a mov ax, di ; pop edi ; pop esi ; pop ebp ; pop ebx ; ret
0x10001d98 add dl, byte ptr [eax] ; mov ax, di ; pop edi ; pop esi ; pop ebp ; pop ebx ; ret
0x10001f1f ret
0x10001f1d add edx, dword ptr [eax] ; ret
0x10001f1b je 0x23 ; add edx, dword ptr [eax] ; ret
0x10001f1a add eax, 0x10032174 ; ret
0x10001f19 inc dword ptr [0x10032174] ; ret
0x10001f18 inc word ptr [0x10032174] ; ret
0x10001f17 adc al, 0x66 ; inc dword ptr [0x10032174] ; ret
0x10001f16 push ecx ; adc al, 0x66 ; inc dword ptr [0x10032174] ; ret
0x10001f15 mov dword ptr [ecx + 0x14], edx ; inc word ptr [0x10032174] ; ret
0x100020a2 ret
0x1000212d ret
0x100022e6 ret
0x100022e4 xor dh, dh ; ret
0x100024ac ret
0x10002683 ret
0x10002682 push esp ; ret
0x10002680 add esp, 0x54 ; ret
0x1000267f pop ebx ; add esp, 0x54 ; ret
0x1000267e pop ebp ; pop ebx ; add esp, 0x54 ; ret
0x1000267d pop esi ; pop ebp ; pop ebx ; add esp, 0x54 ; ret
0x1000267c pop edi ; pop esi ; pop ebp ; pop ebx ; add esp, 0x54 ; ret
0x1000267b pop eax ; pop edi ; pop esi ; pop ebp ; pop ebx ; add esp, 0x54 ; ret
0x1000267a and al, 0x58 ; pop edi ; pop esi ; pop ebp ; pop ebx ; add esp, 0x54 ; ret
0x10002679 inc esp ; and al, 0x58 ; pop edi ; pop esi ; pop ebp ; pop ebx ; add esp, 0x54 ; ret
0x100026e3 ret
0x100026e2 pop ebx ; ret
0x100026e1 pop edi ; pop ebx ; ret
0x100026df xor eax, eax ; pop edi ; pop ebx ; ret
0x100026de xor ax, ax ; pop edi ; pop ebx ; ret
0x100026dd stosd dword ptr es:[edi], eax ; xor ax, ax ; pop edi ; pop ebx ; ret
0x100026dc stosw word ptr es:[edi], ax ; xor ax, ax ; pop edi ; pop ebx ; ret
0x100026db stosd dword ptr es:[edi], eax ; stosw word ptr es:[edi], ax ; xor ax, ax ; pop edi ; pop ebx ; ret
0x100026da rep stosd dword ptr es:[edi], eax ; stosw word ptr es:[edi], ax ; xor ax, ax ; pop edi ; pop ebx ; ret
0x100026d9 sal bl, 0xab ; stosw word ptr es:[edi], ax ; xor ax, ax ; pop edi ; pop ebx ; ret
0x100027d8 ret
0x100027d7 pop ebx ; ret
0x100027d5 xor eax, eax ; pop ebx ; ret
0x100027d4 xor ax, ax ; pop ebx ; ret
0x100027d3 pop edi ; xor ax, ax ; pop ebx ; ret
0x100027d2 pop esi ; pop edi ; xor ax, ax ; pop ebx ; ret
0x100027d1 pop ebp ; pop esi ; pop edi ; xor ax, ax ; pop ebx ; ret
0x100027d0 stosb byte ptr es:[edi], al ; pop ebp ; pop esi ; pop edi ; xor ax, ax ; pop ebx ; ret
0x100027cf stosd dword ptr es:[edi], eax ; stosb byte ptr es:[edi], al ; pop ebp ; pop esi ; pop edi ; xor ax, ax ; pop ebx ; ret
0x100027ce rep stosd dword ptr es:[edi], eax ; stosb byte ptr es:[edi], al ; pop ebp ; pop esi ; pop edi ; xor ax, ax ; pop ebx ; ret
0x10002840 ret
0x1000283f pop esi ; ret
0x1000283e pop edi ; pop esi ; ret
0x1000283d add byte ptr [edi + 0x5e], bl ; ret
0x1000283c add byte ptr [eax], al ; pop edi ; pop esi ; ret
0x1000283b add byte ptr [eax], al ; add byte ptr [edi + 0x5e], bl ; ret
0x1000283a add byte ptr fs:[eax], al ; add byte ptr [edi + 0x5e], bl ; ret
0x10002839 adc byte ptr [eax + eax], ah ; add byte ptr [edi + 0x5e], bl ; ret
0x10002838 inc esi ; adc byte ptr [eax + eax], ah ; add byte ptr [edi + 0x5e], bl ; ret
0x10002837 mov dword ptr [esi + 0x10], 0x64 ; pop edi ; pop esi ; ret
0x10002836 aas ; mov dword ptr [esi + 0x10], 0x64 ; pop edi ; pop esi ; ret
0x1000285d ret
0x1000285a add esp, 4 ; ret
0x10002858 add byte ptr [eax], al ; add esp, 4 ; ret
0x10002856 out 0x3c, al ; add byte ptr [eax], al ; add esp, 4 ; ret
0x10002855 call 0x3ceb ; add esp, 4 ; ret
0x10002854 push eax ; call 0x3cec ; add esp, 4 ; ret
0x10002853 add al, 0x50 ; call 0x3ced ; add esp, 4 ; ret
0x100028ad ret
0x100028ac pop esi ; ret
0x100028ab pop edi ; pop esi ; ret
0x100028aa loope 0x61 ; pop esi ; ret
0x100028a9 jne 0xffffffe3 ; pop edi ; pop esi ; ret
0x100028a8 dec edx ; jne 0xffffffe4 ; pop edi ; pop esi ; ret
0x100028a7 add al, 0x4a ; jne 0xffffffe5 ; pop edi ; pop esi ; ret
0x100028a6 rol byte ptr [edx + ecx*2], 0x75 ; loope 0x65 ; pop esi ; ret
0x100028a5 add eax, 4 ; dec edx ; jne 0xffffffe7 ; pop edi ; pop esi ; ret
0x100028a4 add byte ptr [ebx + 0x754a04c0], al ; loope 0x67 ; pop esi ; ret
0x100028a3 add byte ptr [eax], al ; add eax, 4 ; dec edx ; jne 0xffffffe9 ; pop edi ; pop esi ; ret
0x100029b7 ret
0x100029b6 pop ebx ; ret
0x100029b5 pop esi ; pop ebx ; ret
0x100029b4 pop edi ; pop esi ; pop ebx ; ret
0x100029b3 add al, 0x5f ; pop esi ; pop ebx ; ret
0x100029b2 les eax, ptr [edi + ebx*2] ; pop esi ; pop ebx ; ret
0x100029b1 add esp, 4 ; pop edi ; pop esi ; pop ebx ; ret
0x100029b0 add byte ptr [ebx + 0x5e5f04c4], al ; pop ebx ; ret
0x100029af add byte ptr [eax], al ; add esp, 4 ; pop edi ; pop esi ; pop ebx ; ret
0x100029ae cmp eax, dword ptr [eax] ; add byte ptr [ebx + 0x5e5f04c4], al ; pop ebx ; ret
0x100029ad pop edi ; cmp eax, dword ptr [eax] ; add byte ptr [ebx + 0x5e5f04c4], al ; pop ebx ; ret
0x10002a3d ret
0x10002a3c pop esi ; ret
0x10002a39 mov dword ptr [esi + 0x10], ecx ; pop esi ; ret
0x10002a38 mov dword ptr gs:[esi + 0x10], ecx ; pop esi ; ret
0x10002a36 add ecx, 0x65 ; mov dword ptr [esi + 0x10], ecx ; pop esi ; ret
0x10002a35 rol dword ptr [ebx + 0x4e8965c1], 0x10 ; pop esi ; ret
0x10002a34 xchg eax, ebp ; rol dword ptr [ebx + 0x4e8965c1], 0x10 ; pop esi ; ret
0x10002a33 setne cl ; add ecx, 0x65 ; mov dword ptr [esi + 0x10], ecx ; pop esi ; ret
0x10002b03 ret
0x10002b02 pop esi ; ret
0x10002b00 add byte ptr [eax], al ; pop esi ; ret
0x10002afe fadd dword ptr [eax] ; add byte ptr [eax], al ; pop esi ; ret
0x10002afc mov dword ptr [esi + 0xd8], ecx ; pop esi ; ret
0x10002afa add ecx, eax ; mov dword ptr [esi + 0xd8], ecx ; pop esi ; ret
0x10002b4f ret
0x10002b4d or al, 0x83 ; ret
0x10002b8c ret
0x10002b89 sbb byte ptr [eax - 0x7d], al ; ret
0x10002b9d ret
0x10002b9c pop ebx ; ret
0x10002b9b pop ebp ; pop ebx ; ret
0x10002b9a pop esi ; pop ebp ; pop ebx ; ret
0x10002b99 pop edi ; pop esi ; pop ebp ; pop ebx ; ret
0x10002b98 mov eax, 0x5b5d5e5f ; ret
0x10002b97 jl 0xffffffba ; pop edi ; pop esi ; pop ebp ; pop ebx ; ret
0x10002b96 adc al, 0x7c ; mov eax, 0x5b5d5e5f ; ret
0x10002b95 and al, 0x14 ; jl 0xffffffbc ; pop edi ; pop esi ; pop ebp ; pop ebx ; ret
0x10002b94 inc esp ; and al, 0x14 ; jl 0xffffffbd ; pop edi ; pop esi ; pop ebp ; pop ebx ; ret
0x10002b93 mov dword ptr [esp + 0x14], eax ; jl 0xffffffbe ; pop edi ; pop esi ; pop ebp ; pop ebx ; ret
0x10002bcb ret
0x10002bca pop ebx ; ret
0x10002bc9 pop ebp ; pop ebx ; ret
0x10002bc8 pop esi ; pop ebp ; pop ebx ; ret
0x10002bc7 pop edi ; pop esi ; pop ebp ; pop ebx ; ret
0x10002bc6 inc eax ; pop edi ; pop esi ; pop ebp ; pop ebx ; ret
0x10002bc5 jae 0x42 ; pop edi ; pop esi ; pop ebp ; pop ebx ; ret
0x10002bc4 mov dword ptr [ebx + 0x40], esi ; pop edi ; pop esi ; pop ebp ; pop ebx ; ret
0x10002bc3 mov dword ptr [ebx + 0x40], esi ; pop edi ; pop esi ; pop ebp ; pop ebx ; ret
0x10002bc2 jne 0xfffffff5 ; mov dword ptr [ebx + 0x40], esi ; pop edi ; pop esi ; pop ebp ; pop ebx ; ret
0x10002bc1 dec edx ; jne 0xfffffff6 ; mov dword ptr [ebx + 0x40], esi ; pop edi ; pop esi ; pop ebp ; pop ebx ; ret
0x10002c10 ret
0x10002c0f pop esi ; ret
0x10002c0e pop edi ; pop esi ; ret
0x10002c0d add al, 0x5f ; pop esi ; ret
0x10002c0c les eax, ptr [edi + ebx*2] ; pop esi ; ret
0x10002c0b add esp, 4 ; pop edi ; pop esi ; ret
0x10002c09 call dword ptr [ecx] ; add esp, 4 ; pop edi ; pop esi ; ret
0x10002c08 push cs ; call dword ptr [ecx] ; add esp, 4 ; pop edi ; pop esi ; ret
0x10002c07 mov ecx, dword ptr [esi] ; call dword ptr [ecx] ; add esp, 4 ; pop edi ; pop esi ; ret
0x10002c06 add byte ptr [ebx - 0x7cee00f2], cl ; les eax, ptr [edi + ebx*2] ; pop esi ; ret
0x10002c32 ret
0x10002c31 pop esi ; ret
0x10002c30 pop edi ; pop esi ; ret
0x10002c2f adc byte ptr [edi + 0x5e], bl ; ret
0x10002c2e add byte ptr [eax], dl ; pop edi ; pop esi ; ret
0x10002c2d das ; add byte ptr [eax], dl ; pop edi ; pop esi ; ret
0x10002c2c inc eax ; das ; add byte ptr [eax], dl ; pop edi ; pop esi ; ret
0x10002c2b add al, 0x40 ; das ; add byte ptr [eax], dl ; pop edi ; pop esi ; ret
0x10002c2a inc edi ; add al, 0x40 ; das ; add byte ptr [eax], dl ; pop edi ; pop esi ; ret
0x10002c29 mov dword ptr [edi + 4], 0x10002f40 ; pop edi ; pop esi ; ret
0x10002c28 add al, 0xc7 ; inc edi ; add al, 0x40 ; das ; add byte ptr [eax], dl ; pop edi ; pop esi ; ret
0x10002c54 ret
0x10002c53 pop esi ; ret
0x10002c52 pop edi ; pop esi ; ret
0x10002c51 adc byte ptr [edi + 0x5e], bl ; ret
0x10002c50 add byte ptr [eax], dl ; pop edi ; pop esi ; ret
0x10002c4f xor dword ptr [eax], eax ; adc byte ptr [edi + 0x5e], bl ; ret
0x10002c4e nop ; xor dword ptr [eax], eax ; adc byte ptr [edi + 0x5e], bl ; ret
0x10002c4d add al, 0x90 ; xor dword ptr [eax], eax ; adc byte ptr [edi + 0x5e], bl ; ret
0x10002c4c inc edi ; add al, 0x90 ; xor dword ptr [eax], eax ; adc byte ptr [edi + 0x5e], bl ; ret
0x10002c4b mov dword ptr [edi + 4], 0x10003190 ; pop edi ; pop esi ; ret
0x10002c4a add al, 0xc7 ; inc edi ; add al, 0x90 ; xor dword ptr [eax], eax ; adc byte ptr [edi + 0x5e], bl ; ret
0x10002c76 ret
0x10002c75 pop esi ; ret
0x10002c74 pop edi ; pop esi ; ret
0x10002c73 adc byte ptr [edi + 0x5e], bl ; ret
0x10002c72 add byte ptr [eax], dl ; pop edi ; pop esi ; ret
0x10002c71 sub al, 0 ; adc byte ptr [edi + 0x5e], bl ; ret
0x10002c70 shr byte ptr [eax + eax], 1 ; adc byte ptr [edi + 0x5e], bl ; ret
0x10002c6f add al, 0xd0 ; sub al, 0 ; adc byte ptr [edi + 0x5e], bl ; ret
0x10002c6e inc edi ; add al, 0xd0 ; sub al, 0 ; adc byte ptr [edi + 0x5e], bl ; ret
0x10002c6d mov dword ptr [edi + 4], 0x10002cd0 ; pop edi ; pop esi ; ret
0x10002c6c add al, 0xc7 ; inc edi ; add al, 0xd0 ; sub al, 0 ; adc byte ptr [edi + 0x5e], bl ; ret
0x10002cbd ret
0x10002cbc pop esi ; ret
0x10002cb9 mov dword ptr [eax + 0x10], ecx ; pop esi ; ret
0x10002cb6 mov dword ptr [eax + 0xc], ecx ; mov dword ptr [eax + 0x10], ecx ; pop esi ; ret
0x10002cb3 mov dword ptr [eax + 0x14], edx ; mov dword ptr [eax + 0xc], ecx ; mov dword ptr [eax + 0x10], ecx ; pop esi ; ret
0x10002ccd ret
0x10002ccc pop esi ; ret
0x10002cc9 mov dword ptr [eax + 0x10], ecx ; pop esi ; ret
0x10002cc6 mov dword ptr [eax + 0xc], ecx ; mov dword ptr [eax + 0x10], ecx ; pop esi ; ret
0x10002cc3 mov dword ptr [eax + 0x14], edx ; mov dword ptr [eax + 0xc], ecx ; mov dword ptr [eax + 0x10], ecx ; pop esi ; ret
0x10002f20 ret
0x10002f1e les esi, ptr [eax] ; ret
0x10002f1d add esp, 0x30 ; ret
0x10002f1c pop ebx ; add esp, 0x30 ; ret
0x10002f1b pop ebp ; pop ebx ; add esp, 0x30 ; ret
0x10002f1a pop esi ; pop ebp ; pop ebx ; add esp, 0x30 ; ret
0x10002f19 pop edi ; pop esi ; pop ebp ; pop ebx ; add esp, 0x30 ; ret
0x10002f18 add byte ptr [edi + 0x5e], bl ; pop ebp ; pop ebx ; add esp, 0x30 ; ret
0x10002f17 add byte ptr [eax], al ; pop edi ; pop esi ; pop ebp ; pop ebx ; add esp, 0x30 ; ret
0x10002f16 add byte ptr [eax], al ; add byte ptr [edi + 0x5e], bl ; pop ebp ; pop ebx ; add esp, 0x30 ; ret
0x10002f34 ret
0x10002f32 les esi, ptr [eax] ; ret
0x10002f31 add esp, 0x30 ; ret
0x10002f30 pop ebx ; add esp, 0x30 ; ret
0x10002f2e xor eax, eax ; pop ebx ; add esp, 0x30 ; ret
0x10002f2d pop ebp ; xor eax, eax ; pop ebx ; add esp, 0x30 ; ret
0x10002f2c pop esi ; pop ebp ; xor eax, eax ; pop ebx ; add esp, 0x30 ; ret
0x10002f2b or al, 0x5e ; pop ebp ; xor eax, eax ; pop ebx ; add esp, 0x30 ; ret
0x10002f2a pop ebp ; or al, 0x5e ; pop ebp ; xor eax, eax ; pop ebx ; add esp, 0x30 ; ret
0x10002fbe ret
0x10002fbc adc al, 0x3b ; ret
0x10002fbb les edx, ptr [ebx + edi] ; ret
0x10002fe5 ret
0x10003040 ret
0x1000303e sub al, 0x8b ; ret
0x10003039 les ebx, ptr [eax*4 - 0x74d38101] ; ret
0x10003037 add al, 0x83 ; les ebx, ptr [eax*4 - 0x74d38101] ; ret
0x10003036 push ecx ; add al, 0x83 ; les ebx, ptr [eax*4 - 0x74d38101] ; ret
0x100030a6 ret
0x10003100 ret
0x10003183 ret
0x10003181 les esi, ptr [eax] ; ret
0x10003180 add esp, 0x30 ; ret
0x1000317f pop ebx ; add esp, 0x30 ; ret
0x1000317e pop ebp ; pop ebx ; add esp, 0x30 ; ret
0x1000317d pop esi ; pop ebp ; pop ebx ; add esp, 0x30 ; ret
0x1000317c pop edi ; pop esi ; pop ebp ; pop ebx ; add esp, 0x30 ; ret
0x1000317b or byte ptr [edi + 0x5e], bl ; pop ebp ; pop ebx ; add esp, 0x30 ; ret
0x1000317a les ecx, ptr [eax] ; pop edi ; pop esi ; pop ebp ; pop ebx ; add esp, 0x30 ; ret
0x10003179 add esp, 8 ; pop edi ; pop esi ; pop ebp ; pop ebx ; add esp, 0x30 ; ret
0x100031f3 ret
0x100031f0 add byte ptr [edi - 0x7d], al ; ret
0x100031ee add byte ptr [eax], al ; add byte ptr [edi - 0x7d], al ; ret
0x100031ed in al, dx ; add byte ptr [eax], al ; add byte ptr [edi - 0x7d], al ; ret
0x100031ec xchg ah, ch ; add byte ptr [eax], al ; add byte ptr [edi - 0x7d], al ; ret
0x100031ea add byte ptr [ebx + 0xec86], cl ; add byte ptr [edi - 0x7d], al ; ret
0x100031e9 inc ebp ; add byte ptr [ebx + 0xec86], cl ; add byte ptr [edi - 0x7d], al ; ret
0x10003230 ret
0x1000322e fstp xword ptr [ebx] ; ret
0x1000322c add byte ptr [ebx], dh ; fstp xword ptr [ebx] ; ret
0x1000322a add byte ptr [eax], al ; add byte ptr [ebx], dh ; fstp xword ptr [ebx] ; ret
0x10003229 in al, dx ; add byte ptr [eax], al ; add byte ptr [ebx], dh ; fstp xword ptr [ebx] ; ret
0x10003228 xchg ah, ch ; add byte ptr [eax], al ; add byte ptr [ebx], dh ; fstp xword ptr [ebx] ; ret
0x10003226 add byte ptr [ebx + 0xec86], cl ; add byte ptr [ebx], dh ; fstp xword ptr [ebx] ; ret
0x1000335a ret
0x10003358 les esi, ptr [eax] ; ret
0x10003357 add esp, 0x30 ; ret
0x10003356 pop ebx ; add esp, 0x30 ; ret
0x10003355 pop ebp ; pop ebx ; add esp, 0x30 ; ret
0x10003354 pop esi ; pop ebp ; pop ebx ; add esp, 0x30 ; ret
0x10003353 pop edi ; pop esi ; pop ebp ; pop ebx ; add esp, 0x30 ; ret
0x10003352 add byte ptr [edi + 0x5e], bl ; pop ebp ; pop ebx ; add esp, 0x30 ; ret
0x10003351 add byte ptr [eax], al ; pop edi ; pop esi ; pop ebp ; pop ebx ; add esp, 0x30 ; ret
0x10003350 add byte ptr [eax], al ; add byte ptr [edi + 0x5e], bl ; pop ebp ; pop ebx ; add esp, 0x30 ; ret
0x10003372 ret
0x10003370 les esi, ptr [eax] ; ret
0x1000336f add esp, 0x30 ; ret
0x1000336e pop ebx ; add esp, 0x30 ; ret
0x1000336c xor eax, eax ; pop ebx ; add esp, 0x30 ; ret
0x1000336b pop ebp ; xor eax, eax ; pop ebx ; add esp, 0x30 ; ret
0x10003368 mov dword ptr [eax + 0x10], ecx ; pop ebp ; xor eax, eax ; pop ebx ; add esp, 0x30 ; ret
0x100033ac ret
0x100033a6 adc byte ptr [ebx + 0x3b482446], cl ; ret
0x1000343e ret
0x1000343d pop ebx ; ret
0x1000343c pop esi ; pop ebx ; ret
0x1000343b pop edi ; pop esi ; pop ebx ; ret
0x1000343a adc byte ptr [edi + 0x5e], bl ; pop ebx ; ret
0x10003439 add byte ptr [eax], dl ; pop edi ; pop esi ; pop ebx ; ret
0x10003438 cmp dword ptr [eax], eax ; adc byte ptr [edi + 0x5e], bl ; pop ebx ; ret
0x10003436 add al, 0xf0 ; cmp dword ptr [eax], eax ; adc byte ptr [edi + 0x5e], bl ; pop ebx ; ret
0x10003435 inc edi ; add al, 0xf0 ; cmp dword ptr [eax], eax ; adc byte ptr [edi + 0x5e], bl ; pop ebx ; ret
0x10003434 mov dword ptr [edi + 4], 0x100039f0 ; pop edi ; pop esi ; pop ebx ; ret
0x10003454 ret
0x10003453 pop ebx ; ret
0x10003452 pop esi ; pop ebx ; ret
0x10003451 pop edi ; pop esi ; pop ebx ; ret
0x10003450 adc byte ptr [edi + 0x5e], bl ; pop ebx ; ret
0x1000344f add byte ptr [eax], dl ; pop edi ; pop esi ; pop ebx ; ret
0x1000344e aaa ; add byte ptr [eax], dl ; pop edi ; pop esi ; pop ebx ; ret
0x1000344d sal byte ptr [edi], 1 ; add byte ptr [eax], dl ; pop edi ; pop esi ; pop ebx ; ret
0x1000344c add al, 0xd0 ; aaa ; add byte ptr [eax], dl ; pop edi ; pop esi ; pop ebx ; ret
0x1000344b inc edi ; add al, 0xd0 ; aaa ; add byte ptr [eax], dl ; pop edi ; pop esi ; pop ebx ; ret
0x1000344a mov dword ptr [edi + 4], 0x100037d0 ; pop edi ; pop esi ; pop ebx ; ret
0x10003468 ret
0x10003467 pop ebx ; ret
0x10003466 pop esi ; pop ebx ; ret
0x10003465 pop edi ; pop esi ; pop ebx ; ret
0x10003464 adc byte ptr [edi + 0x5e], bl ; pop ebx ; ret
0x10003463 add byte ptr [eax], dl ; pop edi ; pop esi ; pop ebx ; ret
0x10003462 cmp dword ptr [eax], eax ; adc byte ptr [edi + 0x5e], bl ; pop ebx ; ret
0x10003460 add al, 0xf0 ; cmp dword ptr [eax], eax ; adc byte ptr [edi + 0x5e], bl ; pop ebx ; ret
0x1000345f inc edi ; add al, 0xf0 ; cmp dword ptr [eax], eax ; adc byte ptr [edi + 0x5e], bl ; pop ebx ; ret
0x1000345e mov dword ptr [edi + 4], 0x100039f0 ; pop edi ; pop esi ; pop ebx ; ret
0x1000349e ret
0x1000349d pop ebx ; ret
0x1000349c pop esi ; pop ebx ; ret
0x1000349b pop edi ; pop esi ; pop ebx ; ret
0x1000349a add al, 0x5f ; pop esi ; pop ebx ; ret
0x10003499 les eax, ptr [edi + ebx*2] ; pop esi ; pop ebx ; ret
0x10003498 add esp, 4 ; pop edi ; pop esi ; pop ebx ; ret
0x10003497 adc dword ptr [ebx + 0x5e5f04c4], eax ; pop ebx ; ret
0x10003496 call dword ptr [ecx] ; add esp, 4 ; pop edi ; pop esi ; pop ebx ; ret
0x10003495 push cs ; call dword ptr [ecx] ; add esp, 4 ; pop edi ; pop esi ; pop ebx ; ret
0x10003494 mov ecx, dword ptr [esi] ; call dword ptr [ecx] ; add esp, 4 ; pop edi ; pop esi ; pop ebx ; ret
0x100034ce ret
0x100034cd pop ebx ; ret
0x100034cc pop esi ; pop ebx ; ret
0x100034cb pop edi ; pop esi ; pop ebx ; ret
0x100034ca adc byte ptr [edi + 0x5e], bl ; pop ebx ; ret
0x100034c9 add byte ptr [eax], dl ; pop edi ; pop esi ; pop ebx ; ret
0x100034c8 add byte ptr ss:[eax], dl ; pop edi ; pop esi ; pop ebx ; ret
0x100034c7 mov al, byte ptr [0x5f100036] ; pop esi ; pop ebx ; ret
0x100034c6 add al, 0xa0 ; add byte ptr ss:[eax], dl ; pop edi ; pop esi ; pop ebx ; ret
0x100034c5 inc edi ; add al, 0xa0 ; add byte ptr ss:[eax], dl ; pop edi ; pop esi ; pop ebx ; ret
0x100034c4 mov dword ptr [edi + 4], 0x100036a0 ; pop edi ; pop esi ; pop ebx ; ret
0x100034ec ret
0x100034eb pop ebx ; ret
0x100034ea pop esi ; pop ebx ; ret
0x100034e9 pop edi ; pop esi ; pop ebx ; ret
0x100034e8 add al, 0x5f ; pop esi ; pop ebx ; ret
0x100034e7 les eax, ptr [edi + ebx*2] ; pop esi ; pop ebx ; ret
0x100034e6 add esp, 4 ; pop edi ; pop esi ; pop ebx ; ret
0x100034e5 adc al, byte ptr [ebx + 0x5e5f04c4] ; pop ebx ; ret
0x100034e4 call dword ptr [edx] ; add esp, 4 ; pop edi ; pop esi ; pop ebx ; ret
0x100034e3 push ss ; call dword ptr [edx] ; add esp, 4 ; pop edi ; pop esi ; pop ebx ; ret
0x100034e2 mov edx, dword ptr [esi] ; call dword ptr [edx] ; add esp, 4 ; pop edi ; pop esi ; pop ebx ; ret
0x1000351c ret
0x1000351b pop ebx ; ret
0x1000351a pop esi ; pop ebx ; ret
0x10003519 pop edi ; pop esi ; pop ebx ; ret
0x10003518 add al, 0x5f ; pop esi ; pop ebx ; ret
0x10003517 les eax, ptr [edi + ebx*2] ; pop esi ; pop ebx ; ret
0x10003516 add esp, 4 ; pop edi ; pop esi ; pop ebx ; ret
0x10003515 adc byte ptr [ebx + 0x5e5f04c4], al ; pop ebx ; ret
0x10003514 call dword ptr [eax] ; add esp, 4 ; pop edi ; pop esi ; pop ebx ; ret
0x10003513 push es ; call dword ptr [eax] ; add esp, 4 ; pop edi ; pop esi ; pop ebx ; ret
0x10003512 mov eax, dword ptr [esi] ; call dword ptr [eax] ; add esp, 4 ; pop edi ; pop esi ; pop ebx ; ret
0x10003537 ret
0x10003535 and al, 0x3b ; ret
0x10003534 inc esi ; and al, 0x3b ; ret
0x10003532 add al, 0x8b ; inc esi ; and al, 0x3b ; ret
0x10003531 les eax, ptr [ebx + ecx*4] ; inc esi ; and al, 0x3b ; ret
0x1000352f adc al, byte ptr [ebx + 0x468b04c4] ; and al, 0x3b ; ret
0x1000354a ret
0x10003549 pop ebx ; ret
0x10003548 pop esi ; pop ebx ; ret
0x10003547 pop edi ; pop esi ; pop ebx ; ret
0x10003546 adc byte ptr [edi + 0x5e], bl ; pop ebx ; ret
0x10003545 add byte ptr [eax], dl ; pop edi ; pop esi ; pop ebx ; ret
0x10003544 cmp byte ptr [eax], al ; adc byte ptr [edi + 0x5e], bl ; pop ebx ; ret
0x10003543 cmp byte ptr [eax], 0 ; adc byte ptr [edi + 0x5e], bl ; pop ebx ; ret
0x10003542 add al, 0x80 ; cmp byte ptr [eax], al ; adc byte ptr [edi + 0x5e], bl ; pop ebx ; ret
0x10003541 inc edi ; add al, 0x80 ; cmp byte ptr [eax], al ; adc byte ptr [edi + 0x5e], bl ; pop ebx ; ret
0x10003540 mov dword ptr [edi + 4], 0x10003880 ; pop edi ; pop esi ; pop ebx ; ret
0x10003564 ret
0x10003563 pop ebx ; ret
0x10003562 pop esi ; pop ebx ; ret
0x10003561 pop edi ; pop esi ; pop ebx ; ret
0x10003560 add al, 0x5f ; pop esi ; pop ebx ; ret
0x1000355f les eax, ptr [edi + ebx*2] ; pop esi ; pop ebx ; ret
0x1000355e add esp, 4 ; pop edi ; pop esi ; pop ebx ; ret
0x1000355d adc dword ptr [ebx + 0x5e5f04c4], eax ; pop ebx ; ret
0x1000355c call dword ptr [ecx] ; add esp, 4 ; pop edi ; pop esi ; pop ebx ; ret
0x1000355b push cs ; call dword ptr [ecx] ; add esp, 4 ; pop edi ; pop esi ; pop ebx ; ret
0x1000355a mov ecx, dword ptr [esi] ; call dword ptr [ecx] ; add esp, 4 ; pop edi ; pop esi ; pop ebx ; ret
0x1000358f ret
0x1000358e pop ebx ; ret
0x1000358d pop esi ; pop ebx ; ret
0x1000358c pop edi ; pop esi ; pop ebx ; ret
0x1000358b adc byte ptr [edi + 0x5e], bl ; pop ebx ; ret
0x1000358a add byte ptr [eax], dl ; pop edi ; pop esi ; pop ebx ; ret
0x10003589 cmp al, byte ptr [eax] ; adc byte ptr [edi + 0x5e], bl ; pop ebx ; ret
0x10003588 pushal ; cmp al, byte ptr [eax] ; adc byte ptr [edi + 0x5e], bl ; pop ebx ; ret
0x10003587 add al, 0x60 ; cmp al, byte ptr [eax] ; adc byte ptr [edi + 0x5e], bl ; pop ebx ; ret
0x10003586 inc edi ; add al, 0x60 ; cmp al, byte ptr [eax] ; adc byte ptr [edi + 0x5e], bl ; pop ebx ; ret
0x10003585 mov dword ptr [edi + 4], 0x10003a60 ; pop edi ; pop esi ; pop ebx ; ret
0x1000369c ret
0x1000369a les ecx, ptr [eax] ; ret
0x10003699 add esp, 8 ; ret
0x10003698 pop ebx ; add esp, 8 ; ret
0x10003697 pop ebp ; pop ebx ; add esp, 8 ; ret
0x10003696 pop esi ; pop ebp ; pop ebx ; add esp, 8 ; ret
0x10003695 pop edi ; pop esi ; pop ebp ; pop ebx ; add esp, 8 ; ret
0x10003694 lcall ptr [edi + 0x5e] ; pop ebp ; pop ebx ; add esp, 8 ; ret
0x100037c7 ret
0x100037c5 les edx, ptr [eax] ; ret
0x100037c4 add esp, 0x10 ; ret
0x100037c3 pop edi ; add esp, 0x10 ; ret
0x100037c2 pop esi ; pop edi ; add esp, 0x10 ; ret
0x100037c1 pop ebp ; pop esi ; pop edi ; add esp, 0x10 ; ret
0x100037c0 pop ebx ; pop ebp ; pop esi ; pop edi ; add esp, 0x10 ; ret
0x100037bf lcall ptr [ebx + 0x5d] ; pop esi ; pop edi ; add esp, 0x10 ; ret
0x10003868 ret
0x10003866 retf -0x3c8e
0x10003863 adc byte ptr [ecx + 0x3b], al ; retf -0x3c8e
0x1000387d ret
0x1000387c pop ecx ; ret
0x1000387b pop esi ; pop ecx ; ret
0x1000387a pop edi ; pop esi ; pop ecx ; ret
0x10003879 pop ebp ; pop edi ; pop esi ; pop ecx ; ret
0x10003878 pop ebx ; pop ebp ; pop edi ; pop esi ; pop ecx ; ret
0x10003877 mov word ptr [ebx + 0x5d], ds ; pop edi ; pop esi ; pop ecx ; ret
0x10003876 jne 0xffffff8e ; pop ebx ; pop ebp ; pop edi ; pop esi ; pop ecx ; ret
0x10003875 sbb byte ptr [ebp - 0x74], dh ; pop ebx ; pop ebp ; pop edi ; pop esi ; pop ecx ; ret
0x10003874 and al, 0x18 ; jne 0xffffff90 ; pop ebx ; pop ebp ; pop edi ; pop esi ; pop ecx ; ret
0x10003873 inc esp ; and al, 0x18 ; jne 0xffffff91 ; pop ebx ; pop ebp ; pop edi ; pop esi ; pop ecx ; ret
0x100039e6 ret
0x100039e3 add esp, 0x14 ; ret
0x100039e2 pop edi ; add esp, 0x14 ; ret
0x100039e1 pop esi ; pop edi ; add esp, 0x14 ; ret
0x100039e0 pop ebp ; pop esi ; pop edi ; add esp, 0x14 ; ret
0x100039df pop ebx ; pop ebp ; pop esi ; pop edi ; add esp, 0x14 ; ret
0x100039de lcall ptr [ebx + 0x5d] ; pop esi ; pop edi ; add esp, 0x14 ; ret
0x10003a56 ret
0x10003a55 pop ecx ; ret
0x10003a54 pop edi ; pop ecx ; ret
0x10003a53 pop esi ; pop edi ; pop ecx ; ret
0x10003a52 pop ebp ; pop esi ; pop edi ; pop ecx ; ret
0x10003a51 pop ebx ; pop ebp ; pop esi ; pop edi ; pop ecx ; ret
0x10003a50 int 0x5b ; pop ebp ; pop esi ; pop edi ; pop ecx ; ret
0x10003a4f jne 0xffffffcf ; pop ebx ; pop ebp ; pop esi ; pop edi ; pop ecx ; ret
0x10003a4e sbb byte ptr [ebp - 0x33], dh ; pop ebx ; pop ebp ; pop esi ; pop edi ; pop ecx ; ret
0x10003a4d and al, 0x18 ; jne 0xffffffd1 ; pop ebx ; pop ebp ; pop esi ; pop edi ; pop ecx ; ret
0x10003a4c inc esp ; and al, 0x18 ; jne 0xffffffd2 ; pop ebx ; pop ebp ; pop esi ; pop edi ; pop ecx ; ret
0x10003af2 ret
0x10003af1 pop ebp ; ret
0x10003af0 pop edi ; pop ebp ; ret
0x10003aef pop esi ; pop edi ; pop ebp ; ret
0x10003aee pop ebx ; pop esi ; pop edi ; pop ebp ; ret
0x10003aed wait ; pop ebx ; pop esi ; pop edi ; pop ebp ; ret
0x10003aec jne 0xffffff9d ; pop ebx ; pop esi ; pop edi ; pop ebp ; ret
0x10003aeb and byte ptr [ebp - 0x65], dh ; pop ebx ; pop esi ; pop edi ; pop ebp ; ret
0x10003aea and al, 0x20 ; jne 0xffffff9f ; pop ebx ; pop esi ; pop edi ; pop ebp ; ret
0x10003ae9 inc esp ; and al, 0x20 ; jne 0xffffffa0 ; pop ebx ; pop esi ; pop edi ; pop ebp ; ret
0x10003ae8 mov dword ptr [esp + 0x20], eax ; jne 0xffffffa1 ; pop ebx ; pop esi ; pop edi ; pop ebp ; ret
0x10003b2b ret
0x10003b29 add byte ptr [ebx], ch ; ret
0x10003b27 add byte ptr [eax], al ; add byte ptr [ebx], ch ; ret
0x10003b26 mov esp, 0x2b000000 ; ret
0x10003b23 adc byte ptr [ebx + 0xbc87], cl ; add byte ptr [ebx], ch ; ret
0x10003b21 cmp eax, dword ptr [eax] ; adc byte ptr [ebx + 0xbc87], cl ; add byte ptr [ebx], ch ; ret
0x10003b8b ret
0x10003b8a pop ebx ; ret
0x10003b89 pop esi ; pop ebx ; ret
0x10003b88 pop edi ; pop esi ; pop ebx ; ret
0x10003b87 cmc ; pop edi ; pop esi ; pop ebx ; ret
0x10003b86 jne 0xfffffff7 ; pop edi ; pop esi ; pop ebx ; ret
0x10003b85 dec ecx ; jne 0xfffffff8 ; pop edi ; pop esi ; pop ebx ; ret
0x10003b84 add al, 0x49 ; jne 0xfffffff9 ; pop edi ; pop esi ; pop ebx ; ret
0x10003b83 rol byte ptr [ecx + ecx*2], 0x75 ; cmc ; pop edi ; pop esi ; pop ebx ; ret
0x10003b82 add eax, 4 ; dec ecx ; jne 0xfffffffb ; pop edi ; pop esi ; pop ebx ; ret
0x10003b81 sbb byte ptr [ebx + 0x754904c0], al ; cmc ; pop edi ; pop esi ; pop ebx ; ret
0x10003db7 ret
0x10003db6 pop ebp ; ret
0x10003db5 in eax, 0x5d ; ret
0x10003db4 mov esp, ebp ; pop ebp ; ret
0x10003db3 pop ebx ; mov esp, ebp ; pop ebp ; ret
0x10003db2 pop esi ; pop ebx ; mov esp, ebp ; pop ebp ; ret
0x10003db1 pop edi ; pop esi ; pop ebx ; mov esp, ebp ; pop ebp ; ret
0x10003db0 lcall ptr [edi + 0x5e] ; pop ebx ; mov esp, ebp ; pop ebp ; ret
0x10003dad adc eax, 0x5ffffffe ; pop esi ; pop ebx ; mov esp, ebp ; pop ebp ; ret
0x10003f59 ret
0x10003f57 add byte ptr [eax], al ; ret
0x10003f55 or al, 1 ; add byte ptr [eax], al ; ret
0x10003f54 les ecx, ptr [ecx + eax] ; add byte ptr [eax], al ; ret
0x10003f53 add esp, 0x10c ; ret
0x10003f52 pop edi ; add esp, 0x10c ; ret
0x10003f51 pop esi ; pop edi ; add esp, 0x10c ; ret
0x10003f50 pop ebp ; pop esi ; pop edi ; add esp, 0x10c ; ret
0x10003f4f pop ebx ; pop ebp ; pop esi ; pop edi ; add esp, 0x10c ; ret
0x10004118 ret
0x10004116 add byte ptr [eax], al ; ret
0x10004114 adc byte ptr [ecx], al ; add byte ptr [eax], al ; ret
0x10004112 add esp, 0x110 ; ret
0x10004111 pop edi ; add esp, 0x110 ; ret
0x10004110 pop esi ; pop edi ; add esp, 0x110 ; ret
0x1000410f pop ebp ; pop esi ; pop edi ; add esp, 0x110 ; ret
0x1000410e pop ebx ; pop ebp ; pop esi ; pop edi ; add esp, 0x110 ; ret
0x10004180 ret
0x1000417a fmul dword ptr [ebx - 0x74047517] ; ret
0x10004186 ret
0x10004183 adc byte ptr [esi - 0x75], ah ; ret
0x10004243 ret
0x10004241 add byte ptr [eax], al ; ret
0x1000423d add esp, 0x510 ; ret
0x1000423c pop ebx ; add esp, 0x510 ; ret
0x1000423b pop ebp ; pop ebx ; add esp, 0x510 ; ret
0x1000423a pop esi ; pop ebp ; pop ebx ; add esp, 0x510 ; ret
0x10004239 pop edi ; pop esi ; pop ebp ; pop ebx ; add esp, 0x510 ; ret
0x100043ea ret
0x100043e4 jp 0x80110462 ; ret
0x1000448d ret
0x1000448b add byte ptr [eax], al ; ret
0x10004489 sub al, 8 ; add byte ptr [eax], al ; ret
0x10004488 les ebp, ptr [eax + ecx] ; add byte ptr [eax], al ; ret
0x10004487 add esp, 0x82c ; ret
0x10004486 pop ebx ; add esp, 0x82c ; ret
0x10004485 pop ebp ; pop ebx ; add esp, 0x82c ; ret
0x10004484 pop esi ; pop ebp ; pop ebx ; add esp, 0x82c ; ret
0x10004483 pop edi ; pop esi ; pop ebp ; pop ebx ; add esp, 0x82c ; ret
0x100044ca ret
0x100044c9 pop esi ; ret
0x100044c8 out dx, eax ; pop esi ; ret
0x100044c7 jne 0xfffffff1 ; pop esi ; ret
0x100044c6 dec edx ; jne 0xfffffff2 ; pop esi ; ret
0x100044c5 add al, 0x4a ; jne 0xfffffff3 ; pop esi ; ret
0x100044c4 rol byte ptr [edx + ecx*2], 0x75 ; out dx, eax ; pop esi ; ret
0x100044c3 add eax, 4 ; dec edx ; jne 0xfffffff5 ; pop esi ; ret
0x100044c2 and byte ptr [ebx + 0x754a04c0], al ; out dx, eax ; pop esi ; ret
0x100044c1 dec eax ; and byte ptr [ebx + 0x754a04c0], al ; out dx, eax ; pop esi ; ret
0x100044c0 mov dword ptr [eax + 0x20], ecx ; add eax, 4 ; dec edx ; jne 0xfffffff8 ; pop esi ; ret
0x10004672 ret
0x10004670 les ecx, ptr [eax] ; ret
0x1000466f add esp, 8 ; ret
0x1000466e pop ebx ; add esp, 8 ; ret
0x1000466d pop ebp ; pop ebx ; add esp, 8 ; ret
0x1000466c pop esi ; pop ebp ; pop ebx ; add esp, 8 ; ret
0x1000466b add byte ptr [esi + 0x5d], bl ; pop ebx ; add esp, 8 ; ret
0x1000466a add byte ptr [eax], al ; pop esi ; pop ebp ; pop ebx ; add esp, 8 ; ret
0x10004669 add byte ptr [eax], al ; add byte ptr [esi + 0x5d], bl ; pop ebx ; add esp, 8 ; ret
0x10004668 add byte ptr [eax], al ; add byte ptr [eax], al ; pop esi ; pop ebp ; pop ebx ; add esp, 8 ; ret
0x100046e0 ret
0x100046de les ebp, ptr [eax] ; ret
0x100046dd add esp, 0x28 ; ret
0x100046dc pop ebx ; add esp, 0x28 ; ret
0x100046db pop ebp ; pop ebx ; add esp, 0x28 ; ret
0x100046da pop esi ; pop ebp ; pop ebx ; add esp, 0x28 ; ret
0x100046d9 pop edi ; pop esi ; pop ebp ; pop ebx ; add esp, 0x28 ; ret
0x100046d8 or byte ptr [edi + 0x5e], bl ; pop ebp ; pop ebx ; add esp, 0x28 ; ret
0x100046d7 jne 0xa ; pop edi ; pop esi ; pop ebp ; pop ebx ; add esp, 0x28 ; ret
0x100046d6 sal byte ptr [ebp + 8], 0x5f ; pop esi ; pop ebp ; pop ebx ; add esp, 0x28 ; ret
0x100047af ret
0x100047ad les ebp, ptr [eax] ; ret
0x100047ac add esp, 0x28 ; ret
0x100047ab pop ebx ; add esp, 0x28 ; ret
0x100047aa pop ebp ; pop ebx ; add esp, 0x28 ; ret
0x100047a9 pop esi ; pop ebp ; pop ebx ; add esp, 0x28 ; ret
0x100047a8 pop edi ; pop esi ; pop ebp ; pop ebx ; add esp, 0x28 ; ret
0x100047a7 add byte ptr [edi + 0x5e], bl ; pop ebp ; pop ebx ; add esp, 0x28 ; ret
0x100047a6 add byte ptr [eax], al ; pop edi ; pop esi ; pop ebp ; pop ebx ; add esp, 0x28 ; ret
0x100047a5 add byte ptr [eax], al ; add byte ptr [edi + 0x5e], bl ; pop ebp ; pop ebx ; add esp, 0x28 ; ret
0x100047b9 ret
0x100047b7 les ebp, ptr [eax] ; ret
0x100047b6 add esp, 0x28 ; ret
0x100047b5 pop ebx ; add esp, 0x28 ; ret
0x100047b3 xor eax, eax ; pop ebx ; add esp, 0x28 ; ret
0x100047b2 pop ebp ; xor eax, eax ; pop ebx ; add esp, 0x28 ; ret
0x100047b1 pop esi ; pop ebp ; xor eax, eax ; pop ebx ; add esp, 0x28 ; ret
0x100047b0 pop edi ; pop esi ; pop ebp ; xor eax, eax ; pop ebx ; add esp, 0x28 ; ret
0x100047af ret ; pop edi ; pop esi ; pop ebp ; xor eax, eax ; pop ebx ; add esp, 0x28 ; ret
0x10004807 ret
0x10004806 pop ebx ; ret
0x10004805 pop ebp ; pop ebx ; ret
0x10004804 pop esi ; pop ebp ; pop ebx ; ret
0x10004803 pop edi ; pop esi ; pop ebp ; pop ebx ; ret
0x10004802 add eax, 0x5b5d5e5f ; ret
0x10004801 jne 7 ; pop edi ; pop esi ; pop ebp ; pop ebx ; ret
0x10004800 sal byte ptr [ebp + 5], 0x5f ; pop esi ; pop ebp ; pop ebx ; ret
0x100047ff test eax, eax ; jne 9 ; pop edi ; pop esi ; pop ebp ; pop ebx ; ret
0x100047fe or al, 0x85 ; sal byte ptr [ebp + 5], 0x5f ; pop esi ; pop ebp ; pop ebx ; ret
0x100047fd les ecx, ptr [eax*4 + 0x5f0575c0] ; pop esi ; pop ebp ; pop ebx ; ret
0x1000481f ret
0x1000481e pop ebx ; ret
0x1000481d pop ebp ; pop ebx ; ret
0x1000481c pop esi ; pop ebp ; pop ebx ; ret
0x1000481b pop edi ; pop esi ; pop ebp ; pop ebx ; ret
0x1000481a add eax, 0x5b5d5e5f ; ret
0x10004819 jne 7 ; pop edi ; pop esi ; pop ebp ; pop ebx ; ret
0x10004818 sal byte ptr [ebp + 5], 0x5f ; pop esi ; pop ebp ; pop ebx ; ret
0x10004817 test eax, eax ; jne 9 ; pop edi ; pop esi ; pop ebp ; pop ebx ; ret
0x10004816 or al, 0x85 ; sal byte ptr [ebp + 5], 0x5f ; pop esi ; pop ebp ; pop ebx ; ret
0x10004815 les ecx, ptr [eax*4 + 0x5f0575c0] ; pop esi ; pop ebp ; pop ebx ; ret
0x10004859 ret
0x10004907 ret
0x10004906 pop ebx ; ret
0x10004905 pop ebp ; pop ebx ; ret
0x10004904 pop esi ; pop ebp ; pop ebx ; ret
0x10004903 pop edi ; pop esi ; pop ebp ; pop ebx ; ret
0x10004902 rcr byte ptr [edi + 0x5e], 0x5d ; pop ebx ; ret
0x10004901 xor eax, eax ; pop edi ; pop esi ; pop ebp ; pop ebx ; ret
0x10004900 pop es ; xor eax, eax ; pop edi ; pop esi ; pop ebp ; pop ebx ; ret
0x100048ff jne 9 ; xor eax, eax ; pop edi ; pop esi ; pop ebp ; pop ebx ; ret
0x100048fe sal byte ptr [ebp + 7], 0x33 ; rcr byte ptr [edi + 0x5e], 0x5d ; pop ebx ; ret
0x100048fd test eax, eax ; jne 0xb ; xor eax, eax ; pop edi ; pop esi ; pop ebp ; pop ebx ; ret
0x10004911 ret
0x10004910 pop ebx ; ret
0x1000490e add byte ptr [eax], al ; pop ebx ; ret
0x1000490c add dword ptr [eax], eax ; add byte ptr [eax], al ; pop ebx ; ret
0x1000490b mov eax, 1 ; pop ebx ; ret
0x10004909 pop esi ; pop ebp ; mov eax, 1 ; pop ebx ; ret
0x10004908 pop edi ; pop esi ; pop ebp ; mov eax, 1 ; pop ebx ; ret
0x10004907 ret ; pop edi ; pop esi ; pop ebp ; mov eax, 1 ; pop ebx ; ret
0x100049de ret
0x100049dd pop ebx ; ret
0x100049dc pop ebp ; pop ebx ; ret
0x100049db pop esi ; pop ebp ; pop ebx ; ret
0x100049da pop edi ; pop esi ; pop ebp ; pop ebx ; ret
0x100049d9 add byte ptr [edi + 0x5e], bl ; pop ebp ; pop ebx ; ret
0x100049d8 add byte ptr [eax], al ; pop edi ; pop esi ; pop ebp ; pop ebx ; ret
0x100049d7 add byte ptr [eax], al ; add byte ptr [edi + 0x5e], bl ; pop ebp ; pop ebx ; ret
0x100049d6 add dword ptr [eax], eax ; add byte ptr [eax], al ; pop edi ; pop esi ; pop ebp ; pop ebx ; ret
0x100049d5 mov eax, 1 ; pop edi ; pop esi ; pop ebp ; pop ebx ; ret
0x100049d4 or al, 0xb8 ; add dword ptr [eax], eax ; add byte ptr [eax], al ; pop edi ; pop esi ; pop ebp ; pop ebx ; ret
0x100049e5 ret
0x100049e4 pop ebx ; ret
0x100049e3 pop ebp ; pop ebx ; ret
0x100049e2 pop esi ; pop ebp ; pop ebx ; ret
0x100049e1 pop edi ; pop esi ; pop ebp ; pop ebx ; ret
0x100049e0 rcr byte ptr [edi + 0x5e], 0x5d ; pop ebx ; ret
0x100049df xor eax, eax ; pop edi ; pop esi ; pop ebp ; pop ebx ; ret
0x100049de ret ; xor eax, eax ; pop edi ; pop esi ; pop ebp ; pop ebx ; ret
0x100049dd pop ebx ; ret ; xor eax, eax ; pop edi ; pop esi ; pop ebp ; pop ebx ; ret
0x100049dc pop ebp ; pop ebx ; ret ; xor eax, eax ; pop edi ; pop esi ; pop ebp ; pop ebx ; ret
0x100049db pop esi ; pop ebp ; pop ebx ; ret ; xor eax, eax ; pop edi ; pop esi ; pop ebp ; pop ebx ; ret
0x100049f5 ret
0x100049f4 pop ebx ; ret
0x100049f2 add byte ptr [eax], al ; pop ebx ; ret
0x100049f0 add dword ptr [eax], eax ; add byte ptr [eax], al ; pop ebx ; ret
0x100049ef mov eax, 1 ; pop ebx ; ret
0x100049ee pop ebp ; mov eax, 1 ; pop ebx ; ret
0x100049ed pop esi ; pop ebp ; mov eax, 1 ; pop ebx ; ret
0x100049ec pop edi ; pop esi ; pop ebp ; mov eax, 1 ; pop ebx ; ret
0x100049eb or al, 0x5f ; pop esi ; pop ebp ; mov eax, 1 ; pop ebx ; ret
0x10004a19 ret
0x10004a18 pop esi ; ret
0x10004a17 pop edi ; pop esi ; ret
0x10004a16 add ebx, dword ptr [edi + 0x5e] ; ret
0x10004a15 jne 5 ; pop edi ; pop esi ; ret
0x10004a14 sal byte ptr [ebp + 3], 0x5f ; pop esi ; ret
0x10004a13 test eax, eax ; jne 7 ; pop edi ; pop esi ; ret
0x10004a12 add al, 0x85 ; sal byte ptr [ebp + 3], 0x5f ; pop esi ; ret
0x10004a11 les eax, ptr [eax*4 + 0x5f0375c0] ; pop esi ; ret
0x10004a10 add esp, 4 ; test eax, eax ; jne 0xa ; pop edi ; pop esi ; ret
0x10004a0f or al, 0x83 ; les eax, ptr [eax*4 + 0x5f0375c0] ; pop esi ; ret
0x10004a2b ret
0x10004a2a pop esi ; ret
0x10004a28 add byte ptr [eax], al ; pop esi ; ret
0x10004a26 add dword ptr [eax], eax ; add byte ptr [eax], al ; pop esi ; ret
0x10004a25 mov eax, 1 ; pop esi ; ret
0x10004a24 pop edi ; mov eax, 1 ; pop esi ; ret
0x10004a23 add al, 0x5f ; mov eax, 1 ; pop esi ; ret
0x10004a22 dec edi ; add al, 0x5f ; mov eax, 1 ; pop esi ; ret
0x10004a21 mov dword ptr [edi + 4], ecx ; pop edi ; mov eax, 1 ; pop esi ; ret
0x10004a43 ret
0x10004a42 pop esi ; ret
0x10004a40 jne 4 ; pop esi ; ret
0x10004a3f sal byte ptr [ebp + 2], 0x5e ; ret
0x10004a3e test eax, eax ; jne 6 ; pop esi ; ret
0x10004a3d add al, 0x85 ; sal byte ptr [ebp + 2], 0x5e ; ret
0x10004a3c les eax, ptr [eax*4 + 0x5e0275c0] ; ret
0x10004a3b add esp, 4 ; test eax, eax ; jne 9 ; pop esi ; ret
0x10004a3a add byte ptr [ebx - 0x3f7afb3c], al ; jne 0xa ; pop esi ; ret
0x10004a39 add byte ptr [eax], al ; add esp, 4 ; test eax, eax ; jne 0xb ; pop esi ; ret
0x10004a65 ret
0x10004a64 pop esi ; ret
0x10004a62 jne 4 ; pop esi ; ret
0x10004a61 sal byte ptr [ebp + 2], 0x5e ; ret
0x10004a60 test eax, eax ; jne 6 ; pop esi ; ret
0x10004a5f add al, 0x85 ; sal byte ptr [ebp + 2], 0x5e ; ret
0x10004a5e les eax, ptr [eax*4 + 0x5e0275c0] ; ret
0x10004a5d add esp, 4 ; test eax, eax ; jne 9 ; pop esi ; ret
0x10004a5c inc dword ptr [ebx - 0x3f7afb3c] ; jne 0xa ; pop esi ; ret
0x10004a8d ret
0x10004a8c pop esi ; ret
0x10004a8a jne 4 ; pop esi ; ret
0x10004a89 sal byte ptr [ebp + 2], 0x5e ; ret
0x10004a88 test eax, eax ; jne 6 ; pop esi ; ret
0x10004a87 add al, 0x85 ; sal byte ptr [ebp + 2], 0x5e ; ret
0x10004a86 les eax, ptr [eax*4 + 0x5e0275c0] ; ret
0x10004a85 add esp, 4 ; test eax, eax ; jne 9 ; pop esi ; ret
0x10004a84 inc dword ptr [ebx - 0x3f7afb3c] ; jne 0xa ; pop esi ; ret
0x10004abb ret
0x10004aba pop esi ; ret
0x10004ab8 add byte ptr [eax], al ; pop esi ; ret
0x10004ab6 add dword ptr [eax], eax ; add byte ptr [eax], al ; pop esi ; ret
0x10004ab5 mov eax, 1 ; pop esi ; ret
0x10004ab4 jmp 0xffffffba ; add dword ptr [eax], eax ; add byte ptr [eax], al ; pop esi ; ret
0x10004ab3 jl 0xffffffed ; mov eax, 1 ; pop esi ; ret
0x10004ab2 add byte ptr [ebx + ebp*8 - 0x48], bh ; add dword ptr [eax], eax ; add byte ptr [eax], al ; pop esi ; ret
0x10004ab1 add byte ptr [eax], al ; jl 0xffffffef ; mov eax, 1 ; pop esi ; ret
0x10004ad7 ret
0x10004ad6 pop esi ; ret
0x10004ad4 jne 4 ; pop esi ; ret
0x10004ad3 sal byte ptr [ebp + 2], 0x5e ; ret
0x10004ad2 test eax, eax ; jne 6 ; pop esi ; ret
0x10004ad1 or al, 0x85 ; sal byte ptr [ebp + 2], 0x5e ; ret
0x10004ad0 les ecx, ptr [eax*4 + 0x5e0275c0] ; ret
0x10004acf add esp, 0xc ; test eax, eax ; jne 9 ; pop esi ; ret
0x10004ace inc dword ptr [ebx - 0x3f7af33c] ; jne 0xa ; pop esi ; ret
0x10004ae6 ret
0x10004ae5 pop esi ; ret
0x10004ae3 add byte ptr [eax], al ; pop esi ; ret
0x10004ae1 add dword ptr [eax], eax ; add byte ptr [eax], al ; pop esi ; ret
0x10004ae0 mov eax, 1 ; pop esi ; ret
0x10004adf or al, 0xb8 ; add dword ptr [eax], eax ; add byte ptr [eax], al ; pop esi ; ret
0x10004ade inc esi ; or al, 0xb8 ; add dword ptr [eax], eax ; add byte ptr [eax], al ; pop esi ; ret
0x10004add mov dword ptr [esi + 0xc], eax ; mov eax, 1 ; pop esi ; ret
0x10004b6e ret
0x10004b6b add esp, 0x24 ; ret
0x10004b6a pop ebx ; add esp, 0x24 ; ret
0x10004b69 pop ebp ; pop ebx ; add esp, 0x24 ; ret
0x10004b68 pop esi ; pop ebp ; pop ebx ; add esp, 0x24 ; ret
0x10004b67 pop edi ; pop esi ; pop ebp ; pop ebx ; add esp, 0x24 ; ret
0x10004b66 movsd dword ptr es:[edi], dword ptr [esi] ; pop edi ; pop esi ; pop ebp ; pop ebx ; add esp, 0x24 ; ret
0x10004b65 rep movsd dword ptr es:[edi], dword ptr [esi] ; pop edi ; pop esi ; pop ebp ; pop ebx ; add esp, 0x24 ; ret
0x10004b64 add bl, dh ; movsd dword ptr es:[edi], dword ptr [esi] ; pop edi ; pop esi ; pop ebp ; pop ebx ; add esp, 0x24 ; ret
0x10004c42 ret
0x10004c41 pop ecx ; ret
0x10004c40 pop ebx ; pop ecx ; ret
0x10004c3f add byte ptr [ebx + 0x59], bl ; ret
0x10004c3e add byte ptr [eax], al ; pop ebx ; pop ecx ; ret
0x10004c3d add byte ptr [eax], al ; add byte ptr [ebx + 0x59], bl ; ret
0x10004c3c add dword ptr [eax], eax ; add byte ptr [eax], al ; pop ebx ; pop ecx ; ret
0x10004c3b mov eax, 1 ; pop ebx ; pop ecx ; ret
0x10004c3a pop ebp ; mov eax, 1 ; pop ebx ; pop ecx ; ret
0x10004c39 pop esi ; pop ebp ; mov eax, 1 ; pop ebx ; pop ecx ; ret
0x10004c38 pop edi ; pop esi ; pop ebp ; mov eax, 1 ; pop ebx ; pop ecx ; ret
0x10004ce9 ret
0x10004ce8 pop ebx ; ret
0x10004ce7 pop ebp ; pop ebx ; ret
0x10004ce6 pop esi ; pop ebp ; pop ebx ; ret
0x10004ce5 pop edi ; pop esi ; pop ebp ; pop ebx ; ret
0x10004ce4 push es ; pop edi ; pop esi ; pop ebp ; pop ebx ; ret
0x10004ce3 inc dword ptr [esi] ; pop edi ; pop esi ; pop ebp ; pop ebx ; ret
0x10004ce2 add bh, bh ; push es ; pop edi ; pop esi ; pop ebp ; pop ebx ; ret
0x10004ce1 jle 4 ; inc dword ptr [esi] ; pop edi ; pop esi ; pop ebp ; pop ebx ; ret
0x10004ce0 sar byte ptr [esi + 2], 0xff ; push es ; pop edi ; pop esi ; pop ebp ; pop ebx ; ret
0x10004cdf test eax, eax ; jle 6 ; inc dword ptr [esi] ; pop edi ; pop esi ; pop ebp ; pop ebx ; ret
0x10004df7 ret
0x10004df5 les ebp, ptr [eax] ; ret
0x10004df4 add esp, 0x28 ; ret
0x10004df3 pop esi ; add esp, 0x28 ; ret
0x10004df2 pop edi ; pop esi ; add esp, 0x28 ; ret
0x10004df1 pop ebp ; pop edi ; pop esi ; add esp, 0x28 ; ret
0x10004df0 pop ebx ; pop ebp ; pop edi ; pop esi ; add esp, 0x28 ; ret
0x10004def lcall ptr [ebx + 0x5d] ; pop edi ; pop esi ; add esp, 0x28 ; ret
0x10004e39 ret
0x10004e36 or byte ptr [esi - 0x18], dl ; ret
0x10004e33 add byte ptr [ebx - 0x17a9f73c], al ; ret
0x10004e31 sub al, byte ptr [eax] ; add byte ptr [ebx - 0x17a9f73c], al ; ret
0x10004ec8 ret
0x10004ec7 pop esi ; ret
0x10004ec6 add al, 0x5e ; ret
0x10004ec5 les eax, ptr [esi + ebx*2] ; ret
0x10004ec4 add esp, 4 ; pop esi ; ret
0x10004ec3 add al, 0x83 ; les eax, ptr [esi + ebx*2] ; ret
0x10004ec2 push eax ; add al, 0x83 ; les eax, ptr [esi + ebx*2] ; ret
0x10004ec1 call dword ptr [eax + 4] ; add esp, 4 ; pop esi ; ret
0x10004ec0 push esi ; call dword ptr [eax + 4] ; add esp, 4 ; pop esi ; ret
0x10004ebf add al, 0x56 ; call dword ptr [eax + 4] ; add esp, 4 ; pop esi ; ret
0x10004ebe les eax, ptr [esi + edx*2] ; call dword ptr [eax + 4] ; add esp, 4 ; pop esi ; ret
0x10004f18 ret
0x10004f17 pop ebx ; ret
0x10004f16 pop ebp ; pop ebx ; ret
0x10004f15 pop esi ; pop ebp ; pop ebx ; ret
0x10004f14 pop edi ; pop esi ; pop ebp ; pop ebx ; ret
0x10004f13 add al, 0x5f ; pop esi ; pop ebp ; pop ebx ; ret
0x10004f12 les eax, ptr [edi + ebx*2] ; pop esi ; pop ebp ; pop ebx ; ret
0x10004f11 add esp, 4 ; pop edi ; pop esi ; pop ebp ; pop ebx ; ret
0x10004f10 adc al, byte ptr [ebx + 0x5e5f04c4] ; pop ebp ; pop ebx ; ret
0x10004f0f call dword ptr [edx] ; add esp, 4 ; pop edi ; pop esi ; pop ebp ; pop ebx ; ret
0x10004f0e push ss ; call dword ptr [edx] ; add esp, 4 ; pop edi ; pop esi ; pop ebp ; pop ebx ; ret
0x10004f4b ret
0x10004f45 add ecx, dword ptr [ebx - 0x7cbacbba] ; ret
0x10004f58 ret
0x10004f57 pop ebx ; ret
0x10004f56 pop ebp ; pop ebx ; ret
0x10004f55 pop esi ; pop ebp ; pop ebx ; ret
0x10004f54 pop edi ; pop esi ; pop ebp ; pop ebx ; ret
0x10004f53 xlatb ; pop edi ; pop esi ; pop ebp ; pop ebx ; ret
0x10004f52 jl 0xffffffd9 ; pop edi ; pop esi ; pop ebp ; pop ebx ; ret
0x10004f51 call 0x5e5fd781 ; pop ebp ; pop ebx ; ret
0x10004f50 cmp ebp, eax ; jl 0xffffffdb ; pop edi ; pop esi ; pop ebp ; pop ebx ; ret
0x10004f4f push esp ; cmp ebp, eax ; jl 0xffffffdc ; pop edi ; pop esi ; pop ebp ; pop ebx ; ret
0x10004fa5 ret
0x10004fa2 add esp, 4 ; ret
0x10004fa0 call dword ptr [edx] ; add esp, 4 ; ret
0x10004f9e mov edx, dword ptr [ecx] ; call dword ptr [edx] ; add esp, 4 ; ret
0x10004f9c add byte ptr [eax], al ; mov edx, dword ptr [ecx] ; call dword ptr [edx] ; add esp, 4 ; ret
0x10004fad ret
0x10004fab add byte ptr [eax], dl ; ret
0x10004faa dec edi ; add byte ptr [eax], dl ; ret
0x10004fa9 mov al, 0x4f ; add byte ptr [eax], dl ; ret
0x10004fa8 add al, 0xb0 ; dec edi ; add byte ptr [eax], dl ; ret
0x10004fa7 inc eax ; add al, 0xb0 ; dec edi ; add byte ptr [eax], dl ; ret
0x10004fa6 mov dword ptr [eax + 4], 0x10004fb0 ; ret
0x10004fa5 ret ; mov dword ptr [eax + 4], 0x10004fb0 ; ret
0x10004fa4 add al, 0xc3 ; mov dword ptr [eax + 4], 0x10004fb0 ; ret
0x10004fa3 les eax, ptr [ebx + eax*8] ; mov dword ptr [eax + 4], 0x10004fb0 ; ret
0x10005048 ret
0x10005047 pop ebx ; ret
0x10005046 pop ebp ; pop ebx ; ret
0x10005045 pop esi ; pop ebp ; pop ebx ; ret
0x10005044 pop edi ; pop esi ; pop ebp ; pop ebx ; ret
0x10005043 xchg eax, edx ; pop edi ; pop esi ; pop ebp ; pop ebx ; ret
0x10005042 jb 0xffffff94 ; pop edi ; pop esi ; pop ebp ; pop ebx ; ret
0x10005041 sal dword ptr [edx - 0x6e], 0x5f ; pop esi ; pop ebp ; pop ebx ; ret
0x10005040 cmp eax, ecx ; jb 0xffffff96 ; pop edi ; pop esi ; pop ebp ; pop ebx ; ret
0x1000503f ret 0xc13b ; jb 0xffffff97 ; pop edi ; pop esi ; pop ebp ; pop ebx ; ret
0x1000503e mov eax, edx ; cmp eax, ecx ; jb 0xffffff98 ; pop edi ; pop esi ; pop ebp ; pop ebx ; ret
0x1000505f ret
0x1000505e pop ebx ; ret
0x1000505d pop ebp ; pop ebx ; ret
0x1000505c pop esi ; pop ebp ; pop ebx ; ret
0x1000505b pop edi ; pop esi ; pop ebp ; pop ebx ; ret
0x1000505a add byte ptr [edi + 0x5e], bl ; pop ebp ; pop ebx ; ret
0x10005059 add byte ptr [eax], al ; pop edi ; pop esi ; pop ebp ; pop ebx ; ret
0x10005058 add byte ptr [eax], al ; add byte ptr [edi + 0x5e], bl ; pop ebp ; pop ebx ; ret
0x10005057 add dword ptr [eax], eax ; add byte ptr [eax], al ; pop edi ; pop esi ; pop ebp ; pop ebx ; ret
0x10005056 adc byte ptr [ecx], al ; add byte ptr [eax], al ; add byte ptr [edi + 0x5e], bl ; pop ebp ; pop ebx ; ret
0x10005055 inc esi ; adc byte ptr [ecx], al ; add byte ptr [eax], al ; add byte ptr [edi + 0x5e], bl ; pop ebp ; pop ebx ; ret
0x100050c0 ret
0x100050be add byte ptr [eax], dl ; ret
0x100050bd pop eax ; add byte ptr [eax], dl ; ret
0x100050bb adc al, 0xf0 ; pop eax ; add byte ptr [eax], dl ; ret
0x100050ba inc edx ; adc al, 0xf0 ; pop eax ; add byte ptr [eax], dl ; ret
0x100050b9 mov dword ptr [edx + 0x14], 0x100058f0 ; ret
0x100050b8 pop esi ; mov dword ptr [edx + 0x14], 0x100058f0 ; ret
0x100050b7 add byte ptr [esi - 0x39], bl ; inc edx ; adc al, 0xf0 ; pop eax ; add byte ptr [eax], dl ; ret
0x100050b6 add byte ptr [eax], al ; pop esi ; mov dword ptr [edx + 0x14], 0x100058f0 ; ret
0x10005121 ret
0x10005120 pop esi ; ret
0x1000511f pop edi ; pop esi ; ret
0x1000511e pop ebx ; pop edi ; pop esi ; ret
0x1000511d out dx, al ; pop ebx ; pop edi ; pop esi ; ret
0x1000511c jne 0xfffffff0 ; pop ebx ; pop edi ; pop esi ; ret
0x1000511b dec ebx ; jne 0xfffffff1 ; pop ebx ; pop edi ; pop esi ; ret
0x1000511a inc esi ; dec ebx ; jne 0xfffffff2 ; pop ebx ; pop edi ; pop esi ; ret
0x10005119 or byte ptr [esi + 0x4b], al ; jne 0xfffffff3 ; pop ebx ; pop edi ; pop esi ; ret
0x10005118 les ecx, ptr [eax] ; inc esi ; dec ebx ; jne 0xfffffff4 ; pop ebx ; pop edi ; pop esi ; ret
0x10005117 add esp, 8 ; inc esi ; dec ebx ; jne 0xfffffff5 ; pop ebx ; pop edi ; pop esi ; ret
0x1000516b ret
0x1000516a pop esi ; ret
0x10005169 add al, 0x5e ; ret
0x10005168 les eax, ptr [esi + ebx*2] ; ret
0x10005167 add esp, 4 ; pop esi ; ret
0x10005165 call dword ptr [ecx] ; add esp, 4 ; pop esi ; ret
0x10005164 push cs ; call dword ptr [ecx] ; add esp, 4 ; pop esi ; ret
0x10005163 mov ecx, dword ptr [esi] ; call dword ptr [ecx] ; add esp, 4 ; pop esi ; ret
0x10005162 add byte ptr [ebx - 0x7cee00f2], cl ; les eax, ptr [esi + ebx*2] ; ret
0x10005161 add byte ptr [eax], al ; mov ecx, dword ptr [esi] ; call dword ptr [ecx] ; add esp, 4 ; pop esi ; ret
0x10005192 ret
0x10005191 pop esi ; ret
0x1000518f les ecx, ptr [eax] ; pop esi ; ret
0x1000518e add esp, 8 ; pop esi ; ret
0x1000518a mov byte ptr [0x83ffffff], al ; les ecx, ptr [eax] ; pop esi ; ret
0x10005189 call 0xffffffa7 ; add esp, 8 ; pop esi ; ret
0x10005188 push esi ; call 0xffffffa8 ; add esp, 8 ; pop esi ; ret
0x100051ca ret
0x100051c9 pop ebx ; ret
0x100051c8 pop esi ; pop ebx ; ret
0x100051c7 or byte ptr [esi + 0x5b], bl ; ret
0x100051c6 les ecx, ptr [eax] ; pop esi ; pop ebx ; ret
0x100051c5 add esp, 8 ; pop esi ; pop ebx ; ret
0x100051c4 inc dword ptr [ebx + 0x5b5e08c4] ; ret
0x100051c1 imul edi, edi, -1 ; inc dword ptr [ebx + 0x5b5e08c4] ; ret
0x100051c0 call 0xffffff70 ; add esp, 8 ; pop esi ; pop ebx ; ret
0x10005209 pop esi ; ret
0x10005208 add al, 0x5e ; ret
0x10005207 les eax, ptr [esi + ebx*2] ; ret
0x10005206 add esp, 4 ; pop esi ; ret
0x10005204 add byte ptr [eax], al ; add esp, 4 ; pop esi ; ret
0x10005201 call 0xcf ; add esp, 4 ; pop esi ; ret
0x10005200 push esi ; call 0xd0 ; add esp, 4 ; pop esi ; ret
0x10005269 ret
0x10005266 add dword ptr [esi - 0x18], edx ; ret
0x100052ca ret
0x100052c9 pop esi ; ret
0x100052c7 les ecx, ptr [eax] ; pop esi ; ret
0x100052c6 add esp, 8 ; pop esi ; ret
0x100052c1 call 0xfffffe6f ; add esp, 8 ; pop esi ; ret
0x100052c0 push esi ; call 0xfffffe70 ; add esp, 8 ; pop esi ; ret
0x1000535f ret
0x1000535e pop esi ; ret
0x1000535c les ecx, ptr [eax] ; pop esi ; ret
0x1000535b add esp, 8 ; pop esi ; ret
0x10005356 call 0xfffffdda ; add esp, 8 ; pop esi ; ret
0x10005355 push esi ; call 0xfffffddb ; add esp, 8 ; pop esi ; ret
0x1000536c ret
0x1000536b pop esi ; ret
0x10005369 les ecx, ptr [eax] ; pop esi ; ret
0x10005368 add esp, 8 ; pop esi ; ret
0x10005364 enter -3, -1 ; add esp, 8 ; pop esi ; ret
0x10005363 call 0xfffffdcd ; add esp, 8 ; pop esi ; ret
0x10005362 push esi ; call 0xfffffdce ; add esp, 8 ; pop esi ; ret
0x10005379 ret
0x10005378 pop esi ; ret
0x10005376 les ecx, ptr [eax] ; pop esi ; ret
0x10005375 add esp, 8 ; pop esi ; ret
0x10005371 mov ebx, 0x83fffffd ; les ecx, ptr [eax] ; pop esi ; ret
0x10005370 call 0xfffffdc0 ; add esp, 8 ; pop esi ; ret
0x1000536f push esi ; call 0xfffffdc1 ; add esp, 8 ; pop esi ; ret
0x100053ac ret
0x1000542e ret
0x1000542d pop ebx ; ret
0x1000542c pop ebp ; pop ebx ; ret
0x1000542b pop esi ; pop ebp ; pop ebx ; ret
0x1000542a pop edi ; pop esi ; pop ebp ; pop ebx ; ret
0x10005429 or byte ptr [edi + 0x5e], bl ; pop ebp ; pop ebx ; ret
0x10005428 les ecx, ptr [eax] ; pop edi ; pop esi ; pop ebp ; pop ebx ; ret
0x10005427 add esp, 8 ; pop edi ; pop esi ; pop ebp ; pop ebx ; ret
0x10005426 add byte ptr [ebx + 0x5e5f08c4], al ; pop ebp ; pop ebx ; ret
0x10005425 add byte ptr [eax], al ; add esp, 8 ; pop edi ; pop esi ; pop ebp ; pop ebx ; ret
0x10005424 add dword ptr [eax], eax ; add byte ptr [ebx + 0x5e5f08c4], al ; pop ebp ; pop ebx ; ret
0x1000544b ret
0x1000544a pop ebx ; ret
0x10005449 pop ebp ; pop ebx ; ret
0x10005448 pop esi ; pop ebp ; pop ebx ; ret
0x10005447 pop edi ; pop esi ; pop ebp ; pop ebx ; ret
0x10005446 or byte ptr [edi + 0x5e], bl ; pop ebp ; pop ebx ; ret
0x10005445 les ecx, ptr [eax] ; pop edi ; pop esi ; pop ebp ; pop ebx ; ret
0x10005444 add esp, 8 ; pop edi ; pop esi ; pop ebp ; pop ebx ; ret
0x10005443 add byte ptr [ebx + 0x5e5f08c4], al ; pop ebp ; pop ebx ; ret
0x10005442 add byte ptr [eax], al ; add esp, 8 ; pop edi ; pop esi ; pop ebp ; pop ebx ; ret
0x10005441 add dword ptr [eax], eax ; add byte ptr [ebx + 0x5e5f08c4], al ; pop ebp ; pop ebx ; ret
0x10005462 ret
0x10005461 pop ebx ; ret
0x10005460 pop ebp ; pop ebx ; ret
0x1000545f pop esi ; pop ebp ; pop ebx ; ret
0x1000545e pop edi ; pop esi ; pop ebp ; pop ebx ; ret
0x1000545d or byte ptr [edi + 0x5e], bl ; pop ebp ; pop ebx ; ret
0x1000545c les ecx, ptr [eax] ; pop edi ; pop esi ; pop ebp ; pop ebx ; ret
0x1000545b add esp, 8 ; pop edi ; pop esi ; pop ebp ; pop ebx ; ret
0x1000545a add byte ptr [ebx + 0x5e5f08c4], al ; pop ebp ; pop ebx ; ret
0x10005459 add byte ptr [eax], al ; add esp, 8 ; pop edi ; pop esi ; pop ebp ; pop ebx ; ret
0x10005458 add byte ptr [eax], al ; add byte ptr [ebx + 0x5e5f08c4], al ; pop ebp ; pop ebx ; ret
0x10005475 ret
0x10005474 pop ebx ; ret
0x10005473 pop ebp ; pop ebx ; ret
0x10005472 pop esi ; pop ebp ; pop ebx ; ret
0x10005471 pop edi ; pop esi ; pop ebp ; pop ebx ; ret
0x10005470 or byte ptr [edi + 0x5e], bl ; pop ebp ; pop ebx ; ret
0x1000546f les ecx, ptr [eax] ; pop edi ; pop esi ; pop ebp ; pop ebx ; ret
0x1000546e add esp, 8 ; pop edi ; pop esi ; pop ebp ; pop ebx ; ret
0x1000546d add byte ptr [ebx + 0x5e5f08c4], al ; pop ebp ; pop ebx ; ret
0x1000546c add byte ptr [eax], al ; add esp, 8 ; pop edi ; pop esi ; pop ebp ; pop ebx ; ret
0x1000546b add byte ptr [eax], al ; add byte ptr [ebx + 0x5e5f08c4], al ; pop ebp ; pop ebx ; ret
0x1000554e ret
0x1000554d pop ebx ; ret
0x1000554c pop ebp ; pop ebx ; ret
0x1000554b pop esi ; pop ebp ; pop ebx ; ret
0x1000554a lds ebx, ptr [esi + 0x5d] ; pop ebx ; ret
0x10005549 mov eax, ebp ; pop esi ; pop ebp ; pop ebx ; ret
0x10005548 pop edi ; mov eax, ebp ; pop esi ; pop ebp ; pop ebx ; ret
0x10005547 add byte ptr [edi - 0x75], bl ; lds ebx, ptr [esi + 0x5d] ; pop ebx ; ret
0x10005546 add byte ptr [eax], al ; pop edi ; mov eax, ebp ; pop esi ; pop ebp ; pop ebx ; ret
0x10005545 add byte ptr [eax], al ; add byte ptr [edi - 0x75], bl ; lds ebx, ptr [esi + 0x5d] ; pop ebx ; ret
0x10005544 add dword ptr [eax], eax ; add byte ptr [eax], al ; pop edi ; mov eax, ebp ; pop esi ; pop ebp ; pop ebx ; ret
0x10005619 ret
0x10005618 pop ebx ; ret
0x10005617 pop esi ; pop ebx ; ret
0x10005616 pop edi ; pop esi ; pop ebx ; ret
0x10005614 jl 0xffffffc9 ; pop edi ; pop esi ; pop ebx ; ret
0x10005613 fdivr dword ptr [edi + eax*8 + 0x5f] ; pop esi ; pop ebx ; ret
0x10005612 cmp ebx, eax ; jl 0xffffffcb ; pop edi ; pop esi ; pop ebx ; ret
0x10005611 push esp ; cmp ebx, eax ; jl 0xffffffcc ; pop edi ; pop esi ; pop ebx ; ret
0x1000560f add edi, 0x54 ; cmp ebx, eax ; jl 0xffffffce ; pop edi ; pop esi ; pop ebx ; ret
0x100056a4 ret
0x100056a1 add byte ptr [ebp - 0x7d], al ; ret
0x1000569f add byte ptr [eax], al ; add byte ptr [ebp - 0x7d], al ; ret
0x1000569e in al, dx ; add byte ptr [eax], al ; add byte ptr [ebp - 0x7d], al ; ret
0x1000569d xchg ah, ch ; add byte ptr [eax], al ; add byte ptr [ebp - 0x7d], al ; ret
0x1000569b or al, 0x8b ; xchg ah, ch ; add byte ptr [eax], al ; add byte ptr [ebp - 0x7d], al ; ret
0x1000569a les ecx, ptr [ebx + ecx*4] ; xchg ah, ch ; add byte ptr [eax], al ; add byte ptr [ebp - 0x7d], al ; ret
0x100056ca ret
0x100056c9 pop ebx ; ret
0x100056c8 pop ebp ; pop ebx ; ret
0x100056c7 pop esi ; pop ebp ; pop ebx ; ret
0x100056c6 pop edi ; pop esi ; pop ebp ; pop ebx ; ret
0x100056c5 add al, 0x5f ; pop esi ; pop ebp ; pop ebx ; ret
0x100056c4 les eax, ptr [edi + ebx*2] ; pop esi ; pop ebp ; pop ebx ; ret
0x100056c3 add esp, 4 ; pop edi ; pop esi ; pop ebp ; pop ebx ; ret
0x100056c2 add byte ptr [ebx + 0x5e5f04c4], al ; pop ebp ; pop ebx ; ret
0x100056c1 add byte ptr [eax], al ; add esp, 4 ; pop edi ; pop esi ; pop ebp ; pop ebx ; ret
0x100056c0 add dword ptr [eax], eax ; add byte ptr [ebx + 0x5e5f04c4], al ; pop ebp ; pop ebx ; ret
0x10005791 ret
0x10005790 pop ebx ; ret
0x1000578f pop ebp ; pop ebx ; ret
0x1000578e pop esi ; pop ebp ; pop ebx ; ret
0x1000578d pop edi ; pop esi ; pop ebp ; pop ebx ; ret
0x1000578c add byte ptr [edi + 0x5e], bl ; pop ebp ; pop ebx ; ret
0x1000578b add byte ptr [eax], al ; pop edi ; pop esi ; pop ebp ; pop ebx ; ret
0x1000578a add byte ptr [eax], al ; add byte ptr [edi + 0x5e], bl ; pop ebp ; pop ebx ; ret
0x10005789 add dword ptr [eax], eax ; add byte ptr [eax], al ; pop edi ; pop esi ; pop ebp ; pop ebx ; ret
0x10005788 add byte ptr [ecx], al ; add byte ptr [eax], al ; add byte ptr [edi + 0x5e], bl ; pop ebp ; pop ebx ; ret
0x10005787 add byte ptr [eax], al ; add dword ptr [eax], eax ; add byte ptr [eax], al ; pop edi ; pop esi ; pop ebp ; pop ebx ; ret
0x100057a0 ret
0x1000579f nop ; ret
0x1000579e nop ; nop ; ret
0x1000579d nop ; nop ; nop ; ret
0x1000579c nop ; nop ; nop ; nop ; ret
0x1000579b nop ; nop ; nop ; nop ; nop ; ret
0x1000579a nop ; nop ; nop ; nop ; nop ; nop ; ret
0x10005799 nop ; nop ; nop ; nop ; nop ; nop ; nop ; ret
0x10005798 nop ; nop ; nop ; nop ; nop ; nop ; nop ; nop ; ret
0x10005797 nop ; nop ; nop ; nop ; nop ; nop ; nop ; nop ; nop ; ret
0x10005796 nop ; nop ; nop ; nop ; nop ; nop ; nop ; nop ; nop ; nop ; ret
0x100057df ret
0x100057de pop esi ; ret
0x100057dc les ecx, ptr [eax] ; pop esi ; ret
0x100057db add esp, 8 ; pop esi ; ret
0x100057d6 call 0xfffff9ca ; add esp, 8 ; pop esi ; ret
0x100057d5 push esi ; call 0xfffff9cb ; add esp, 8 ; pop esi ; ret
0x10005883 ret
0x10005880 or byte ptr [ebp - 0x7d], al ; ret
0x1000587d add byte ptr [ebx - 0x7cbaf73c], al ; ret
0x1000587b add byte ptr [eax], al ; add byte ptr [ebx - 0x7cbaf73c], al ; ret
0x1000587a in al, dx ; add byte ptr [eax], al ; add byte ptr [ebx - 0x7cbaf73c], al ; ret
0x10005879 xchg ah, ch ; add byte ptr [eax], al ; add byte ptr [ebx - 0x7cbaf73c], al ; ret
0x100058c8 ret
0x100058c7 pop ebp ; ret
0x100058c6 pop esi ; pop ebp ; ret
0x100058c5 pop edi ; pop esi ; pop ebp ; ret
0x100058c4 or byte ptr [edi + 0x5e], bl ; pop ebp ; ret
0x100058c3 les ecx, ptr [eax] ; pop edi ; pop esi ; pop ebp ; ret
0x100058c2 add esp, 8 ; pop edi ; pop esi ; pop ebp ; ret
0x100058c1 inc dword ptr [ebx + 0x5e5f08c4] ; pop ebp ; ret
0x100058e2 ret
0x100058e0 les ecx, ptr [eax] ; ret
0x100058df add esp, 8 ; ret
0x100058da call 0xfffff896 ; add esp, 8 ; ret
0x100058d9 push eax ; call 0xfffff897 ; add esp, 8 ; ret
0x1000591b ret
0x10005918 or byte ptr [esi - 0x7d], al ; ret
0x10005915 inc dword ptr [ebx - 0x7cb9f73c] ; ret
0x10005957 ret
0x10005951 inc dword ptr [ebx - 0x7cb9f33c] ; ret
0x1000596f ret
0x1000596e pop ebx ; ret
0x1000596d pop esi ; pop ebx ; ret
0x1000596c pop edi ; pop esi ; pop ebx ; ret
0x1000596b or byte ptr [edi + 0x5e], bl ; pop ebx ; ret
0x1000596a les ecx, ptr [eax] ; pop edi ; pop esi ; pop ebx ; ret
0x10005969 add esp, 8 ; pop edi ; pop esi ; pop ebx ; ret
0x10005968 inc dword ptr [ebx + 0x5e5f08c4] ; pop ebx ; ret
0x100059b5 ret
0x100059b3 add al, 0x3b ; ret
0x100059b2 les eax, ptr [ebx + edi] ; ret
0x100059ac xchg byte ptr [eax + eax - 0x3b7d0000], ah ; add al, 0x3b ; ret
0x10005a24 ret
0x10005a23 pop ebx ; ret
0x10005a22 pop esi ; pop ebx ; ret
0x10005a21 pop edi ; pop esi ; pop ebx ; ret
0x10005a20 sbb al, 0x5f ; pop esi ; pop ebx ; ret
0x10005a1f dec edi ; sbb al, 0x5f ; pop esi ; pop ebx ; ret
0x10005a1e mov dword ptr [edi + 0x1c], ecx ; pop edi ; pop esi ; pop ebx ; ret
0x10005a1d loope 0xffffff8b ; dec edi ; sbb al, 0x5f ; pop esi ; pop ebx ; ret
0x10005a1c shl ecx, 1 ; mov dword ptr [edi + 0x1c], ecx ; pop edi ; pop esi ; pop ebx ; ret
0x10005a1b add cl, dl ; loope 0xffffff8d ; dec edi ; sbb al, 0x5f ; pop esi ; pop ebx ; ret
0x10005a1a add byte ptr [eax], al ; shl ecx, 1 ; mov dword ptr [edi + 0x1c], ecx ; pop edi ; pop esi ; pop ebx ; ret
0x10005a31 ret
0x10005a30 pop ebx ; ret
0x10005a2f pop esi ; pop ebx ; ret
0x10005a2e pop edi ; pop esi ; pop ebx ; ret
0x10005a2d sbb al, 0x5f ; pop esi ; pop ebx ; ret
0x10005a2c push edi ; sbb al, 0x5f ; pop esi ; pop ebx ; ret
0x10005a2b mov dword ptr [edi + 0x1c], edx ; pop edi ; pop esi ; pop ebx ; ret
0x10005a2a add byte ptr [ecx + 0x5e5f1c57], cl ; pop ebx ; ret
0x10005a29 add byte ptr [eax], al ; mov dword ptr [edi + 0x1c], edx ; pop edi ; pop esi ; pop ebx ; ret
0x10005a28 add byte ptr [eax], al ; add byte ptr [ecx + 0x5e5f1c57], cl ; pop ebx ; ret
0x10005a27 mov al, byte ptr [0x89000000] ; push edi ; sbb al, 0x5f ; pop esi ; pop ebx ; ret
0x10005c1d ret
0x10005c1c pop ebx ; ret
0x10005c1b pop ebp ; pop ebx ; ret
0x10005c1a pop esi ; pop ebp ; pop ebx ; ret
0x10005c19 pop edi ; pop esi ; pop ebp ; pop ebx ; ret
0x10005c18 add byte ptr [edi + 0x5e], bl ; pop ebp ; pop ebx ; ret
0x10005c17 add byte ptr [eax], al ; pop edi ; pop esi ; pop ebp ; pop ebx ; ret
0x10005c16 add byte ptr [eax], al ; add byte ptr [edi + 0x5e], bl ; pop ebp ; pop ebx ; ret
0x10005c15 call 0x5f000005 ; pop esi ; pop ebp ; pop ebx ; ret
0x10005c14 xchg al, ch ; add byte ptr [eax], al ; add byte ptr [edi + 0x5e], bl ; pop ebp ; pop ebx ; ret
0x10005c13 mov dword ptr [esi + 0xe8], eax ; pop edi ; pop esi ; pop ebp ; pop ebx ; ret
0x10005d37 ret
0x10005ee4 ret
0x10005edd les eax, ptr [eax*4 - 0x7cc28101] ; ret
0x10005f11 ret
0x10005f0f add al, 0x83 ; ret
0x10005f0e les eax, ptr [ebx + eax*4] ; ret
0x10005f08 sbb byte ptr [ebx - 0x7ced00ea], cl ; les eax, ptr [ebx + eax*4] ; ret
0x10005f07 dec eax ; sbb byte ptr [ebx - 0x7ced00ea], cl ; les eax, ptr [ebx + eax*4] ; ret
0x10005f2b ret
0x10005f26 mov al, byte ptr [0x83000000] ; ret
0x10005f25 mov fs, word ptr [eax - 0x7d000000] ; ret
0x10005f71 ret
0x10005f84 ret
0x10005f82 add byte ptr [eax], al ; ret
0x10005f7f les ecx, ptr [eax + 0xa] ; add byte ptr [eax], al ; ret
0x10005f7e add esp, 0xa48 ; ret
0x10005f7d pop ebx ; add esp, 0xa48 ; ret
0x10005f7c pop ebp ; pop ebx ; add esp, 0xa48 ; ret
0x10005f7b pop esi ; pop ebp ; pop ebx ; add esp, 0xa48 ; ret
0x10005f7a pop edi ; pop esi ; pop ebp ; pop ebx ; add esp, 0xa48 ; ret
0x10005fae ret
0x10005fbe ret
0x10005fbc add byte ptr [eax], al ; ret
0x10005fb9 les ecx, ptr [eax + 0xa] ; add byte ptr [eax], al ; ret
0x10005fb8 add esp, 0xa48 ; ret
0x10005fb7 pop ebx ; add esp, 0xa48 ; ret
0x10005fb6 pop ebp ; pop ebx ; add esp, 0xa48 ; ret
0x10005fb5 pop esi ; pop ebp ; pop ebx ; add esp, 0xa48 ; ret
0x10005fb4 pop edi ; pop esi ; pop ebp ; pop ebx ; add esp, 0xa48 ; ret
0x1000618e ret
0x1000618d pop esi ; ret
0x1000618c pop edi ; pop esi ; ret
0x1000618b adc byte ptr [edi + 0x5e], bl ; ret
0x1000618a inc edx ; adc byte ptr [edi + 0x5e], bl ; ret
0x10006189 mov dword ptr [edx + 0x10], eax ; pop edi ; pop esi ; ret
0x10006188 sbb al, 0x89 ; inc edx ; adc byte ptr [edi + 0x5e], bl ; ret
0x10006187 inc edi ; sbb al, 0x89 ; inc edx ; adc byte ptr [edi + 0x5e], bl ; ret
0x10006186 mov eax, dword ptr [edi + 0x1c] ; mov dword ptr [edx + 0x10], eax ; pop edi ; pop esi ; ret
0x10006185 or byte ptr [ebx + 0x42891c47], cl ; adc byte ptr [edi + 0x5e], bl ; ret
0x10006184 push esi ; or byte ptr [ebx + 0x42891c47], cl ; adc byte ptr [edi + 0x5e], bl ; ret
0x100061c2 ret
0x100061c0 sar byte ptr [ebx], cl ; ret
0x100061d6 ret
0x10006219 ret
0x10006218 pop ebx ; ret
0x10006217 pop ebp ; pop ebx ; ret
0x10006216 pop esi ; pop ebp ; pop ebx ; ret
0x10006215 pop edi ; pop esi ; pop ebp ; pop ebx ; ret
0x10006214 add byte ptr [edi + 0x5e], bl ; pop ebp ; pop ebx ; ret
0x10006213 add byte ptr [eax], al ; pop edi ; pop esi ; pop ebp ; pop ebx ; ret
0x10006212 add dword ptr [eax], eax ; add byte ptr [edi + 0x5e], bl ; pop ebp ; pop ebx ; ret
0x10006211 inc eax ; add dword ptr [eax], eax ; add byte ptr [edi + 0x5e], bl ; pop ebp ; pop ebx ; ret
0x10006210 xchg eax, esi ; inc eax ; add dword ptr [eax], eax ; add byte ptr [edi + 0x5e], bl ; pop ebp ; pop ebx ; ret
0x1000620f mov dword ptr [esi + 0x140], edx ; pop edi ; pop esi ; pop ebp ; pop ebx ; ret
0x1000624a ret
0x10006248 sar byte ptr [ebx], cl ; ret
0x10006246 xor al, 0x33 ; sar byte ptr [ebx], cl ; ret
0x10006245 inc esi ; xor al, 0x33 ; sar byte ptr [ebx], cl ; ret
0x10006243 add al, 0x8b ; inc esi ; xor al, 0x33 ; sar byte ptr [ebx], cl ; ret
0x10006242 les eax, ptr [ebx + ecx*4] ; inc esi ; xor al, 0x33 ; sar byte ptr [ebx], cl ; ret
0x10006240 adc dword ptr [ebx + 0x468b04c4], eax ; xor al, 0x33 ; sar byte ptr [ebx], cl ; ret
0x1000628f ret
0x1000628e pop ebx ; ret
0x1000628d pop ebp ; pop ebx ; ret
0x1000628c pop esi ; pop ebp ; pop ebx ; ret
0x1000628b pop edi ; pop esi ; pop ebp ; pop ebx ; ret
0x1000628a add byte ptr [edi + 0x5e], bl ; pop ebp ; pop ebx ; ret
0x10006289 add byte ptr [eax], al ; pop edi ; pop esi ; pop ebp ; pop ebx ; ret
0x10006288 add dword ptr [eax], eax ; add byte ptr [edi + 0x5e], bl ; pop ebp ; pop ebx ; ret
0x10006287 inc eax ; add dword ptr [eax], eax ; add byte ptr [edi + 0x5e], bl ; pop ebp ; pop ebx ; ret
0x10006286 sahf ; inc eax ; add dword ptr [eax], eax ; add byte ptr [edi + 0x5e], bl ; pop ebp ; pop ebx ; ret
0x10006285 mov dword ptr [esi + 0x140], ebx ; pop edi ; pop esi ; pop ebp ; pop ebx ; ret
0x100062a5 ret
0x100062a3 add byte ptr [ebx], bh ; ret
0x100062a1 add byte ptr [eax], al ; add byte ptr [ebx], bh ; ret
0x100062a0 in al, dx ; add byte ptr [eax], al ; add byte ptr [ebx], bh ; ret
0x1000629f xchg ah, ch ; add byte ptr [eax], al ; add byte ptr [ebx], bh ; ret
0x1000629c add byte ptr [edi - 0x75], dl ; xchg ah, ch ; add byte ptr [eax], al ; add byte ptr [ebx], bh ; ret
0x100063d0 ret
0x100063ea ret
0x100063e8 add al, 0x8b ; ret
0x100063e7 les eax, ptr [ebx + ecx*4] ; ret
0x100063e1 add byte ptr [ebx - 0x7ced00ea], cl ; les eax, ptr [ebx + ecx*4] ; ret
0x1000645e ret
0x1000645d pop ecx ; ret
0x1000645c pop ebx ; pop ecx ; ret
0x1000645b pop ebp ; pop ebx ; pop ecx ; ret
0x1000645a pop esi ; pop ebp ; pop ebx ; pop ecx ; ret
0x10006459 pop edi ; pop esi ; pop ebp ; pop ebx ; pop ecx ; ret
0x10006458 add byte ptr [edi + 0x5e], bl ; pop ebp ; pop ebx ; pop ecx ; ret
0x10006457 add byte ptr [eax], al ; pop edi ; pop esi ; pop ebp ; pop ebx ; pop ecx ; ret
0x10006456 add byte ptr [eax], al ; add byte ptr [edi + 0x5e], bl ; pop ebp ; pop ebx ; pop ecx ; ret
0x10006455 rol byte ptr [eax], 0 ; add byte ptr [edi + 0x5e], bl ; pop ebp ; pop ebx ; pop ecx ; ret
0x10006454 xchg al, al ; add byte ptr [eax], al ; add byte ptr [edi + 0x5e], bl ; pop ebp ; pop ebx ; pop ecx ; ret
0x1000648d ret
0x1000648c pop esi ; ret
0x1000648b add al, 0x5e ; ret
0x1000648a les eax, ptr [esi + ebx*2] ; ret
0x10006489 add esp, 4 ; pop esi ; ret
0x10006488 or al, 0x83 ; les eax, ptr [esi + ebx*2] ; ret
0x10006487 push edx ; or al, 0x83 ; les eax, ptr [esi + ebx*2] ; ret
0x10006486 call dword ptr [edx + 0xc] ; add esp, 4 ; pop esi ; ret
0x10006485 push esi ; call dword ptr [edx + 0xc] ; add esp, 4 ; pop esi ; ret
0x10006484 add al, 0x56 ; call dword ptr [edx + 0xc] ; add esp, 4 ; pop esi ; ret
0x10006483 les eax, ptr [esi + edx*2] ; call dword ptr [edx + 0xc] ; add esp, 4 ; pop esi ; ret
0x100064d8 ret
0x100064d7 pop esi ; ret
0x100064d6 pop edi ; pop esi ; ret
0x100064d5 sbb byte ptr [edi + 0x5e], bl ; ret
0x100064d4 inc esi ; sbb byte ptr [edi + 0x5e], bl ; ret
0x100064d3 mov dword ptr [esi + 0x18], eax ; pop edi ; pop esi ; ret
0x100064d2 inc eax ; mov dword ptr [esi + 0x18], eax ; pop edi ; pop esi ; ret
0x100064d1 sbb byte ptr [eax - 0x77], al ; inc esi ; sbb byte ptr [edi + 0x5e], bl ; ret
0x100064d0 inc esi ; sbb byte ptr [eax - 0x77], al ; inc esi ; sbb byte ptr [edi + 0x5e], bl ; ret
0x100064cf mov eax, dword ptr [esi + 0x18] ; inc eax ; mov dword ptr [esi + 0x18], eax ; pop edi ; pop esi ; ret
0x100064ce and byte ptr [ebx - 0x76bfe7ba], cl ; inc esi ; sbb byte ptr [edi + 0x5e], bl ; ret
0x100064e9 ret
0x100064e8 pop esi ; ret
0x100064e7 pop edi ; pop esi ; ret
0x100064e6 sbb byte ptr [edi + 0x5e], bl ; ret
0x100064e5 inc esi ; sbb byte ptr [edi + 0x5e], bl ; ret
0x100064e4 mov dword ptr [esi + 0x18], eax ; pop edi ; pop esi ; ret
0x100064e3 inc eax ; mov dword ptr [esi + 0x18], eax ; pop edi ; pop esi ; ret
0x100064e2 add byte ptr [eax - 0x77], al ; inc esi ; sbb byte ptr [edi + 0x5e], bl ; ret
0x100064e1 add byte ptr [eax], al ; inc eax ; mov dword ptr [esi + 0x18], eax ; pop edi ; pop esi ; ret
0x100064e0 add byte ptr [eax], al ; add byte ptr [eax - 0x77], al ; inc esi ; sbb byte ptr [edi + 0x5e], bl ; ret
0x100064df add al, byte ptr [eax] ; add byte ptr [eax], al ; inc eax ; mov dword ptr [esi + 0x18], eax ; pop edi ; pop esi ; ret
0x10006507 ret
0x10006506 pop esi ; ret
0x10006503 mov dword ptr [esi + 0x18], eax ; pop esi ; ret
0x10006502 inc eax ; mov dword ptr [esi + 0x18], eax ; pop esi ; ret
0x10006501 pop edi ; inc eax ; mov dword ptr [esi + 0x18], eax ; pop esi ; ret
0x10006500 sbb byte ptr [edi + 0x40], bl ; mov dword ptr [esi + 0x18], eax ; pop esi ; ret
0x100064ff inc esi ; sbb byte ptr [edi + 0x40], bl ; mov dword ptr [esi + 0x18], eax ; pop esi ; ret
0x100064fe mov eax, dword ptr [esi + 0x18] ; pop edi ; inc eax ; mov dword ptr [esi + 0x18], eax ; pop esi ; ret
0x100064fd and byte ptr [ebx + 0x405f1846], cl ; mov dword ptr [esi + 0x18], eax ; pop esi ; ret
0x1000653d ret
0x1000653c pop esi ; ret
0x1000653b pop edi ; pop esi ; ret
0x1000653a adc byte ptr [edi + 0x5e], bl ; ret
0x10006539 dec edi ; adc byte ptr [edi + 0x5e], bl ; ret
0x10006538 mov dword ptr [edi + 0x10], ecx ; pop edi ; pop esi ; ret
0x10006537 mov dword ptr fs:[edi + 0x10], ecx ; pop edi ; pop esi ; ret
0x10006536 shl dword ptr [ecx + ecx*4 + 0x4f], 0x10 ; pop edi ; pop esi ; ret
0x10006535 add ecx, 0x64 ; mov dword ptr [edi + 0x10], ecx ; pop edi ; pop esi ; ret
0x10006534 add ecx, 0x64 ; mov dword ptr [edi + 0x10], ecx ; pop edi ; pop esi ; ret
0x10006533 loope 0x66 ; add ecx, 0x64 ; mov dword ptr [edi + 0x10], ecx ; pop edi ; pop esi ; ret
0x10006562 ret
0x10006561 pop esi ; ret
0x1000655f add byte ptr [eax], al ; pop esi ; ret
0x1000655d add byte ptr [eax], al ; add byte ptr [eax], al ; pop esi ; ret
0x1000655a mov dword ptr [esi + 0x10], 0 ; pop esi ; ret
0x10006558 add byte ptr [eax], al ; mov dword ptr [esi + 0x10], 0 ; pop esi ; ret
0x1000658e ret
0x1000658c add byte ptr [eax], al ; ret
0x1000658a add byte ptr [eax], al ; add byte ptr [eax], al ; ret
0x10006588 add byte ptr [eax], al ; add byte ptr [eax], al ; add byte ptr [eax], al ; ret
0x10006585 add byte ptr [eax], 0 ; add byte ptr [eax], al ; ret
0x10006584 mov dword ptr [eax + 0x80], 0 ; ret
0x100065ae ret
0x100065ac add byte ptr [eax], al ; ret
0x100065aa add byte ptr [eax], al ; add byte ptr [eax], al ; ret
0x100065a8 add byte ptr [eax], al ; add byte ptr [eax], al ; add byte ptr [eax], al ; ret
0x100065a6 adc al, 1 ; add byte ptr [eax], al ; add byte ptr [eax], al ; add byte ptr [eax], al ; ret
0x100065a4 mov dword ptr [eax + 0x114], 0 ; ret
0x10006667 ret
0x10006666 pop ebx ; ret
0x10006664 add byte ptr [eax], al ; pop ebx ; ret
0x10006662 add byte ptr [eax], al ; add byte ptr [eax], al ; pop ebx ; ret
0x10006660 add byte ptr [eax], al ; add byte ptr [eax], al ; add byte ptr [eax], al ; pop ebx ; ret
0x1000665d add dword ptr [eax], 0x5b000000 ; ret
0x100066a6 ret
0x100066a5 pop ebx ; ret
0x100066a4 pop esi ; pop ebx ; ret
0x100066a3 pop edi ; pop esi ; pop ebx ; ret
0x100066a2 adc al, 0x5f ; pop esi ; pop ebx ; ret
0x100066a1 les edx, ptr [edi + ebx*2] ; pop esi ; pop ebx ; ret
0x100066a0 add esp, 0x14 ; pop edi ; pop esi ; pop ebx ; ret
0x1000669f inc dword ptr [ebx + 0x5e5f14c4] ; pop ebx ; ret
0x100066d4 ret
0x100066d3 stc ; ret
0x100066d2 idiv ecx ; ret
0x100066d1 cdq ; idiv ecx ; ret
0x100066cf add byte ptr [eax], al ; cdq ; idiv ecx ; ret
0x100066cd mov byte ptr [ebx], dl ; add byte ptr [eax], al ; cdq ; idiv ecx ; ret
0x100066cc mov eax, 0x1388 ; cdq ; idiv ecx ; ret
0x100066cb or dword ptr [eax + 0x1388], edi ; cdq ; idiv ecx ; ret
0x100066ca jge 0xb ; mov eax, 0x1388 ; cdq ; idiv ecx ; ret
0x100066de ret
0x100066dc shl eax, 1 ; ret
0x100066db rcl ecx, -0x20 ; ret
0x100066da sub eax, ecx ; shl eax, 1 ; ret
0x100066d9 add byte ptr [ebx], ch ; rcl ecx, -0x20 ; ret
0x100066d8 add byte ptr [eax], al ; sub eax, ecx ; shl eax, 1 ; ret
0x100066d7 add byte ptr [eax], al ; add byte ptr [ebx], ch ; rcl ecx, -0x20 ; ret
0x100066d6 add byte ptr fs:[eax], al ; add byte ptr [ebx], ch ; rcl ecx, -0x20 ; ret
0x100066d5 mov eax, 0x64 ; sub eax, ecx ; shl eax, 1 ; ret
0x100066d4 ret ; mov eax, 0x64 ; sub eax, ecx ; shl eax, 1 ; ret
0x10006700 ret
0x100066fd add esp, 0xc ; ret
0x100066f8 call 0xffffff78 ; add esp, 0xc ; ret
0x100066f7 push edx ; call 0xffffff79 ; add esp, 0xc ; ret
0x100066f6 push eax ; push edx ; call 0xffffff7a ; add esp, 0xc ; ret
0x1000673c ret
0x1000673a fstp xword ptr [ebx] ; ret
0x10006738 cmp al, 0x33 ; fstp xword ptr [ebx] ; ret
0x10006737 inc esi ; cmp al, 0x33 ; fstp xword ptr [ebx] ; ret
0x10006735 add al, 0x8b ; inc esi ; cmp al, 0x33 ; fstp xword ptr [ebx] ; ret
0x10006734 les eax, ptr [ebx + ecx*4] ; inc esi ; cmp al, 0x33 ; fstp xword ptr [ebx] ; ret
0x10006732 adc byte ptr [ebx + 0x468b04c4], al ; cmp al, 0x33 ; fstp xword ptr [ebx] ; ret
0x10006801 ret
0x10006800 pop ebx ; ret
0x100067ff pop ebp ; pop ebx ; ret
0x100067fe pop esi ; pop ebp ; pop ebx ; ret
0x100067fd add al, 0x5e ; pop ebp ; pop ebx ; ret
0x100067fc les eax, ptr [esi + ebx*2] ; pop ebp ; pop ebx ; ret
0x100067fb add esp, 4 ; pop esi ; pop ebp ; pop ebx ; ret
0x100067fa add byte ptr [ebx + 0x5d5e04c4], al ; pop ebx ; ret
0x100067f9 add byte ptr [eax], al ; add esp, 4 ; pop esi ; pop ebp ; pop ebx ; ret
0x100067f8 add byte ptr [eax], al ; add byte ptr [ebx + 0x5d5e04c4], al ; pop ebx ; ret
0x100067f7 in eax, 0 ; add byte ptr [eax], al ; add esp, 4 ; pop esi ; pop ebp ; pop ebx ; ret
0x10006872 ret
0x10006871 pop esi ; ret
0x1000686f les edx, ptr [eax] ; pop esi ; ret
0x1000686e add esp, 0x10 ; pop esi ; ret
0x1000686c add byte ptr [eax], al ; add esp, 0x10 ; pop esi ; ret
0x1000686a adc al, byte ptr [eax] ; add byte ptr [eax], al ; add esp, 0x10 ; pop esi ; ret
0x10006869 call 0x17 ; add esp, 0x10 ; pop esi ; ret
0x10006868 push esi ; call 0x18 ; add esp, 0x10 ; pop esi ; ret
0x100068dc ret
0x100068da add byte ptr [eax], al ; ret
0x100068d8 add byte ptr [eax], al ; add byte ptr [eax], al ; ret
0x100068d6 add byte ptr [eax], al ; add byte ptr [eax], al ; add byte ptr [eax], al ; ret
0x100068d4 adc al, 1 ; add byte ptr [eax], al ; add byte ptr [eax], al ; add byte ptr [eax], al ; ret
0x100068d2 mov dword ptr [edx + 0x114], 0 ; ret
0x100068fe ret
0x100068fc les ecx, ptr [eax] ; ret
0x100068fb add esp, 8 ; ret
0x100068f9 add byte ptr [eax], al ; add esp, 8 ; ret
0x100068f6 call 0x6a ; add esp, 8 ; ret
0x100068f5 push eax ; call 0x6b ; add esp, 8 ; ret
0x10006908 les ecx, ptr [eax] ; ret
0x10006907 add esp, 8 ; ret
0x10006905 add byte ptr [eax], al ; add esp, 8 ; ret
0x10006902 call 0x5e ; add esp, 8 ; ret
0x10006901 push eax ; call 0x5f ; add esp, 8 ; ret
0x10006916 ret
0x10006914 les ecx, ptr [eax] ; ret
0x10006913 add esp, 8 ; ret
0x10006911 add byte ptr [eax], al ; add esp, 8 ; ret
0x1000690e call 0x52 ; add esp, 8 ; ret
0x1000690d push eax ; call 0x53 ; add esp, 8 ; ret
0x1000690c add al, 0x50 ; call 0x54 ; add esp, 8 ; ret
0x10006922 ret
0x10006920 les ecx, ptr [eax] ; ret
0x1000691f add esp, 8 ; ret
0x1000691d add byte ptr [eax], al ; add esp, 8 ; ret
0x1000691a call 0x46 ; add esp, 8 ; ret
0x10006919 push eax ; call 0x47 ; add esp, 8 ; ret
0x10006918 add eax, 0x41e850 ; add byte ptr [eax], al ; add esp, 8 ; ret
0x1000692e ret
0x1000692c les ecx, ptr [eax] ; ret
0x1000692b add esp, 8 ; ret
0x10006929 add byte ptr [eax], al ; add esp, 8 ; ret
0x10006927 xor eax, 0x83000000 ; les ecx, ptr [eax] ; ret
0x10006926 call 0x3a ; add esp, 8 ; ret
0x10006925 push eax ; call 0x3b ; add esp, 8 ; ret
0x10006924 add byte ptr [eax - 0x18], dl ; xor eax, 0x83000000 ; les ecx, ptr [eax] ; ret
0x10006940 ret
0x1000693d add esp, 4 ; ret
0x1000693b call dword ptr [edx] ; add esp, 4 ; ret
0x10006939 mov edx, dword ptr [eax] ; call dword ptr [edx] ; add esp, 4 ; ret
0x10006937 add byte ptr [eax], al ; mov edx, dword ptr [eax] ; call dword ptr [edx] ; add esp, 4 ; ret
0x100069d2 ret
0x100069d1 pop ebx ; ret
0x100069d0 pop ebp ; pop ebx ; ret
0x100069cf pop esi ; pop ebp ; pop ebx ; ret
0x100069ce pop edi ; pop esi ; pop ebp ; pop ebx ; ret
0x100069cd sbb byte ptr [edi + 0x5e], bl ; pop ebp ; pop ebx ; ret
0x100069cc pop esi ; sbb byte ptr [edi + 0x5e], bl ; pop ebp ; pop ebx ; ret
0x100069cb mov dword ptr [esi + 0x18], ebx ; pop edi ; pop esi ; pop ebp ; pop ebx ; ret
0x100069ca adc al, 0x89 ; pop esi ; sbb byte ptr [edi + 0x5e], bl ; pop ebp ; pop ebx ; ret
0x100069c9 pop esi ; adc al, 0x89 ; pop esi ; sbb byte ptr [edi + 0x5e], bl ; pop ebp ; pop ebx ; ret
0x100069c8 mov dword ptr [esi + 0x14], ebx ; mov dword ptr [esi + 0x18], ebx ; pop edi ; pop esi ; pop ebp ; pop ebx ; ret
0x10006a3b ret
0x10006a3a pop ebx ; ret
0x10006a39 pop ebp ; pop ebx ; ret
0x10006a38 pop esi ; pop ebp ; pop ebx ; ret
0x10006a37 pop edi ; pop esi ; pop ebp ; pop ebx ; ret
0x10006a36 sbb byte ptr [edi + 0x5e], bl ; pop ebp ; pop ebx ; ret
0x10006a35 pop esi ; sbb byte ptr [edi + 0x5e], bl ; pop ebp ; pop ebx ; ret
0x10006a34 mov dword ptr [esi + 0x18], ebx ; pop edi ; pop esi ; pop ebp ; pop ebx ; ret
0x10006a33 adc al, 0x89 ; pop esi ; sbb byte ptr [edi + 0x5e], bl ; pop ebp ; pop ebx ; ret
0x10006a32 pop esi ; adc al, 0x89 ; pop esi ; sbb byte ptr [edi + 0x5e], bl ; pop ebp ; pop ebx ; ret
0x10006a31 mov dword ptr [esi + 0x14], ebx ; mov dword ptr [esi + 0x18], ebx ; pop edi ; pop esi ; pop ebp ; pop ebx ; ret
0x10006aa4 ret
0x10006aa3 pop ebx ; ret
0x10006aa2 pop ebp ; pop ebx ; ret
0x10006aa1 pop esi ; pop ebp ; pop ebx ; ret
0x10006aa0 pop edi ; pop esi ; pop ebp ; pop ebx ; ret
0x10006a9f sbb byte ptr [edi + 0x5e], bl ; pop ebp ; pop ebx ; ret
0x10006a9e jle 0x1a ; pop edi ; pop esi ; pop ebp ; pop ebx ; ret
0x10006a9d mov dword ptr [esi + 0x18], edi ; pop edi ; pop esi ; pop ebp ; pop ebx ; ret
0x10006a9c adc al, 0x89 ; jle 0x1c ; pop edi ; pop esi ; pop ebp ; pop ebx ; ret
0x10006a9b jle 0x16 ; mov dword ptr [esi + 0x18], edi ; pop edi ; pop esi ; pop ebp ; pop ebx ; ret
0x10006a9a mov dword ptr [esi + 0x14], edi ; mov dword ptr [esi + 0x18], edi ; pop edi ; pop esi ; pop ebp ; pop ebx ; ret
0x10006b2e ret
0x10006b2d pop ebx ; ret
0x10006b2c pop ebp ; pop ebx ; ret
0x10006b2b pop esi ; pop ebp ; pop ebx ; ret
0x10006b2a pop edi ; pop esi ; pop ebp ; pop ebx ; ret
0x10006b29 sbb byte ptr [edi + 0x5e], bl ; pop ebp ; pop ebx ; ret
0x10006b28 pop esi ; sbb byte ptr [edi + 0x5e], bl ; pop ebp ; pop ebx ; ret
0x10006b27 mov dword ptr [esi + 0x18], ebx ; pop edi ; pop esi ; pop ebp ; pop ebx ; ret
0x10006b26 adc al, 0x89 ; pop esi ; sbb byte ptr [edi + 0x5e], bl ; pop ebp ; pop ebx ; ret
0x10006b25 pop esi ; adc al, 0x89 ; pop esi ; sbb byte ptr [edi + 0x5e], bl ; pop ebp ; pop ebx ; ret
0x10006b24 mov dword ptr [esi + 0x14], ebx ; mov dword ptr [esi + 0x18], ebx ; pop edi ; pop esi ; pop ebp ; pop ebx ; ret
0x10006bb4 ret
0x10006bb3 pop ebx ; ret
0x10006bb2 pop ebp ; pop ebx ; ret
0x10006bb1 pop esi ; pop ebp ; pop ebx ; ret
0x10006bb0 pop edi ; pop esi ; pop ebp ; pop ebx ; ret
0x10006baf sbb byte ptr [edi + 0x5e], bl ; pop ebp ; pop ebx ; ret
0x10006bae pop esi ; sbb byte ptr [edi + 0x5e], bl ; pop ebp ; pop ebx ; ret
0x10006bad mov dword ptr [esi + 0x18], ebx ; pop edi ; pop esi ; pop ebp ; pop ebx ; ret
0x10006bac adc al, 0x89 ; pop esi ; sbb byte ptr [edi + 0x5e], bl ; pop ebp ; pop ebx ; ret
0x10006bab pop esi ; adc al, 0x89 ; pop esi ; sbb byte ptr [edi + 0x5e], bl ; pop ebp ; pop ebx ; ret
0x10006baa mov dword ptr [esi + 0x14], ebx ; mov dword ptr [esi + 0x18], ebx ; pop edi ; pop esi ; pop ebp ; pop ebx ; ret
0x10006bf1 ret
0x10006c1d ret
0x10006c1c pop ebx ; ret
0x10006c1b pop ebp ; pop ebx ; ret
0x10006c1a pop esi ; pop ebp ; pop ebx ; ret
0x10006c19 pop edi ; pop esi ; pop ebp ; pop ebx ; ret
0x10006c18 fstp qword ptr [edi + 0x5e] ; pop ebp ; pop ebx ; ret
0x10006c17 jl 0xffffffdf ; pop edi ; pop esi ; pop ebp ; pop ebx ; ret
0x10006c16 enter -0x2284, 0x5f ; pop esi ; pop ebp ; pop ebx ; ret
0x10006c15 cmp ecx, eax ; jl 0xffffffe1 ; pop edi ; pop esi ; pop ebp ; pop ebx ; ret
0x10006c14 inc ecx ; cmp ecx, eax ; jl 0xffffffe2 ; pop edi ; pop esi ; pop ebp ; pop ebx ; ret
0x10006c13 xor al, 0x41 ; cmp ecx, eax ; jl 0xffffffe3 ; pop edi ; pop esi ; pop ebp ; pop ebx ; ret
0x10006c33 ret
0x10006c32 pop ebx ; ret
0x10006c31 pop ebp ; pop ebx ; ret
0x10006c30 pop esi ; pop ebp ; pop ebx ; ret
0x10006c2f pop edi ; pop esi ; pop ebp ; pop ebx ; ret
0x10006c2e add al, 0x5f ; pop esi ; pop ebp ; pop ebx ; ret
0x10006c2d les eax, ptr [edi + ebx*2] ; pop esi ; pop ebp ; pop ebx ; ret
0x10006c2c add esp, 4 ; pop edi ; pop esi ; pop ebp ; pop ebx ; ret
0x10006c2b adc dword ptr [ebx + 0x5e5f04c4], eax ; pop ebp ; pop ebx ; ret
0x10006c2a call dword ptr [ecx] ; add esp, 4 ; pop edi ; pop esi ; pop ebp ; pop ebx ; ret
0x10006c29 push cs ; call dword ptr [ecx] ; add esp, 4 ; pop edi ; pop esi ; pop ebp ; pop ebx ; ret
0x10006c87 ret
0x10006c86 pop esi ; ret
0x10006c85 inc eax ; pop esi ; ret
0x10006c84 jo 0x42 ; pop esi ; ret
0x10006c83 mov dword ptr [eax + 0x40], esi ; pop esi ; ret
0x10006c82 cmc ; mov dword ptr [eax + 0x40], esi ; pop esi ; ret
0x10006c81 jne 0xfffffff7 ; mov dword ptr [eax + 0x40], esi ; pop esi ; ret
0x10006c80 dec edx ; jne 0xfffffff8 ; mov dword ptr [eax + 0x40], esi ; pop esi ; ret
0x10006c7f add al, 0x4a ; jne 0xfffffff9 ; mov dword ptr [eax + 0x40], esi ; pop esi ; ret
0x10006c7e rol dword ptr [edx + ecx*2], 0x75 ; cmc ; mov dword ptr [eax + 0x40], esi ; pop esi ; ret
0x10006c7d add ecx, 4 ; dec edx ; jne 0xfffffffb ; mov dword ptr [eax + 0x40], esi ; pop esi ; ret
0x10006e67 ret
0x10006e64 add esp, 0xc ; ret
0x10006e63 pop ebx ; add esp, 0xc ; ret
0x10006e62 pop ebp ; pop ebx ; add esp, 0xc ; ret
0x10006e61 pop esi ; pop ebp ; pop ebx ; add esp, 0xc ; ret
0x10006e60 inc esp ; pop esi ; pop ebp ; pop ebx ; add esp, 0xc ; ret
0x10006e5f push ebp ; inc esp ; pop esi ; pop ebp ; pop ebx ; add esp, 0xc ; ret
0x10006e5e mov dword ptr [ebp + 0x44], edx ; pop esi ; pop ebp ; pop ebx ; add esp, 0xc ; ret
0x10006e5d dec eax ; mov dword ptr [ebp + 0x44], edx ; pop esi ; pop ebp ; pop ebx ; add esp, 0xc ; ret
0x10006fb2 ret
0x10006faf add esp, 0xc ; ret
0x10006fae pop ebx ; add esp, 0xc ; ret
0x10006fac add byte ptr [eax], al ; pop ebx ; add esp, 0xc ; ret
0x10006faa add dword ptr [eax], eax ; add byte ptr [eax], al ; pop ebx ; add esp, 0xc ; ret
0x10006fa9 mov eax, 1 ; pop ebx ; add esp, 0xc ; ret
0x10006fa8 pop ebp ; mov eax, 1 ; pop ebx ; add esp, 0xc ; ret
0x10007091 ret
0x10007090 pop ebx ; ret
0x1000708f pop ebp ; pop ebx ; ret
0x1000708e pop esi ; pop ebp ; pop ebx ; ret
0x1000708d pop edi ; pop esi ; pop ebp ; pop ebx ; ret
0x1000708c sbb al, 0x5f ; pop esi ; pop ebp ; pop ebx ; ret
0x1000708b outsb dx, byte ptr [esi] ; sbb al, 0x5f ; pop esi ; pop ebp ; pop ebx ; ret
0x1000708a mov dword ptr [esi + 0x1c], ebp ; pop edi ; pop esi ; pop ebp ; pop ebx ; ret
0x10007089 sbb byte ptr [ecx + 0x5e5f1c6e], cl ; pop ebp ; pop ebx ; ret
0x10007088 jle 0x1a ; mov dword ptr [esi + 0x1c], ebp ; pop edi ; pop esi ; pop ebp ; pop ebx ; ret
0x10007087 mov dword ptr [esi + 0x18], edi ; mov dword ptr [esi + 0x1c], ebp ; pop edi ; pop esi ; pop ebp ; pop ebx ; ret
0x100070db ret
0x100070da pop esi ; ret
0x100070d9 pop edi ; pop esi ; ret
0x100070d8 adc al, 0x5f ; pop esi ; ret
0x100070d7 dec esi ; adc al, 0x5f ; pop esi ; ret
0x100070d6 mov dword ptr [esi + 0x14], ecx ; pop edi ; pop esi ; ret
0x100070d5 add al, 0x89 ; dec esi ; adc al, 0x5f ; pop esi ; ret
0x100070d4 dec edi ; add al, 0x89 ; dec esi ; adc al, 0x5f ; pop esi ; ret
0x100070d3 mov ecx, dword ptr [edi + 4] ; mov dword ptr [esi + 0x14], ecx ; pop edi ; pop esi ; ret
0x100070d2 adc byte ptr [ebx + 0x4e89044f], cl ; adc al, 0x5f ; pop esi ; ret
0x100070d1 inc esi ; adc byte ptr [ebx + 0x4e89044f], cl ; adc al, 0x5f ; pop esi ; ret
0x10007100 ret
0x100070fe mov dword ptr [eax], ecx ; ret
0x100070fd inc ecx ; mov dword ptr [eax], ecx ; ret
0x100070fb add al, 0x82 ; inc ecx ; mov dword ptr [eax], ecx ; ret
0x100070fa lea eax, dword ptr [edx + eax*4] ; inc ecx ; mov dword ptr [eax], ecx ; ret
0x100070f8 or al, 0x82 ; lea eax, dword ptr [edx + eax*4] ; inc ecx ; mov dword ptr [eax], ecx ; ret
0x100070f7 mov ecx, dword ptr [edx + eax*4] ; lea eax, dword ptr [edx + eax*4] ; inc ecx ; mov dword ptr [eax], ecx ; ret
0x100070f6 or al, 0x8b ; or al, 0x82 ; lea eax, dword ptr [edx + eax*4] ; inc ecx ; mov dword ptr [eax], ecx ; ret
0x10007125 ret
0x10007124 pop esi ; ret
0x10007123 or al, 0x5e ; ret
0x10007122 les ecx, ptr [esi + ebx*2] ; ret
0x10007121 add esp, 0xc ; pop esi ; ret
0x1000711c call 0xfffffea4 ; add esp, 0xc ; pop esi ; ret
0x1000711b push eax ; call 0xfffffea5 ; add esp, 0xc ; pop esi ; ret
0x100071c4 ret
0x100071c3 pop esi ; ret
0x100071c2 jmp 0x60 ; ret
0x100071c1 jl 0xffffffed ; pop esi ; ret
0x100071c0 add byte ptr [ebx + ebp*8 + 0x5e], bh ; ret
0x100071bf add byte ptr [eax], al ; jl 0xffffffef ; pop esi ; ret
0x100071be add byte ptr [eax], al ; add byte ptr [ebx + ebp*8 + 0x5e], bh ; ret
0x100071bd in al, dx ; add byte ptr [eax], al ; add byte ptr [ebx + ebp*8 + 0x5e], bh ; ret
0x100071bc sub ah, 0 ; add byte ptr [eax], al ; jl 0xfffffff2 ; pop esi ; ret
0x100071bb cmp eax, dword ptr [edx + 0xec] ; jl 0xfffffff3 ; pop esi ; ret
0x100071ba add al, 0x3b ; sub ah, 0 ; add byte ptr [eax], al ; jl 0xfffffff4 ; pop esi ; ret
0x100071d4 ret
0x100071d3 pop esi ; ret
0x100071d1 add byte ptr [eax], al ; pop esi ; ret
0x100071cf add byte ptr [eax], al ; add byte ptr [eax], al ; pop esi ; ret
0x100071cc mov dword ptr [esi + 0x3c], 0 ; pop esi ; ret
0x100071ca add byte ptr [eax], al ; mov dword ptr [esi + 0x3c], 0 ; pop esi ; ret
0x100071fb ret
0x100071fa pop esi ; ret
0x100071f9 sbb al, 0x5e ; ret
0x100071f8 inc esi ; sbb al, 0x5e ; ret
0x100071f7 mov dword ptr [esi + 0x1c], eax ; pop esi ; ret
0x100071f4 mov dword ptr [esi + 0x18], eax ; mov dword ptr [esi + 0x1c], eax ; pop esi ; ret
0x100071f3 ror byte ptr [ecx + 0x46891846], 0x1c ; pop esi ; ret
0x100071f2 xor eax, eax ; mov dword ptr [esi + 0x18], eax ; mov dword ptr [esi + 0x1c], eax ; pop esi ; ret
0x100071f1 or al, 0x33 ; ror byte ptr [ecx + 0x46891846], 0x1c ; pop esi ; ret
0x1000725e ret
0x1000725d pop edi ; ret
0x1000725c pop esi ; pop edi ; ret
0x1000725b add byte ptr [esi + 0x5f], bl ; ret
0x1000725a add byte ptr [eax], al ; pop esi ; pop edi ; ret
0x10007259 add byte ptr [eax], al ; add byte ptr [esi + 0x5f], bl ; ret
0x10007258 add byte ptr [eax], al ; add byte ptr [eax], al ; pop esi ; pop edi ; ret
0x10007257 cmp al, 0 ; add byte ptr [eax], al ; add byte ptr [esi + 0x5f], bl ; ret
0x10007256 inc edi ; cmp al, 0 ; add byte ptr [eax], al ; add byte ptr [esi + 0x5f], bl ; ret
0x10007255 mov dword ptr [edi + 0x3c], 0 ; pop esi ; pop edi ; ret
0x10007254 or al, 0xc7 ; inc edi ; cmp al, 0 ; add byte ptr [eax], al ; add byte ptr [esi + 0x5f], bl ; ret
0x10007290 ret
0x1000728f pop ebx ; ret
0x1000728e pop edi ; pop ebx ; ret
0x1000728d pop esi ; pop edi ; pop ebx ; ret
0x1000728c in eax, dx ; pop esi ; pop edi ; pop ebx ; ret
0x1000728b jne 0xffffffef ; pop esi ; pop edi ; pop ebx ; ret
0x1000728a dec edi ; jne 0xfffffff0 ; pop esi ; pop edi ; pop ebx ; ret
0x10007289 inc esi ; dec edi ; jne 0xfffffff1 ; pop esi ; pop edi ; pop ebx ; ret
0x10007288 or al, 0x46 ; dec edi ; jne 0xfffffff2 ; pop esi ; pop edi ; pop ebx ; ret
0x10007287 les ecx, ptr [esi + eax*2] ; dec edi ; jne 0xfffffff3 ; pop esi ; pop edi ; pop ebx ; ret
0x10007286 add esp, 0xc ; inc esi ; dec edi ; jne 0xfffffff4 ; pop esi ; pop edi ; pop ebx ; ret
0x10007436 ret
0x10007434 les edx, ptr [eax] ; ret
0x10007433 add esp, 0x10 ; ret
0x10007432 pop ebx ; add esp, 0x10 ; ret
0x10007431 add byte ptr [ebx - 0x7d], bl ; les edx, ptr [eax] ; ret
0x10007430 add byte ptr [eax], al ; pop ebx ; add esp, 0x10 ; ret
0x1000742f add byte ptr [eax], al ; add byte ptr [ebx - 0x7d], bl ; les edx, ptr [eax] ; ret
0x1000742e add dword ptr [eax], eax ; add byte ptr [eax], al ; pop ebx ; add esp, 0x10 ; ret
0x1000742d mov eax, 1 ; pop ebx ; add esp, 0x10 ; ret
0x1000742c pop ebp ; mov eax, 1 ; pop ebx ; add esp, 0x10 ; ret
0x100074ba ret
0x100074b4 add byte ptr [ebx - 0x7cb8f33c], al ; ret
0x100074b2 add dword ptr [eax], eax ; add byte ptr [ebx - 0x7cb8f33c], al ; ret
0x100074b0 xchg byte ptr [eax], cl ; add dword ptr [eax], eax ; add byte ptr [ebx - 0x7cb8f33c], al ; ret
0x100074fb ret
0x100074fa pop ebx ; ret
0x100074f8 add byte ptr [eax], al ; pop ebx ; ret
0x100074f6 add dword ptr [eax], eax ; add byte ptr [eax], al ; pop ebx ; ret
0x100074f5 mov eax, 1 ; pop ebx ; ret
0x100074f4 pop ebp ; mov eax, 1 ; pop ebx ; ret
0x100074f3 pop esi ; pop ebp ; mov eax, 1 ; pop ebx ; ret
0x100074f2 pop edi ; pop esi ; pop ebp ; mov eax, 1 ; pop ebx ; ret
0x100074f1 inc esp ; pop edi ; pop esi ; pop ebp ; mov eax, 1 ; pop ebx ; ret
0x10007639 ret
0x1000771f ret
0x1000771d add byte ptr [eax], al ; ret
0x1000771b adc al, 1 ; add byte ptr [eax], al ; ret
0x1000771a les edx, ptr [ecx + eax] ; add byte ptr [eax], al ; ret
0x10007719 add esp, 0x114 ; ret
0x10007718 pop ebx ; add esp, 0x114 ; ret
0x10007717 add byte ptr [ebx - 0x7f], bl ; les edx, ptr [ecx + eax] ; add byte ptr [eax], al ; ret
0x10007716 add byte ptr [eax], al ; pop ebx ; add esp, 0x114 ; ret
0x10007715 add byte ptr [eax], al ; add byte ptr [ebx - 0x7f], bl ; les edx, ptr [ecx + eax] ; add byte ptr [eax], al ; ret
0x10007762 ret
0x10007761 pop esi ; ret
0x10007760 add al, 0x5e ; ret
0x1000775f dec eax ; add al, 0x5e ; ret
0x1000775e mov dword ptr [eax + 4], ecx ; pop esi ; ret
0x1000775d pop edi ; mov dword ptr [eax + 4], ecx ; pop esi ; ret
0x1000775c adc al, 0x5f ; mov dword ptr [eax + 4], ecx ; pop esi ; ret
0x1000775b dec esi ; adc al, 0x5f ; mov dword ptr [eax + 4], ecx ; pop esi ; ret
0x1000775a mov ecx, dword ptr [esi + 0x14] ; pop edi ; mov dword ptr [eax + 4], ecx ; pop esi ; ret
0x10007759 adc al, 0x8b ; dec esi ; adc al, 0x5f ; mov dword ptr [eax + 4], ecx ; pop esi ; ret
0x10007758 inc edi ; adc al, 0x8b ; dec esi ; adc al, 0x5f ; mov dword ptr [eax + 4], ecx ; pop esi ; ret
0x1000785a ret
0x10007857 add esp, 0x1c ; ret
0x10007856 pop esi ; add esp, 0x1c ; ret
0x10007855 pop edi ; pop esi ; add esp, 0x1c ; ret
0x10007854 pop ebp ; pop edi ; pop esi ; add esp, 0x1c ; ret
0x10007853 pop ebx ; pop ebp ; pop edi ; pop esi ; add esp, 0x1c ; ret
0x10007852 lcall ptr [ebx + 0x5d] ; pop edi ; pop esi ; add esp, 0x1c ; ret
0x100078bb ret
0x100078ba pop ebx ; ret
0x100078b9 pop ebp ; pop ebx ; ret
0x100078b8 pop esi ; pop ebp ; pop ebx ; ret
0x100078b7 pop edi ; pop esi ; pop ebp ; pop ebx ; ret
0x100078b6 add al, 0x5f ; pop esi ; pop ebp ; pop ebx ; ret
0x100078b5 les eax, ptr [edi + ebx*2] ; pop esi ; pop ebp ; pop ebx ; ret
0x100078b4 add esp, 4 ; pop edi ; pop esi ; pop ebp ; pop ebx ; ret
0x100078b3 add byte ptr [ebx + 0x5e5f04c4], al ; pop ebp ; pop ebx ; ret
0x100078b2 add byte ptr [eax], al ; add esp, 4 ; pop edi ; pop esi ; pop ebp ; pop ebx ; ret
0x100078b1 add al, 0 ; add byte ptr [ebx + 0x5e5f04c4], al ; pop ebp ; pop ebx ; ret
0x10007900 ret
0x100078fa add ecx, dword ptr [ebx - 0x7cbacbba] ; ret
0x1000790d ret
0x1000790c pop ebx ; ret
0x1000790b pop ebp ; pop ebx ; ret
0x10007909 pop edi ; pop esi ; pop ebp ; pop ebx ; ret
0x10007908 int3 ; pop edi ; pop esi ; pop ebp ; pop ebx ; ret
0x10007907 jl 0xffffffce ; pop edi ; pop esi ; pop ebp ; pop ebx ; ret
0x10007906 call 0x5e5fcc81 ; pop ebp ; pop ebx ; ret
0x10007905 cmp ebp, eax ; jl 0xffffffd0 ; pop edi ; pop esi ; pop ebp ; pop ebx ; ret
0x10007904 push esp ; cmp ebp, eax ; jl 0xffffffd1 ; pop edi ; pop esi ; pop ebp ; pop ebx ; ret
0x10007956 ret
0x10007955 pop esi ; ret
0x10007954 cmp al, 0x5e ; ret
0x10007953 inc esi ; cmp al, 0x5e ; ret
0x10007952 mov dword ptr [esi + 0x3c], eax ; pop esi ; ret
0x10007951 loopne 0xffffff8b ; inc esi ; cmp al, 0x5e ; ret
0x10007950 shl eax, 1 ; mov dword ptr [esi + 0x3c], eax ; pop esi ; ret
0x1000794f pop edi ; shl eax, 1 ; mov dword ptr [esi + 0x3c], eax ; pop esi ; ret
0x1000794e add byte ptr [edi - 0x2f], bl ; loopne 0xffffff8e ; inc esi ; cmp al, 0x5e ; ret
0x1000794d add byte ptr [eax], al ; pop edi ; shl eax, 1 ; mov dword ptr [esi + 0x3c], eax ; pop esi ; ret
0x1000794c add byte ptr [eax], al ; add byte ptr [edi - 0x2f], bl ; loopne 0xffffff90 ; inc esi ; cmp al, 0x5e ; ret
0x10007a88 ret
0x10007a87 pop ebx ; ret
0x10007a86 pop ebp ; pop ebx ; ret
0x10007a85 pop esi ; pop ebp ; pop ebx ; ret
0x10007a84 pop edi ; pop esi ; pop ebp ; pop ebx ; ret
0x10007a83 lcall ptr [edi + 0x5e] ; pop ebp ; pop ebx ; ret
0x10007a7e jb 0xffffff02 ; pop edi ; pop esi ; pop ebp ; pop ebx ; ret
0x10007ac7 ret
0x10007ac4 adc byte ptr [ebp - 0x7d], al ; ret
0x10007abe add byte ptr [ebx - 0x3b7ccbba], cl ; adc byte ptr [ebp - 0x7d], al ; ret
0x10007ade ret
0x10007add pop ebx ; ret
0x10007adc pop ebp ; pop ebx ; ret
0x10007adb pop esi ; pop ebp ; pop ebx ; ret
0x10007ada pop edi ; pop esi ; pop ebp ; pop ebx ; ret
0x10007ad9 or bl, byte ptr [edi + 0x5e] ; pop ebp ; pop ebx ; ret
0x10007ad8 mov dword ptr [edx], ecx ; pop edi ; pop esi ; pop ebp ; pop ebx ; ret
0x10007ad7 sub al, 0x89 ; or bl, byte ptr [edi + 0x5e] ; pop ebp ; pop ebx ; ret
0x10007ad6 and al, 0x2c ; mov dword ptr [edx], ecx ; pop edi ; pop esi ; pop ebp ; pop ebx ; ret
0x10007ad5 dec esp ; and al, 0x2c ; mov dword ptr [edx], ecx ; pop edi ; pop esi ; pop ebp ; pop ebx ; ret
0x10007ad4 mov ecx, dword ptr [esp + 0x2c] ; mov dword ptr [edx], ecx ; pop edi ; pop esi ; pop ebp ; pop ebx ; ret
0x10007b13 ret
0x10007b12 pop ebp ; ret
0x10007b11 pop esi ; pop ebp ; ret
0x10007b10 pop edi ; pop esi ; pop ebp ; ret
0x10007b0f pop ebx ; pop edi ; pop esi ; pop ebp ; ret
0x10007b0e call 0x5d5e5f60 ; ret
0x10007b0d jl 0xffffffea ; pop ebx ; pop edi ; pop esi ; pop ebp ; ret
0x10007b0c cmc ; jl 0xffffffeb ; pop ebx ; pop edi ; pop esi ; pop ebp ; ret
0x10007b0b cmp esi, ebp ; jl 0xffffffec ; pop ebx ; pop edi ; pop esi ; pop ebp ; ret
0x10007b09 sbb byte ptr [esi + 0x3b], al ; cmc ; jl 0xffffffee ; pop ebx ; pop edi ; pop esi ; pop ebp ; ret
0x10007bbe ret
0x10007bbc add byte ptr [ebx], bh ; ret
0x10007bba add byte ptr [eax], al ; add byte ptr [ebx], bh ; ret
0x10007c6c ret
0x10007c69 adc byte ptr [ebp - 0x7d], al ; ret
0x10007c63 dec dword ptr [ebx - 0x3b7ccbba] ; adc byte ptr [ebp - 0x7d], al ; ret
0x10007d07 ret
0x10007d04 add esp, 0xc ; ret
0x10007d03 pop ebx ; add esp, 0xc ; ret
0x10007d02 pop ebp ; pop ebx ; add esp, 0xc ; ret
0x10007d01 pop esi ; pop ebp ; pop ebx ; add esp, 0xc ; ret
0x10007d00 pop edi ; pop esi ; pop ebp ; pop ebx ; add esp, 0xc ; ret
0x10007cff lcall ptr [edi + 0x5e] ; pop ebp ; pop ebx ; add esp, 0xc ; ret
0x10007d61 ret
0x10007d5e add esp, 0xc ; ret
0x10007d5d pop ebx ; add esp, 0xc ; ret
0x10007d5c pop ebp ; pop ebx ; add esp, 0xc ; ret
0x10007d5b pop esi ; pop ebp ; pop ebx ; add esp, 0xc ; ret
0x10007d5a pop edi ; pop esi ; pop ebp ; pop ebx ; add esp, 0xc ; ret
0x10007d59 adc byte ptr [edi + 0x5e], bl ; pop ebp ; pop ebx ; add esp, 0xc ; ret
0x10007d58 mov dword ptr [eax], edx ; pop edi ; pop esi ; pop ebp ; pop ebx ; add esp, 0xc ; ret
0x10007d57 cmp byte ptr [ecx + 0x5d5e5f10], cl ; pop ebx ; add esp, 0xc ; ret
0x10007d84 ret
0x10007d82 add al, 0x8b ; ret
0x10007d81 dec ebp ; add al, 0x8b ; ret
0x10007e93 ret
0x10007e91 les ebx, ptr [eax] ; ret
0x10007e90 add esp, 0x18 ; ret
0x10007e8f pop ebx ; add esp, 0x18 ; ret
0x10007e8e pop ebp ; pop ebx ; add esp, 0x18 ; ret
0x10007e8d pop edi ; pop ebp ; pop ebx ; add esp, 0x18 ; ret
0x10007e8c pop esi ; pop edi ; pop ebp ; pop ebx ; add esp, 0x18 ; ret
0x10007e8b lcall ptr [esi + 0x5f] ; pop ebp ; pop ebx ; add esp, 0x18 ; ret
0x10007fe7 ret
0x10007fe5 add al, 0x83 ; ret
0x10008022 ret
0x10008020 les ecx, ptr [eax] ; ret
0x1000801f add esp, 8 ; ret
0x1000801e pop ebx ; add esp, 8 ; ret
0x1000801d pop ebp ; pop ebx ; add esp, 8 ; ret
0x1000801c pop esi ; pop ebp ; pop ebx ; add esp, 8 ; ret
0x1000801b pop edi ; pop esi ; pop ebp ; pop ebx ; add esp, 8 ; ret
0x1000801a or byte ptr [edi + 0x5e], bl ; pop ebp ; pop ebx ; add esp, 8 ; ret
0x10008019 les ecx, ptr [eax] ; pop edi ; pop esi ; pop ebp ; pop ebx ; add esp, 8 ; ret
0x10008018 add esp, 8 ; pop edi ; pop esi ; pop ebp ; pop ebx ; add esp, 8 ; ret
0x100080af ret
0x100080b5 ret
0x100080b4 pop ecx ; ret
0x100080b3 pop ebx ; pop ecx ; ret
0x100080b2 pop ebp ; pop ebx ; pop ecx ; ret
0x100080b1 pop edi ; pop ebp ; pop ebx ; pop ecx ; ret
0x100080b0 pop esi ; pop edi ; pop ebp ; pop ebx ; pop ecx ; ret
0x100080af ret ; pop esi ; pop edi ; pop ebp ; pop ebx ; pop ecx ; ret
0x100080ae jl 0xffffffc5 ; pop esi ; pop edi ; pop ebp ; pop ebx ; pop ecx ; ret
0x100080ad sbb byte ptr [ebx + eax*8 + 0x5e], bh ; pop edi ; pop ebp ; pop ebx ; pop ecx ; ret
0x100080ac and al, 0x18 ; jl 0xffffffc7 ; pop esi ; pop edi ; pop ebp ; pop ebx ; pop ecx ; ret
0x100080ab inc esp ; and al, 0x18 ; jl 0xffffffc8 ; pop esi ; pop edi ; pop ebp ; pop ebx ; pop ecx ; ret
0x10008184 ret
0x10008207 ret
0x10008205 les esp, ptr [eax] ; ret
0x10008204 add esp, 0x20 ; ret
0x10008203 pop ebx ; add esp, 0x20 ; ret
0x10008202 pop ebp ; pop ebx ; add esp, 0x20 ; ret
0x10008201 pop esi ; pop ebp ; pop ebx ; add esp, 0x20 ; ret
0x10008200 pop edi ; pop esi ; pop ebp ; pop ebx ; add esp, 0x20 ; ret
0x100081ff lcall ptr [edi + 0x5e] ; pop ebp ; pop ebx ; add esp, 0x20 ; ret
0x10008249 ret
0x10008243 dec dword ptr [edx - 0x74047528] ; ret
0x10008242 inc edi ; dec dword ptr [edx - 0x74047528] ; ret
0x10008240 add al, 0x8a ; inc edi ; dec dword ptr [edx - 0x74047528] ; ret
0x1000823f mov byte ptr [edx + ecx*4], 0x47 ; dec dword ptr [edx - 0x74047528] ; ret
0x1000824f ret
0x1000824c adc byte ptr [esi - 0x75], ah ; ret
0x1000826b ret
0x1000826a pop ebp ; ret
0x10008269 pop edi ; pop ebp ; ret
0x10008268 pop esi ; pop edi ; pop ebp ; ret
0x10008267 pop ebx ; pop esi ; pop edi ; pop ebp ; ret
0x10008266 retf ; pop ebx ; pop esi ; pop edi ; pop ebp ; ret
0x10008265 jne 0xffffffcd ; pop ebx ; pop esi ; pop edi ; pop ebp ; ret
0x10008264 and byte ptr [ebp - 0x35], dh ; pop ebx ; pop esi ; pop edi ; pop ebp ; ret
0x10008263 and al, 0x20 ; jne 0xffffffcf ; pop ebx ; pop esi ; pop edi ; pop ebp ; ret
0x10008262 inc esp ; and al, 0x20 ; jne 0xffffffd0 ; pop ebx ; pop esi ; pop edi ; pop ebp ; ret
0x10008261 mov dword ptr [esp + 0x20], eax ; jne 0xffffffd1 ; pop ebx ; pop esi ; pop edi ; pop ebp ; ret
0x100082b8 ret
0x100082b7 pop esi ; ret
0x100082b6 pop edi ; pop esi ; ret
0x100082b5 adc byte ptr [edi + 0x5e], bl ; ret
0x100082b4 les edx, ptr [eax] ; pop edi ; pop esi ; ret
0x100082b3 add esp, 0x10 ; pop edi ; pop esi ; ret
0x100082b2 inc dword ptr [ebx + 0x5e5f10c4] ; ret
0x100082ae call 0xffffff62 ; add esp, 0x10 ; pop edi ; pop esi ; ret
0x10008366 ret
0x10008365 pop ecx ; ret
0x10008364 pop ebp ; pop ecx ; ret
0x10008363 pop esi ; pop ebp ; pop ecx ; ret
0x10008362 pop edi ; pop esi ; pop ebp ; pop ecx ; ret
0x10008361 pop ebx ; pop edi ; pop esi ; pop ebp ; pop ecx ; ret
0x10008360 mov cl, 0x5b ; pop edi ; pop esi ; pop ebp ; pop ecx ; ret
0x1000835f jl 0xffffffb3 ; pop ebx ; pop edi ; pop esi ; pop ebp ; pop ecx ; ret
0x1000835e and byte ptr [ecx + esi*4 + 0x5b], bh ; pop edi ; pop esi ; pop ebp ; pop ecx ; ret
0x1000835d and al, 0x20 ; jl 0xffffffb5 ; pop ebx ; pop edi ; pop esi ; pop ebp ; pop ecx ; ret
0x1000835c push esp ; and al, 0x20 ; jl 0xffffffb6 ; pop ebx ; pop edi ; pop esi ; pop ebp ; pop ecx ; ret
0x10008449 ret
0x10008446 add esp, 0xc ; ret
0x10008445 pop ebx ; add esp, 0xc ; ret
0x10008444 pop esi ; pop ebx ; add esp, 0xc ; ret
0x10008443 pop edi ; pop esi ; pop ebx ; add esp, 0xc ; ret
0x10008442 pop ebp ; pop edi ; pop esi ; pop ebx ; add esp, 0xc ; ret
0x10008441 test byte ptr [ebp + 0x5f], bl ; pop esi ; pop ebx ; add esp, 0xc ; ret
0x10008440 jl 0xffffff86 ; pop ebp ; pop edi ; pop esi ; pop ebx ; add esp, 0xc ; ret
0x1000843f and byte ptr [esp + eax*4 + 0x5d], bh ; pop edi ; pop esi ; pop ebx ; add esp, 0xc ; ret
0x1000874b ret
0x10008748 add esp, 0x2c ; ret
0x10008747 pop ebx ; add esp, 0x2c ; ret
0x10008746 pop ebp ; pop ebx ; add esp, 0x2c ; ret
0x10008745 pop esi ; pop ebp ; pop ebx ; add esp, 0x2c ; ret
0x10008744 pop edi ; pop esi ; pop ebp ; pop ebx ; add esp, 0x2c ; ret
0x10008743 lcall ptr [edi + 0x5e] ; pop ebp ; pop ebx ; add esp, 0x2c ; ret
0x100087ba ret
0x10008803 ret
0x10008801 sub al, 3 ; ret
0x100087fb fisttp dword ptr [edx + 0x2454891e] ; sub al, 3 ; ret
0x1000880b ret
0x10008809 rol byte ptr [ebx], cl ; ret
0x10008805 fisttp dword ptr [edx + 0x3d2031f] ; ret
0x10008859 ret
0x10008856 add dword ptr [edi + 3], eax ; ret
0x10008851 call 0x8ac0334b ; add dword ptr [edi + 3], eax ; ret
0x1000885f ret
0x100088f0 ret
0x100088ee les ebx, ptr [eax] ; ret
0x100088ed add esp, 0x18 ; ret
0x100088ec pop ebx ; add esp, 0x18 ; ret
0x100088eb pop ebp ; pop ebx ; add esp, 0x18 ; ret
0x100088ea pop esi ; pop ebp ; pop ebx ; add esp, 0x18 ; ret
0x100088e9 pop edi ; pop esi ; pop ebp ; pop ebx ; add esp, 0x18 ; ret
0x100088e8 lcall ptr [edi + 0x5e] ; pop ebp ; pop ebx ; add esp, 0x18 ; ret
0x10008978 ret
0x10008977 pop esi ; ret
0x10008976 pop edi ; pop esi ; ret
0x10008975 add byte ptr [edi + 0x5e], bl ; ret
0x10008974 add byte ptr [eax], al ; pop edi ; pop esi ; ret
0x10008973 add byte ptr [eax], al ; add byte ptr [edi + 0x5e], bl ; ret
0x10008972 enter 0, 0 ; pop edi ; pop esi ; ret
0x10008971 adc al, cl ; add byte ptr [eax], al ; add byte ptr [edi + 0x5e], bl ; ret
0x10008970 inc esi ; adc al, cl ; add byte ptr [eax], al ; add byte ptr [edi + 0x5e], bl ; ret
0x1000896f mov dword ptr [esi + 0x10], 0xc8 ; pop edi ; pop esi ; ret
0x1000896e add al, 0xc7 ; inc esi ; adc al, cl ; add byte ptr [eax], al ; add byte ptr [edi + 0x5e], bl ; ret
0x100089ed ret
0x100089ec pop esi ; ret
0x100089ea add byte ptr [eax], al ; pop esi ; ret
0x100089e8 add al, byte ptr [eax] ; add byte ptr [eax], al ; pop esi ; ret
0x100089e7 mov eax, 2 ; pop esi ; ret
0x100089e6 add al, 0xb8 ; add al, byte ptr [eax] ; add byte ptr [eax], al ; pop esi ; ret
0x100089e5 les eax, ptr [eax + edi*4] ; add al, byte ptr [eax] ; add byte ptr [eax], al ; pop esi ; ret
0x100089e4 add esp, 4 ; mov eax, 2 ; pop esi ; ret
0x100089f4 ret
0x100089f3 pop esi ; ret
0x100089f1 add byte ptr [eax], al ; pop esi ; ret
0x100089ef add dword ptr [eax], eax ; add byte ptr [eax], al ; pop esi ; ret
0x100089ee mov eax, 1 ; pop esi ; ret
0x100089ed ret ; mov eax, 1 ; pop esi ; ret
0x100089ec pop esi ; ret ; mov eax, 1 ; pop esi ; ret
0x100089eb add byte ptr [esi - 0x3d], bl ; mov eax, 1 ; pop esi ; ret
0x100089ea add byte ptr [eax], al ; pop esi ; ret ; mov eax, 1 ; pop esi ; ret
0x10008a69 ret
0x10008a68 pop esi ; ret
0x10008a67 pop edi ; pop esi ; ret
0x10008a65 mov eax, edi ; pop edi ; pop esi ; ret
0x10008a63 add byte ptr [eax], al ; mov eax, edi ; pop edi ; pop esi ; ret
0x10008a73 ret
0x10008a72 pop esi ; ret
0x10008a71 pop edi ; pop esi ; ret
0x10008a6f mov eax, edi ; pop edi ; pop esi ; ret
0x10008a6d add byte ptr [eax], al ; mov eax, edi ; pop edi ; pop esi ; ret
0x10008a6b add dword ptr [eax], eax ; add byte ptr [eax], al ; mov eax, edi ; pop edi ; pop esi ; ret
0x10008a6a mov edi, 1 ; mov eax, edi ; pop edi ; pop esi ; ret
0x10008a69 ret ; mov edi, 1 ; mov eax, edi ; pop edi ; pop esi ; ret
0x10008a84 ret
0x10008a83 pop esi ; ret
0x10008a82 pop edi ; pop esi ; ret
0x10008a81 clc ; pop edi ; pop esi ; ret
0x10008a80 mov edi, eax ; pop edi ; pop esi ; ret
0x10008a7f add al, 0x8b ; clc ; pop edi ; pop esi ; ret
0x10008a7e les eax, ptr [ebx + ecx*4] ; clc ; pop edi ; pop esi ; ret
0x10008a7d add esp, 4 ; mov edi, eax ; pop edi ; pop esi ; ret
0x10008a7c adc al, byte ptr [ebx - 0x774fb3c] ; pop edi ; pop esi ; ret
0x10008a7b call dword ptr [edx] ; add esp, 4 ; mov edi, eax ; pop edi ; pop esi ; ret
0x10008a7a push esi ; call dword ptr [edx] ; add esp, 4 ; mov edi, eax ; pop edi ; pop esi ; ret
0x10008aa2 ret
0x10008aa1 pop esi ; ret
0x10008aa0 pop edi ; pop esi ; ret
0x10008a9e mov eax, edi ; pop edi ; pop esi ; ret
0x10008a9b add esp, 4 ; mov eax, edi ; pop edi ; pop esi ; ret
0x10008a9a adc byte ptr [ebx - 0x3874fb3c], al ; pop edi ; pop esi ; ret
0x10008a99 call dword ptr [eax] ; add esp, 4 ; mov eax, edi ; pop edi ; pop esi ; ret
0x10008a98 push es ; call dword ptr [eax] ; add esp, 4 ; mov eax, edi ; pop edi ; pop esi ; ret
0x10008b5f ret
0x10008b5d sub cl, ch ; ret
0x10008b57 add byte ptr [ecx + 0x7e89247e], cl ; sub cl, ch ; ret
0x10008b55 add byte ptr [eax], al ; add byte ptr [ecx + 0x7e89247e], cl ; sub cl, ch ; ret
0x10008c70 ret
0x10008c6f pop ebp ; ret
0x10008c6e pop esi ; pop ebp ; ret
0x10008c6d pop edi ; pop esi ; pop ebp ; ret
0x10008c6c insb byte ptr es:[edi], dx ; pop edi ; pop esi ; pop ebp ; ret
0x10008c6b outsb dx, byte ptr [esi] ; insb byte ptr es:[edi], dx ; pop edi ; pop esi ; pop ebp ; ret
0x10008c6a mov dword ptr [esi + 0x6c], ebp ; pop edi ; pop esi ; pop ebp ; ret
0x10008c69 push 0x5f6c6e89 ; pop esi ; pop ebp ; ret
0x10008c68 outsb dx, byte ptr [esi] ; push 0x5f6c6e89 ; pop esi ; pop ebp ; ret
0x10008c67 mov dword ptr [esi + 0x68], ebp ; mov dword ptr [esi + 0x6c], ebp ; pop edi ; pop esi ; pop ebp ; ret
0x10008c66 mov dword ptr fs:[esi + 0x68], ebp ; mov dword ptr [esi + 0x6c], ebp ; pop edi ; pop esi ; pop ebp ; ret
0x10008d3e ret
0x10008d3d pop esi ; ret
0x10008d3b add byte ptr [eax], al ; pop esi ; ret
0x10008d39 add dword ptr [eax], eax ; add byte ptr [eax], al ; pop esi ; ret
0x10008d38 mov eax, 1 ; pop esi ; ret
0x10008d37 add al, 0xb8 ; add dword ptr [eax], eax ; add byte ptr [eax], al ; pop esi ; ret
0x10008d36 les eax, ptr [eax + edi*4] ; add dword ptr [eax], eax ; add byte ptr [eax], al ; pop esi ; ret
0x10008d35 add esp, 4 ; mov eax, 1 ; pop esi ; ret
0x10008d42 ret
0x10008d41 pop esi ; ret
0x10008d3f xor eax, eax ; pop esi ; ret
0x10008d3e ret ; xor eax, eax ; pop esi ; ret
0x10008d3d pop esi ; ret ; xor eax, eax ; pop esi ; ret
0x10008d3c add byte ptr [esi - 0x3d], bl ; xor eax, eax ; pop esi ; ret
0x10008d3b add byte ptr [eax], al ; pop esi ; ret ; xor eax, eax ; pop esi ; ret
0x10008d3a add byte ptr [eax], al ; add byte ptr [esi - 0x3d], bl ; xor eax, eax ; pop esi ; ret
0x10008d39 add dword ptr [eax], eax ; add byte ptr [eax], al ; pop esi ; ret ; xor eax, eax ; pop esi ; ret
0x10008d38 mov eax, 1 ; pop esi ; ret ; xor eax, eax ; pop esi ; ret
0x10008d7b ret
0x10008d7a pop esi ; ret
0x10008d78 add byte ptr [eax], al ; pop esi ; ret
0x10008d76 add dword ptr [eax], eax ; add byte ptr [eax], al ; pop esi ; ret
0x10008d75 mov eax, 1 ; pop esi ; ret
0x10008d74 add byte ptr [eax + 1], bh ; pop esi ; ret
0x10008d73 add byte ptr [eax], al ; mov eax, 1 ; pop esi ; ret
0x10008d72 add byte ptr [eax], al ; add byte ptr [eax + 1], bh ; pop esi ; ret
0x10008d71 iretd ; add byte ptr [eax], al ; add byte ptr [eax + 1], bh ; pop esi ; ret
0x10008df1 ret
0x10008df0 pop esi ; ret
0x10008dee xor eax, eax ; pop esi ; ret
0x10008ded lodsb al, byte ptr [esi] ; xor eax, eax ; pop esi ; ret
0x10008dec jmp 0xffffffae ; xor eax, eax ; pop esi ; ret
0x10008deb or bl, ch ; lodsb al, byte ptr [esi] ; xor eax, eax ; pop esi ; ret
0x10008dea push eax ; or bl, ch ; lodsb al, byte ptr [esi] ; xor eax, eax ; pop esi ; ret
0x10008de9 mov dword ptr [eax + 8], edx ; jmp 0xffffffb1 ; xor eax, eax ; pop esi ; ret
0x10008de8 ror dword ptr [ecx - 0x5314f7b0], 1 ; xor eax, eax ; pop esi ; ret
0x10008de7 add edx, ecx ; mov dword ptr [eax + 8], edx ; jmp 0xffffffb3 ; xor eax, eax ; pop esi ; ret
0x10008e08 ret
0x10008e07 pop esi ; ret
0x10008e06 add al, 0x5e ; ret
0x10008e05 les eax, ptr [esi + ebx*2] ; ret
0x10008e04 add esp, 4 ; pop esi ; ret
0x10008e02 add byte ptr [eax], al ; add esp, 4 ; pop esi ; ret
0x10008e00 cmp al, 0 ; add byte ptr [eax], al ; add esp, 4 ; pop esi ; ret
0x10008dff call 0x41 ; add esp, 4 ; pop esi ; ret
0x10008dfe add al, ch ; cmp al, 0 ; add byte ptr [eax], al ; add esp, 4 ; pop esi ; ret
0x10008e33 ret
0x10008e32 pop esi ; ret
0x10008e31 add al, 0x5e ; ret
0x10008e30 les eax, ptr [esi + ebx*2] ; ret
0x10008e2f add esp, 4 ; pop esi ; ret
0x10008e2d add byte ptr [eax], al ; add esp, 4 ; pop esi ; ret
0x10008e2b adc dword ptr [eax], eax ; add byte ptr [eax], al ; add esp, 4 ; pop esi ; ret
0x10008e2a call 0x16 ; add esp, 4 ; pop esi ; ret
0x10008e29 push esi ; call 0x17 ; add esp, 4 ; pop esi ; ret
0x10008eb9 ret
0x10008eb7 adc byte ptr [ebx], bh ; ret
0x10008f07 ret
0x10008f06 pop ebx ; ret
0x10008f05 pop esi ; pop ebx ; ret
0x10008f04 pop edi ; pop esi ; pop ebx ; ret
0x10008f03 add byte ptr [edi + 0x5e], bl ; pop ebx ; ret
0x10008f02 add byte ptr [eax], al ; pop edi ; pop esi ; pop ebx ; ret
0x10008f01 add byte ptr [eax], al ; add byte ptr [edi + 0x5e], bl ; pop ebx ; ret
0x10008f00 add dword ptr [eax], eax ; add byte ptr [eax], al ; pop edi ; pop esi ; pop ebx ; ret
0x10008eff mov eax, 1 ; pop edi ; pop esi ; pop ebx ; ret
0x10008efe adc byte ptr [eax + 1], bh ; pop edi ; pop esi ; pop ebx ; ret
0x10008efd inc esi ; adc byte ptr [eax + 1], bh ; pop edi ; pop esi ; pop ebx ; ret
0x10008f0d ret
0x10008f0c pop ebx ; ret
0x10008f09 pop esi ; xor eax, eax ; pop ebx ; ret
0x10008f08 pop edi ; pop esi ; xor eax, eax ; pop ebx ; ret
0x10008f07 ret ; pop edi ; pop esi ; xor eax, eax ; pop ebx ; ret
0x10008f06 pop ebx ; ret ; pop edi ; pop esi ; xor eax, eax ; pop ebx ; ret
0x10008f05 pop esi ; pop ebx ; ret ; pop edi ; pop esi ; xor eax, eax ; pop ebx ; ret
0x10008f04 pop edi ; pop esi ; pop ebx ; ret ; pop edi ; pop esi ; xor eax, eax ; pop ebx ; ret
0x10008f03 add byte ptr [edi + 0x5e], bl ; pop ebx ; ret ; pop edi ; pop esi ; xor eax, eax ; pop ebx ; ret
0x10008f5b ret
0x10008f5a pop esi ; ret
0x10008f58 xor eax, eax ; pop esi ; ret
0x10008f56 les ecx, ptr [eax] ; xor eax, eax ; pop esi ; ret
0x10008f55 add esp, 8 ; xor eax, eax ; pop esi ; ret
0x10008f54 add al, 0x83 ; les ecx, ptr [eax] ; xor eax, eax ; pop esi ; ret
0x10008f53 push edx ; add al, 0x83 ; les ecx, ptr [eax] ; xor eax, eax ; pop esi ; ret
0x10008f52 call dword ptr [edx + 4] ; add esp, 8 ; xor eax, eax ; pop esi ; ret
0x10008f51 push ss ; call dword ptr [edx + 4] ; add esp, 8 ; xor eax, eax ; pop esi ; ret
0x10008faf ret
0x10008fae pop esi ; ret
0x10008fac add byte ptr [eax], al ; pop esi ; ret
0x10008faa mov word ptr [eax], es ; add byte ptr [eax], al ; pop esi ; ret
0x10008fa8 mov dword ptr [esi + 0x8c], ecx ; pop esi ; ret
0x10008fa6 add ecx, eax ; mov dword ptr [esi + 0x8c], ecx ; pop esi ; ret
0x10008fec ret
0x10008fe9 mov dword ptr [eax + 0x14], ecx ; ret
0x10008fe7 add byte ptr [eax], dl ; mov dword ptr [eax + 0x14], ecx ; ret
0x10008fe6 nop ; add byte ptr [eax], dl ; mov dword ptr [eax + 0x14], ecx ; ret
0x10008fe5 jo 0xffffff92 ; add byte ptr [eax], dl ; mov dword ptr [eax + 0x14], ecx ; ret
0x10008fe4 adc byte ptr [eax - 0x70], dh ; add byte ptr [eax], dl ; mov dword ptr [eax + 0x14], ecx ; ret
0x10008fe3 inc eax ; adc byte ptr [eax - 0x70], dh ; add byte ptr [eax], dl ; mov dword ptr [eax + 0x14], ecx ; ret
0x10008fe2 mov dword ptr [eax + 0x10], 0x10009070 ; mov dword ptr [eax + 0x14], ecx ; ret
0x10009015 ret
0x10009014 pop esi ; ret
0x10009012 add byte ptr [eax], al ; pop esi ; ret
0x10009010 add byte ptr [eax], dl ; add byte ptr [eax], al ; pop esi ; ret
0x1000900d mov dword ptr [esi + 4], 0x1000 ; pop esi ; ret
0x1000900c push es ; mov dword ptr [esi + 4], 0x1000 ; pop esi ; ret
0x1000900b mov dword ptr [esi], eax ; mov dword ptr [esi + 4], 0x1000 ; pop esi ; ret
0x1000906b ret
0x1000906a pop esi ; ret
0x10009068 add byte ptr [eax], al ; pop esi ; ret
0x10009066 add dword ptr [eax], eax ; add byte ptr [eax], al ; pop esi ; ret
0x10009065 mov eax, 1 ; pop esi ; ret
0x10009064 pop edi ; mov eax, 1 ; pop esi ; ret
0x10009063 push cs ; pop edi ; mov eax, 1 ; pop esi ; ret
0x10009062 mov dword ptr [esi], ecx ; pop edi ; mov eax, 1 ; pop esi ; ret
0x100090d5 ret
0x100090d4 pop ebx ; ret
0x100090d3 pop esi ; pop ebx ; ret
0x100090d2 pop edi ; pop esi ; pop ebx ; ret
0x100090d1 add al, 0x5f ; pop esi ; pop ebx ; ret
0x100090d0 les eax, ptr [edi + ebx*2] ; pop esi ; pop ebx ; ret
0x100090cf add esp, 4 ; pop edi ; pop esi ; pop ebx ; ret
0x100090ce adc dword ptr [ebx + 0x5e5f04c4], eax ; pop ebx ; ret
0x100090cd call dword ptr [ecx] ; add esp, 4 ; pop edi ; pop esi ; pop ebx ; ret
0x100090cb mov ecx, dword ptr [edi] ; call dword ptr [ecx] ; add esp, 4 ; pop edi ; pop esi ; pop ebx ; ret
0x1000914e ret
0x1000914c add byte ptr [eax], al ; ret
0x1000914a add byte ptr [eax], al ; add byte ptr [eax], al ; ret
0x10009148 mov dword ptr [eax], 0 ; ret
0x10009146 add byte ptr [eax], al ; mov dword ptr [eax], 0 ; ret
0x10009144 add byte ptr [eax], al ; add byte ptr [eax], al ; mov dword ptr [eax], 0 ; ret
0x1000915e ret
0x1000915c add byte ptr [eax], al ; ret
0x1000915a add dword ptr [eax], eax ; add byte ptr [eax], al ; ret
0x10009157 mov dword ptr [ecx + 0x24], 1 ; ret
0x10009154 mov ecx, dword ptr [eax + 0x14] ; mov dword ptr [ecx + 0x24], 1 ; ret
0x100091d8 ret
0x100091d7 pop esi ; ret
0x100091d5 add byte ptr [eax], al ; pop esi ; ret
0x100091d3 add dword ptr [eax], eax ; add byte ptr [eax], al ; pop esi ; ret
0x100091d2 mov eax, 1 ; pop esi ; ret
0x100091d1 pop edi ; mov eax, 1 ; pop esi ; ret
0x100091d0 add byte ptr [edi - 0x48], bl ; add dword ptr [eax], eax ; add byte ptr [eax], al ; pop esi ; ret
0x100091cf add byte ptr [eax], al ; pop edi ; mov eax, 1 ; pop esi ; ret
0x100091ce add byte ptr [eax], al ; add byte ptr [edi - 0x48], bl ; add dword ptr [eax], eax ; add byte ptr [eax], al ; pop esi ; ret
0x1000921c ret
0x1000921b pop ebx ; ret
0x1000921a pop esi ; pop ebx ; ret
0x10009219 pop edi ; pop esi ; pop ebx ; ret
0x10009218 add al, 0x5f ; pop esi ; pop ebx ; ret
0x10009217 inc edi ; add al, 0x5f ; pop esi ; pop ebx ; ret
0x10009216 mov dword ptr [edi + 4], eax ; pop edi ; pop esi ; pop ebx ; ret
0x10009215 jns 0x5e5f044d ; pop ebx ; ret
0x10009214 mov dword ptr [edi], ecx ; mov dword ptr [edi + 4], eax ; pop edi ; pop esi ; pop ebx ; ret
0x10009212 sub eax, esi ; mov dword ptr [edi], ecx ; mov dword ptr [edi + 4], eax ; pop edi ; pop esi ; pop ebx ; ret
0x10009275 ret
0x10009273 or al, 0x83 ; ret
0x100092c1 ret
0x100092be sbb byte ptr [eax - 0x7d], al ; ret
0x100092bb and byte ptr [ebx - 0x7cbfe73c], al ; ret
0x100092ba dec edi ; and byte ptr [ebx - 0x7cbfe73c], al ; ret
0x100092b8 xor byte ptr [ebx - 0x3b7cdfb1], cl ; sbb byte ptr [eax - 0x7d], al ; ret
0x100092eb ret
0x100092ea pop ecx ; ret
0x100092e9 pop ebx ; pop ecx ; ret
0x100092e8 pop ebp ; pop ebx ; pop ecx ; ret
0x100092e7 pop edi ; pop ebp ; pop ebx ; pop ecx ; ret
0x100092e6 pop esi ; pop edi ; pop ebp ; pop ebx ; pop ecx ; ret
0x100092e5 adc byte ptr [esi + 0x5f], bl ; pop ebp ; pop ebx ; pop ecx ; ret
0x100092e4 dec ebx ; adc byte ptr [esi + 0x5f], bl ; pop ebp ; pop ebx ; pop ecx ; ret
0x100092e3 mov dword ptr [ebx + 0x10], ecx ; pop esi ; pop edi ; pop ebp ; pop ebx ; pop ecx ; ret
0x100092e2 adc byte ptr [ecx + 0x5f5e104b], cl ; pop ebp ; pop ebx ; pop ecx ; ret
0x100092e1 add byte ptr [eax], dl ; mov dword ptr [ebx + 0x10], ecx ; pop esi ; pop edi ; pop ebp ; pop ebx ; pop ecx ; ret
0x10009327 ret
0x10009326 pop ecx ; ret
0x10009325 pop ebx ; pop ecx ; ret
0x10009324 pop ebp ; pop ebx ; pop ecx ; ret
0x10009323 adc byte ptr [ebp + 0x5b], bl ; pop ecx ; ret
0x10009322 add byte ptr [eax], dl ; pop ebp ; pop ebx ; pop ecx ; ret
0x10009321 xchg eax, esp ; add byte ptr [eax], dl ; pop ebp ; pop ebx ; pop ecx ; ret
0x10009320 add byte ptr [eax + eax + 0x595b5d10], dl ; ret
0x1000931f or al, 0 ; xchg eax, esp ; add byte ptr [eax], dl ; pop ebp ; pop ebx ; pop ecx ; ret
0x1000931e inc ebx ; or al, 0 ; xchg eax, esp ; add byte ptr [eax], dl ; pop ebp ; pop ebx ; pop ecx ; ret
0x1000931d mov dword ptr [ebx + 0xc], 0x10009400 ; pop ebp ; pop ebx ; pop ecx ; ret
0x10009347 ret
0x10009344 add esp, 4 ; ret
0x10009342 add byte ptr [eax], al ; add esp, 4 ; ret
0x10009340 or al, 0 ; add byte ptr [eax], al ; add esp, 4 ; ret
0x1000933f call 0x11 ; add esp, 4 ; ret
0x1000933e add al, ch ; or al, 0 ; add byte ptr [eax], al ; add esp, 4 ; ret
0x1000933d add byte ptr [eax], al ; call 0x13 ; add esp, 4 ; ret
0x10009390 ret
0x1000938f pop esi ; ret
0x1000938c mov dword ptr [eax + 0x18], ecx ; pop esi ; ret
0x10009389 mov dword ptr [eax + 0x14], ecx ; mov dword ptr [eax + 0x18], ecx ; pop esi ; ret
0x10009386 mov dword ptr [eax + 0x1c], edx ; mov dword ptr [eax + 0x14], ecx ; mov dword ptr [eax + 0x18], ecx ; pop esi ; ret
0x100093a0 ret
0x1000939f pop esi ; ret
0x1000939c mov dword ptr [eax + 0x18], ecx ; pop esi ; ret
0x10009399 mov dword ptr [eax + 0x14], ecx ; mov dword ptr [eax + 0x18], ecx ; pop esi ; ret
0x10009396 mov dword ptr [eax + 0x1c], edx ; mov dword ptr [eax + 0x14], ecx ; mov dword ptr [eax + 0x18], ecx ; pop esi ; ret
0x100093ea ret
0x100093e9 pop esi ; ret
0x100093e8 pop edi ; pop esi ; ret
0x100093e7 add byte ptr [edi + 0x5e], bl ; ret
0x100093e6 add byte ptr [eax], al ; pop edi ; pop esi ; ret
0x100093e5 add byte ptr [eax], al ; add byte ptr [edi + 0x5e], bl ; ret
0x100093e4 add byte ptr [eax], al ; add byte ptr [eax], al ; pop edi ; pop esi ; ret
0x100093e3 add byte ptr [eax], al ; add byte ptr [eax], al ; add byte ptr [edi + 0x5e], bl ; ret
0x100093e2 add byte ptr [eax], al ; add byte ptr [eax], al ; add byte ptr [eax], al ; pop edi ; pop esi ; ret
0x100093e1 add byte ptr [eax], al ; add byte ptr [eax], al ; add byte ptr [eax], al ; add byte ptr [edi + 0x5e], bl ; ret
0x100093e0 pushfd ; add byte ptr [eax], al ; add byte ptr [eax], al ; add byte ptr [eax], al ; add byte ptr [edi + 0x5e], bl ; ret
0x100093fe ret
0x100093fd pop esi ; ret
0x100093fc pop edi ; pop esi ; ret
0x100093fb add byte ptr [edi + 0x5e], bl ; ret
0x100093fa add byte ptr [eax], al ; pop edi ; pop esi ; ret
0x100093f9 add byte ptr [eax], al ; add byte ptr [edi + 0x5e], bl ; ret
0x100093f8 add byte ptr [eax], al ; add byte ptr [eax], al ; pop edi ; pop esi ; ret
0x100093f7 add byte ptr [eax], al ; add byte ptr [eax], al ; add byte ptr [edi + 0x5e], bl ; ret
0x100093f6 add byte ptr [eax], al ; add byte ptr [eax], al ; add byte ptr [eax], al ; pop edi ; pop esi ; ret
0x100093f5 add byte ptr [eax], al ; add byte ptr [eax], al ; add byte ptr [eax], al ; add byte ptr [edi + 0x5e], bl ; ret
0x100093f4 pushfd ; add byte ptr [eax], al ; add byte ptr [eax], al ; add byte ptr [eax], al ; add byte ptr [edi + 0x5e], bl ; ret
0x10009569 ret
0x1000963d ret
0x1000963a add esp, 0x3c ; ret
0x10009639 pop ebx ; add esp, 0x3c ; ret
0x10009638 pop ebp ; pop ebx ; add esp, 0x3c ; ret
0x10009637 pop esi ; pop ebp ; pop ebx ; add esp, 0x3c ; ret
0x10009636 pop edi ; pop esi ; pop ebp ; pop ebx ; add esp, 0x3c ; ret
0x10009635 add byte ptr [edi + 0x5e], bl ; pop ebp ; pop ebx ; add esp, 0x3c ; ret
0x10009634 add byte ptr [eax], al ; pop edi ; pop esi ; pop ebp ; pop ebx ; add esp, 0x3c ; ret
0x10009633 add byte ptr [eax], al ; add byte ptr [edi + 0x5e], bl ; pop ebp ; pop ebx ; add esp, 0x3c ; ret
0x10009657 ret
0x10009654 add esp, 0x3c ; ret
0x10009653 pop ebx ; add esp, 0x3c ; ret
0x10009652 pop ebp ; pop ebx ; add esp, 0x3c ; ret
0x10009651 pop esi ; pop ebp ; pop ebx ; add esp, 0x3c ; ret
0x10009650 pop edi ; pop esi ; pop ebp ; pop ebx ; add esp, 0x3c ; ret
0x1000964f add byte ptr [edi + 0x5e], bl ; pop ebp ; pop ebx ; add esp, 0x3c ; ret
0x1000964e add byte ptr [eax], al ; pop edi ; pop esi ; pop ebp ; pop ebx ; add esp, 0x3c ; ret
0x1000964d add byte ptr [eax], al ; add byte ptr [edi + 0x5e], bl ; pop ebp ; pop ebx ; add esp, 0x3c ; ret
0x1000966b ret
0x10009668 add esp, 0x3c ; ret
0x10009667 pop ebx ; add esp, 0x3c ; ret
0x10009665 xor eax, eax ; pop ebx ; add esp, 0x3c ; ret
0x10009664 pop ebp ; xor eax, eax ; pop ebx ; add esp, 0x3c ; ret
0x10009663 pop esi ; pop ebp ; xor eax, eax ; pop ebx ; add esp, 0x3c ; ret
0x10009662 pop edi ; pop esi ; pop ebp ; xor eax, eax ; pop ebx ; add esp, 0x3c ; ret
0x10009661 sbb byte ptr [edi + 0x5e], bl ; pop ebp ; xor eax, eax ; pop ebx ; add esp, 0x3c ; ret
0x10009672 ret
0x10009670 xor eax, eax ; ret
0x1000966f nop ; xor eax, eax ; ret
0x1000966e nop ; nop ; xor eax, eax ; ret
0x1000966d nop ; nop ; nop ; xor eax, eax ; ret
0x1000966c nop ; nop ; nop ; nop ; xor eax, eax ; ret
0x1000966b ret ; nop ; nop ; nop ; nop ; xor eax, eax ; ret
0x1000966a cmp al, 0xc3 ; nop ; nop ; nop ; nop ; xor eax, eax ; ret
0x10009669 les edi, ptr [ebx + eax*8] ; nop ; nop ; nop ; nop ; xor eax, eax ; ret
0x10009668 add esp, 0x3c ; ret ; nop ; nop ; nop ; nop ; xor eax, eax ; ret
0x1000969a ret
0x10009698 add byte ptr [ebx], bh ; ret
0x10009696 add dword ptr [eax], eax ; add byte ptr [ebx], bh ; ret
0x10009692 add byte ptr [ebx + 0x1a8be], cl ; add byte ptr [ebx], bh ; ret
0x10009690 add dword ptr [eax], eax ; add byte ptr [ebx + 0x1a8be], cl ; add byte ptr [ebx], bh ; ret
0x10009727 ret
0x10009725 and al, 0x3b ; ret
0x10009721 add byte ptr [ecx + 0x3b24245c], cl ; ret
0x1000971f add dword ptr [eax], eax ; add byte ptr [ecx + 0x3b24245c], cl ; ret
0x1000971e inc esp ; add dword ptr [eax], eax ; add byte ptr [ecx + 0x3b24245c], cl ; ret
0x1000971d xchg byte ptr [ecx + eax], al ; add byte ptr [ecx + 0x3b24245c], cl ; ret
0x10009859 ret
0x10009857 les esi, ptr [eax] ; ret
0x10009856 add esp, 0x30 ; ret
0x10009855 pop ebx ; add esp, 0x30 ; ret
0x10009854 pop ebp ; pop ebx ; add esp, 0x30 ; ret
0x10009853 pop esi ; pop ebp ; pop ebx ; add esp, 0x30 ; ret
0x10009852 pop edi ; pop esi ; pop ebp ; pop ebx ; add esp, 0x30 ; ret
0x10009851 add byte ptr [edi + 0x5e], bl ; pop ebp ; pop ebx ; add esp, 0x30 ; ret
0x10009850 add byte ptr [eax], al ; pop edi ; pop esi ; pop ebp ; pop ebx ; add esp, 0x30 ; ret
0x1000984f add byte ptr [eax], al ; add byte ptr [edi + 0x5e], bl ; pop ebp ; pop ebx ; add esp, 0x30 ; ret
0x10009873 ret
0x10009871 les esi, ptr [eax] ; ret
0x10009870 add esp, 0x30 ; ret
0x1000986f pop ebx ; add esp, 0x30 ; ret
0x1000986e pop ebp ; pop ebx ; add esp, 0x30 ; ret
0x1000986d pop esi ; pop ebp ; pop ebx ; add esp, 0x30 ; ret
0x1000986c pop edi ; pop esi ; pop ebp ; pop ebx ; add esp, 0x30 ; ret
0x1000986b add byte ptr [edi + 0x5e], bl ; pop ebp ; pop ebx ; add esp, 0x30 ; ret
0x1000986a add byte ptr [eax], al ; pop edi ; pop esi ; pop ebp ; pop ebx ; add esp, 0x30 ; ret
0x10009869 add byte ptr [eax], al ; add byte ptr [edi + 0x5e], bl ; pop ebp ; pop ebx ; add esp, 0x30 ; ret
0x10009887 ret
0x10009885 les esi, ptr [eax] ; ret
0x10009884 add esp, 0x30 ; ret
0x10009883 pop ebx ; add esp, 0x30 ; ret
0x10009881 xor eax, eax ; pop ebx ; add esp, 0x30 ; ret
0x10009880 pop ebp ; xor eax, eax ; pop ebx ; add esp, 0x30 ; ret
0x1000987f pop esi ; pop ebp ; xor eax, eax ; pop ebx ; add esp, 0x30 ; ret
0x1000987e pop edi ; pop esi ; pop ebp ; xor eax, eax ; pop ebx ; add esp, 0x30 ; ret
0x1000987d sbb byte ptr [edi + 0x5e], bl ; pop ebp ; xor eax, eax ; pop ebx ; add esp, 0x30 ; ret
0x10009907 lds ecx, ptr [eax + 0x2b] ; ret
0x100099b3 ret
0x100099b1 adc al, 0x81 ; ret
0x100099b0 les edx, ptr [ecx + eax*4] ; ret
0x100099ae sbb al, 0x83 ; les edx, ptr [ecx + eax*4] ; ret
0x100099ad inc esi ; sbb al, 0x83 ; les edx, ptr [ecx + eax*4] ; ret
0x100099ab and al, 0x8b ; inc esi ; sbb al, 0x83 ; les edx, ptr [ecx + eax*4] ; ret
0x100099aa push esi ; and al, 0x8b ; inc esi ; sbb al, 0x83 ; les edx, ptr [ecx + eax*4] ; ret
0x100099fb ret
0x100099f9 add al, 0x83 ; ret
0x100099f8 lds eax, ptr [ebx + eax*4] ; ret
0x100099f5 and byte ptr [eax - 0x7d], al ; lds eax, ptr [ebx + eax*4] ; ret
0x100099f4 dec edi ; and byte ptr [eax - 0x7d], al ; lds eax, ptr [ebx + eax*4] ; ret
0x100099f2 sbb al, 0x8b ; dec edi ; and byte ptr [eax - 0x7d], al ; lds eax, ptr [ebx + eax*4] ; ret
0x10009a37 ret
0x10009a35 les esp, ptr [eax] ; ret
0x10009a34 add esp, 0x20 ; ret
0x10009a33 pop ebx ; add esp, 0x20 ; ret
0x10009a32 pop ebp ; pop ebx ; add esp, 0x20 ; ret
0x10009a31 pop esi ; pop ebp ; pop ebx ; add esp, 0x20 ; ret
0x10009a30 pop edi ; pop esi ; pop ebp ; pop ebx ; add esp, 0x20 ; ret
0x10009a2f add al, 0x5f ; pop esi ; pop ebp ; pop ebx ; add esp, 0x20 ; ret
0x10009a2e rol byte ptr [edi + ebx*2], 0x5e ; pop ebp ; pop ebx ; add esp, 0x20 ; ret
0x10009a2d add eax, 4 ; pop edi ; pop esi ; pop ebp ; pop ebx ; add esp, 0x20 ; ret
0x10009a41 ret
0x10009a3f les esp, ptr [eax] ; ret
0x10009a3e add esp, 0x20 ; ret
0x10009a3d pop ebx ; add esp, 0x20 ; ret
0x10009a3b xor eax, eax ; pop ebx ; add esp, 0x20 ; ret
0x10009a3a pop ebp ; xor eax, eax ; pop ebx ; add esp, 0x20 ; ret
0x10009a39 pop esi ; pop ebp ; xor eax, eax ; pop ebx ; add esp, 0x20 ; ret
0x10009a38 pop edi ; pop esi ; pop ebp ; xor eax, eax ; pop ebx ; add esp, 0x20 ; ret
0x10009a37 ret ; pop edi ; pop esi ; pop ebp ; xor eax, eax ; pop ebx ; add esp, 0x20 ; ret
0x10009a6e ret
0x10009a6c add byte ptr [ebx], bh ; ret
0x10009a6a add dword ptr [eax], eax ; add byte ptr [ebx], bh ; ret
0x10009a68 mov bh, 0xa8 ; add dword ptr [eax], eax ; add byte ptr [ebx], bh ; ret
0x10009a66 add byte ptr [ebx + 0x1a8b7], cl ; add byte ptr [ebx], bh ; ret
0x10009a64 add byte ptr [eax], al ; add byte ptr [ebx + 0x1a8b7], cl ; add byte ptr [ebx], bh ; ret
0x10009b35 ret
0x10009b33 les ecx, ptr [eax] ; ret
0x10009b32 add esp, 8 ; ret
0x10009b31 pop ebx ; add esp, 8 ; ret
0x10009b30 pop ebp ; pop ebx ; add esp, 8 ; ret
0x10009b2f pop esi ; pop ebp ; pop ebx ; add esp, 8 ; ret
0x10009b2e pop edi ; pop esi ; pop ebp ; pop ebx ; add esp, 8 ; ret
0x10009b2d adc al, 0x5f ; pop esi ; pop ebp ; pop ebx ; add esp, 8 ; ret
0x10009b2c and al, 0x14 ; pop edi ; pop esi ; pop ebp ; pop ebx ; add esp, 8 ; ret
0x10009b2b inc esp ; and al, 0x14 ; pop edi ; pop esi ; pop ebp ; pop ebx ; add esp, 8 ; ret
0x10009b3f ret
0x10009b3d les ecx, ptr [eax] ; ret
0x10009b3c add esp, 8 ; ret
0x10009b3b pop ebx ; add esp, 8 ; ret
0x10009b39 xor eax, eax ; pop ebx ; add esp, 8 ; ret
0x10009b38 pop ebp ; xor eax, eax ; pop ebx ; add esp, 8 ; ret
0x10009b37 pop esi ; pop ebp ; xor eax, eax ; pop ebx ; add esp, 8 ; ret
0x10009b36 pop edi ; pop esi ; pop ebp ; xor eax, eax ; pop ebx ; add esp, 8 ; ret
0x10009b35 ret ; pop edi ; pop esi ; pop ebp ; xor eax, eax ; pop ebx ; add esp, 8 ; ret
0x10009f9a ret
0x10009f98 ret 0xc32b
0x10009f96 cmp byte ptr [ebx], ch ; ret 0xc32b
0x1000a14c ret
0x1000a149 ret 0x8318 ; ret
0x1000a146 and byte ptr [eax - 0x7d], al ; ret 0x8318 ; ret
0x1000a145 dec edi ; and byte ptr [eax - 0x7d], al ; ret 0x8318 ; ret
0x1000a196 ret
0x1000a194 add byte ptr [eax], al ; ret
0x1000a192 or byte ptr [ecx], al ; add byte ptr [eax], al ; ret
0x1000a190 add esp, 0x108 ; ret
0x1000a18f pop ebx ; add esp, 0x108 ; ret
0x1000a18e pop ebp ; pop ebx ; add esp, 0x108 ; ret
0x1000a18d pop esi ; pop ebp ; pop ebx ; add esp, 0x108 ; ret
0x1000a18c pop edi ; pop esi ; pop ebp ; pop ebx ; add esp, 0x108 ; ret
0x1000a1a3 ret
0x1000a1a1 add byte ptr [eax], al ; ret
0x1000a19f or byte ptr [ecx], al ; add byte ptr [eax], al ; ret
0x1000a19d add esp, 0x108 ; ret
0x1000a19c pop ebx ; add esp, 0x108 ; ret
0x1000a19b rcr byte ptr [ebx - 0x7f], 0xc4 ; or byte ptr [ecx], al ; add byte ptr [eax], al ; ret
0x1000a19a xor eax, eax ; pop ebx ; add esp, 0x108 ; ret
0x1000a199 pop ebp ; xor eax, eax ; pop ebx ; add esp, 0x108 ; ret
0x1000a34d ret
0x1000a34c pop esi ; ret
0x1000a34b pop edi ; pop esi ; ret
0x1000a34a add byte ptr [edi + 0x5e], bl ; ret
0x1000a349 add byte ptr [eax], al ; pop edi ; pop esi ; ret
0x1000a348 add byte ptr [eax], al ; add byte ptr [edi + 0x5e], bl ; ret
0x1000a347 add dword ptr [eax], eax ; add byte ptr [eax], al ; pop edi ; pop esi ; ret
0x1000a346 jl 3 ; add byte ptr [eax], al ; add byte ptr [edi + 0x5e], bl ; ret
0x1000a345 inc esi ; jl 4 ; add byte ptr [eax], al ; add byte ptr [edi + 0x5e], bl ; ret
0x1000a344 mov dword ptr [esi + 0x7c], 1 ; pop edi ; pop esi ; ret
0x1000a343 or al, bh ; inc esi ; jl 6 ; add byte ptr [eax], al ; add byte ptr [edi + 0x5e], bl ; ret
0x1000a356 ret
0x1000a355 pop esi ; ret
0x1000a354 jl 0x60 ; ret
0x1000a353 inc esi ; jl 0x61 ; ret
0x1000a352 mov dword ptr [esi + 0x7c], eax ; pop esi ; ret
0x1000a351 pop edi ; mov dword ptr [esi + 0x7c], eax ; pop esi ; ret
0x1000a350 js 0x61 ; mov dword ptr [esi + 0x7c], eax ; pop esi ; ret
0x1000a34f inc esi ; js 0x62 ; mov dword ptr [esi + 0x7c], eax ; pop esi ; ret
0x1000a34e mov eax, dword ptr [esi + 0x78] ; pop edi ; mov dword ptr [esi + 0x7c], eax ; pop esi ; ret
0x1000a34d ret ; mov eax, dword ptr [esi + 0x78] ; pop edi ; mov dword ptr [esi + 0x7c], eax ; pop esi ; ret
0x1000a34c pop esi ; ret ; mov eax, dword ptr [esi + 0x78] ; pop edi ; mov dword ptr [esi + 0x7c], eax ; pop esi ; ret
0x1000a438 ret
0x1000a437 pop ebx ; ret
0x1000a436 pop ebp ; pop ebx ; ret
0x1000a435 pop esi ; pop ebp ; pop ebx ; ret
0x1000a434 pop edi ; pop esi ; pop ebp ; pop ebx ; ret
0x1000a433 scasd eax, dword ptr es:[edi] ; pop edi ; pop esi ; pop ebp ; pop ebx ; ret
0x1000a432 jge 0xffffffb1 ; pop edi ; pop esi ; pop ebp ; pop ebx ; ret
0x1000a431 adc al, 0x7d ; scasd eax, dword ptr es:[edi] ; pop edi ; pop esi ; pop ebp ; pop ebx ; ret
0x1000a430 and al, 0x14 ; jge 0xffffffb3 ; pop edi ; pop esi ; pop ebp ; pop ebx ; ret
0x1000a42f pop esp ; and al, 0x14 ; jge 0xffffffb4 ; pop edi ; pop esi ; pop ebp ; pop ebx ; ret
0x1000a42e mov dword ptr [esp + 0x14], ebx ; jge 0xffffffb5 ; pop edi ; pop esi ; pop ebp ; pop ebx ; ret
0x1000a4ba ret
0x1000a575 ret
0x1000a573 les esp, ptr [eax] ; ret
0x1000a572 add esp, 0x20 ; ret
0x1000a571 pop edi ; add esp, 0x20 ; ret
0x1000a570 pop esi ; pop edi ; add esp, 0x20 ; ret
0x1000a56f pop ebp ; pop esi ; pop edi ; add esp, 0x20 ; ret
0x1000a56e pop ebx ; pop ebp ; pop esi ; pop edi ; add esp, 0x20 ; ret
0x1000a56d lcall ptr [ebx + 0x5d] ; pop esi ; pop edi ; add esp, 0x20 ; ret
0x1000a606 ret
0x1000a605 pop ecx ; ret
0x1000a604 pop edi ; pop ecx ; ret
0x1000a603 pop esi ; pop edi ; pop ecx ; ret
0x1000a602 pop ebp ; pop esi ; pop edi ; pop ecx ; ret
0x1000a601 pop ebx ; pop ebp ; pop esi ; pop edi ; pop ecx ; ret
0x1000a600 test eax, 0x5f5e5d5b ; pop ecx ; ret
0x1000a5ff jne 0xffffffab ; pop ebx ; pop ebp ; pop esi ; pop edi ; pop ecx ; ret
0x1000a5fe sub byte ptr [ebp - 0x57], dh ; pop ebx ; pop ebp ; pop esi ; pop edi ; pop ecx ; ret
0x1000a5fd and al, 0x28 ; jne 0xffffffad ; pop ebx ; pop ebp ; pop esi ; pop edi ; pop ecx ; ret
0x1000a5fc inc esp ; and al, 0x28 ; jne 0xffffffae ; pop ebx ; pop ebp ; pop esi ; pop edi ; pop ecx ; ret
0x1000a638 ret
0x1000a636 les ebx, ptr [eax] ; ret
0x1000a635 add esp, 0x18 ; ret
0x1000a633 add byte ptr [eax], al ; add esp, 0x18 ; ret
0x1000a631 mov ebx, 0x830000b6 ; les ebx, ptr [eax] ; ret
0x1000a630 call 0xb6c0 ; add esp, 0x18 ; ret
0x1000a62f push eax ; call 0xb6c1 ; add esp, 0x18 ; ret
0x1000a62e push ecx ; push eax ; call 0xb6c2 ; add esp, 0x18 ; ret
0x1000a7a8 ret
0x1000a7a5 add esp, 0x24 ; ret
0x1000a7a4 pop edi ; add esp, 0x24 ; ret
0x1000a7a3 pop esi ; pop edi ; add esp, 0x24 ; ret
0x1000a7a2 pop ebp ; pop esi ; pop edi ; add esp, 0x24 ; ret
0x1000a7a1 pop ebx ; pop ebp ; pop esi ; pop edi ; add esp, 0x24 ; ret
0x1000a7a0 lcall ptr [ebx + 0x5d] ; pop esi ; pop edi ; add esp, 0x24 ; ret
0x1000a828 ret
0x1000a827 pop ebx ; ret
0x1000a826 pop esi ; pop ebx ; ret
0x1000a825 pop edi ; pop esi ; pop ebx ; ret
0x1000a824 pop ebp ; pop edi ; pop esi ; pop ebx ; ret
0x1000a822 jl 0xffffffc8 ; pop ebp ; pop edi ; pop esi ; pop ebx ; ret
0x1000a820 and al, 0x14 ; jl 0xffffffca ; pop ebp ; pop edi ; pop esi ; pop ebx ; ret
0x1000a81f push esp ; and al, 0x14 ; jl 0xffffffcb ; pop ebp ; pop edi ; pop esi ; pop ebx ; ret
0x1000a81e mov dword ptr [esp + 0x14], edx ; jl 0xffffffcc ; pop ebp ; pop edi ; pop esi ; pop ebx ; ret
0x1000a865 ret
0x1000aa0b ret
0x1000aa5f ret
0x1000aa5d add al, 0x83 ; ret
0x1000aa7b ret
0x1000aa7a pop ebp ; ret
0x1000aa79 in eax, 0x5d ; ret
0x1000aa78 mov esp, ebp ; pop ebp ; ret
0x1000aa77 pop ebx ; mov esp, ebp ; pop ebp ; ret
0x1000aa76 pop esi ; pop ebx ; mov esp, ebp ; pop ebp ; ret
0x1000aa75 pop edi ; pop esi ; pop ebx ; mov esp, ebp ; pop ebp ; ret
0x1000aa74 lcall ptr [edi + 0x5e] ; pop ebx ; mov esp, ebp ; pop ebp ; ret
0x1000ab06 ret
0x1000ab00 fmul dword ptr [ebx - 0x74047517] ; ret
0x1000ab0c ret
0x1000ab09 adc byte ptr [esi - 0x75], ah ; ret
0x1000ac8a ret
0x1000ac88 add byte ptr [eax], al ; ret
0x1000ac86 sbb al, 5 ; add byte ptr [eax], al ; ret
0x1000ac84 add esp, 0x51c ; ret
0x1000ac83 pop ebx ; add esp, 0x51c ; ret
0x1000ac82 pop ebp ; pop ebx ; add esp, 0x51c ; ret
0x1000ac81 pop esi ; pop ebp ; pop ebx ; add esp, 0x51c ; ret
0x1000ac80 pop edi ; pop esi ; pop ebp ; pop ebx ; add esp, 0x51c ; ret
0x1000aca6 ret
0x1000ad85 ret
0x1000ad84 pop ebx ; ret
0x1000ad83 pop ebp ; pop ebx ; ret
0x1000ad82 pop esi ; pop ebp ; pop ebx ; ret
0x1000ad81 pop edi ; pop esi ; pop ebp ; pop ebx ; ret
0x1000ad80 add byte ptr [edi + 0x5e], bl ; pop ebp ; pop ebx ; ret
0x1000ad7f add byte ptr [eax], al ; pop edi ; pop esi ; pop ebp ; pop ebx ; ret
0x1000ad7e add byte ptr [eax], al ; add byte ptr [edi + 0x5e], bl ; pop ebp ; pop ebx ; ret
0x1000ad7d add dword ptr [eax], eax ; add byte ptr [eax], al ; pop edi ; pop esi ; pop ebp ; pop ebx ; ret
0x1000ad7c mov eax, 1 ; pop edi ; pop esi ; pop ebp ; pop ebx ; ret
0x1000ad7b adc byte ptr [eax + 1], bh ; pop edi ; pop esi ; pop ebp ; pop ebx ; ret
0x1000ad8c ret
0x1000ad8b pop ebx ; ret
0x1000ad89 xor eax, eax ; pop ebx ; ret
0x1000ad88 pop ebp ; xor eax, eax ; pop ebx ; ret
0x1000ad87 pop esi ; pop ebp ; xor eax, eax ; pop ebx ; ret
0x1000ad86 pop edi ; pop esi ; pop ebp ; xor eax, eax ; pop ebx ; ret
0x1000ad85 ret ; pop edi ; pop esi ; pop ebp ; xor eax, eax ; pop ebx ; ret
0x1000ad84 pop ebx ; ret ; pop edi ; pop esi ; pop ebp ; xor eax, eax ; pop ebx ; ret
0x1000ad83 pop ebp ; pop ebx ; ret ; pop edi ; pop esi ; pop ebp ; xor eax, eax ; pop ebx ; ret
0x1000ad82 pop esi ; pop ebp ; pop ebx ; ret ; pop edi ; pop esi ; pop ebp ; xor eax, eax ; pop ebx ; ret
0x1000adc3 ret
0x1000adc2 pop ebx ; ret
0x1000adc1 pop ebp ; pop ebx ; ret
0x1000adc0 pop esi ; pop ebp ; pop ebx ; ret
0x1000adbf pop edi ; pop esi ; pop ebp ; pop ebx ; ret
0x1000adbe lcall ptr [edi + 0x5e] ; pop ebp ; pop ebx ; ret
0x1000adbd enter 0x5fff, 0x5e ; pop ebp ; pop ebx ; ret
0x1000adbc or eax, 0xffffffff ; pop edi ; pop esi ; pop ebp ; pop ebx ; ret
0x1000adbb or byte ptr [ebx + 0x5e5fffc8], al ; pop ebp ; pop ebx ; ret
0x1000adba jne 0xa ; or eax, 0xffffffff ; pop edi ; pop esi ; pop ebp ; pop ebx ; ret
0x1000adb9 sal byte ptr [ebp + 8], 0x83 ; enter 0x5fff, 0x5e ; pop ebp ; pop ebx ; ret
0x1000ae61 ret
0x1000ae60 pop ebx ; ret
0x1000ae5f pop ebp ; pop ebx ; ret
0x1000ae5e pop esi ; pop ebp ; pop ebx ; ret
0x1000ae5d pop edi ; pop esi ; pop ebp ; pop ebx ; ret
0x1000ae5c rcr byte ptr [edi + 0x5e], 0x5d ; pop ebx ; ret
0x1000ae5b xor eax, eax ; pop edi ; pop esi ; pop ebp ; pop ebx ; ret
0x1000ae5a or byte ptr [ebx], dh ; rcr byte ptr [edi + 0x5e], 0x5d ; pop ebx ; ret
0x1000ae59 les ecx, ptr [eax] ; xor eax, eax ; pop edi ; pop esi ; pop ebp ; pop ebx ; ret
0x1000ae58 add esp, 8 ; xor eax, eax ; pop edi ; pop esi ; pop ebp ; pop ebx ; ret
0x1000ae57 add al, 0x83 ; les ecx, ptr [eax] ; xor eax, eax ; pop edi ; pop esi ; pop ebp ; pop ebx ; ret
0x1000ae80 ret
0x1000ae7f pop ebx ; ret
0x1000ae7e pop ebp ; pop ebx ; ret
0x1000ae7d pop esi ; pop ebp ; pop ebx ; ret
0x1000ae7c pop edi ; pop esi ; pop ebp ; pop ebx ; ret
0x1000ae7b adc dword ptr [edi + 0x5e], ebx ; pop ebp ; pop ebx ; ret
0x1000ae7a xor dl, byte ptr [ecx] ; pop edi ; pop esi ; pop ebp ; pop ebx ; ret
0x1000ae79 inc esp ; xor dl, byte ptr [ecx] ; pop edi ; pop esi ; pop ebp ; pop ebx ; ret
0x1000ae78 mov al, byte ptr [edx + esi + 0x11] ; pop edi ; pop esi ; pop ebp ; pop ebx ; ret
0x1000ae77 ror byte ptr [edx + 0x5f113244], 0x5e ; pop ebp ; pop ebx ; ret
0x1000ae76 xor eax, eax ; mov al, byte ptr [edx + esi + 0x11] ; pop edi ; pop esi ; pop ebp ; pop ebx ; ret
0x1000ae88 ret
0x1000ae87 pop ebx ; ret
0x1000ae84 or eax, 0xffffffff ; pop ebx ; ret
0x1000ae83 pop ebp ; or eax, 0xffffffff ; pop ebx ; ret
0x1000ae82 pop esi ; pop ebp ; or eax, 0xffffffff ; pop ebx ; ret
0x1000ae81 pop edi ; pop esi ; pop ebp ; or eax, 0xffffffff ; pop ebx ; ret
0x1000ae80 ret ; pop edi ; pop esi ; pop ebp ; or eax, 0xffffffff ; pop ebx ; ret
0x1000ae7f pop ebx ; ret ; pop edi ; pop esi ; pop ebp ; or eax, 0xffffffff ; pop ebx ; ret
0x1000ae7e pop ebp ; pop ebx ; ret ; pop edi ; pop esi ; pop ebp ; or eax, 0xffffffff ; pop ebx ; ret
0x1000aecb ret
0x1000aeca pop esi ; ret
0x1000aec9 cmc ; pop esi ; ret
0x1000aec8 jne 0xfffffff7 ; pop esi ; ret
0x1000aec7 dec ecx ; jne 0xfffffff8 ; pop esi ; ret
0x1000aec6 add al, 0x49 ; jne 0xfffffff9 ; pop esi ; ret
0x1000aec5 rol byte ptr [ecx + ecx*2], 0x75 ; cmc ; pop esi ; ret
0x1000aec4 add eax, 4 ; dec ecx ; jne 0xfffffffb ; pop esi ; ret
0x1000aec3 adc byte ptr [ebx + 0x754904c0], al ; cmc ; pop esi ; ret
0x1000aec2 mov dword ptr [eax], edx ; add eax, 4 ; dec ecx ; jne 0xfffffffd ; pop esi ; ret
0x1000aec1 adc byte ptr [ecx + 0x4c08310], cl ; dec ecx ; jne 0xfffffffe ; pop esi ; ret
0x1000b017 ret
0x1000b015 les ecx, ptr [eax] ; ret
0x1000b014 add esp, 8 ; ret
0x1000b013 pop ebx ; add esp, 8 ; ret
0x1000b012 pop ebp ; pop ebx ; add esp, 8 ; ret
0x1000b011 pop esi ; pop ebp ; pop ebx ; add esp, 8 ; ret
0x1000b010 and al, 0x5e ; pop ebp ; pop ebx ; add esp, 8 ; ret
0x1000b00f inc ebp ; and al, 0x5e ; pop ebp ; pop ebx ; add esp, 8 ; ret
0x1000b00e mov dword ptr [ebp + 0x24], eax ; pop esi ; pop ebp ; pop ebx ; add esp, 8 ; ret
0x1000b00d pop edi ; mov dword ptr [ebp + 0x24], eax ; pop esi ; pop ebp ; pop ebx ; add esp, 8 ; ret
0x1000b05a ret
0x1000b059 inc esp ; ret
0x1000b057 add esp, 0x44 ; ret
0x1000b056 pop ebx ; add esp, 0x44 ; ret
0x1000b055 pop ebp ; pop ebx ; add esp, 0x44 ; ret
0x1000b054 pop esi ; pop ebp ; pop ebx ; add esp, 0x44 ; ret
0x1000b053 pop edi ; pop esi ; pop ebp ; pop ebx ; add esp, 0x44 ; ret
0x1000b052 or byte ptr [edi + 0x5e], bl ; pop ebp ; pop ebx ; add esp, 0x44 ; ret
0x1000b051 jne 0xa ; pop edi ; pop esi ; pop ebp ; pop ebx ; add esp, 0x44 ; ret
0x1000b050 sal byte ptr [ebp + 8], 0x5f ; pop esi ; pop ebp ; pop ebx ; add esp, 0x44 ; ret
0x1000b46b ret
0x1000b46a inc esp ; ret
0x1000b468 add esp, 0x44 ; ret
0x1000b467 pop ebx ; add esp, 0x44 ; ret
0x1000b466 pop ebp ; pop ebx ; add esp, 0x44 ; ret
0x1000b465 pop esi ; pop ebp ; pop ebx ; add esp, 0x44 ; ret
0x1000b464 pop edi ; pop esi ; pop ebp ; pop ebx ; add esp, 0x44 ; ret
0x1000b463 add byte ptr [edi + 0x5e], bl ; pop ebp ; pop ebx ; add esp, 0x44 ; ret
0x1000b462 add byte ptr [eax], al ; pop edi ; pop esi ; pop ebp ; pop ebx ; add esp, 0x44 ; ret
0x1000b461 add byte ptr [eax], al ; add byte ptr [edi + 0x5e], bl ; pop ebp ; pop ebx ; add esp, 0x44 ; ret
0x1000b475 ret
0x1000b474 inc esp ; ret
0x1000b472 add esp, 0x44 ; ret
0x1000b471 pop ebx ; add esp, 0x44 ; ret
0x1000b470 rcr byte ptr [ebx - 0x7d], 0xc4 ; inc esp ; ret
0x1000b46f xor eax, eax ; pop ebx ; add esp, 0x44 ; ret
0x1000b46e pop ebp ; xor eax, eax ; pop ebx ; add esp, 0x44 ; ret
0x1000b46d pop esi ; pop ebp ; xor eax, eax ; pop ebx ; add esp, 0x44 ; ret
0x1000b46c pop edi ; pop esi ; pop ebp ; xor eax, eax ; pop ebx ; add esp, 0x44 ; ret
0x1000b46b ret ; pop edi ; pop esi ; pop ebp ; xor eax, eax ; pop ebx ; add esp, 0x44 ; ret
0x1000b4c0 ret
0x1000b4bf pop esi ; ret
0x1000b4be pop edi ; pop esi ; ret
0x1000b4bd add ebx, dword ptr [edi + 0x5e] ; ret
0x1000b4bc jne 5 ; pop edi ; pop esi ; ret
0x1000b4bb sal byte ptr [ebp + 3], 0x5f ; pop esi ; ret
0x1000b4ba test eax, eax ; jne 7 ; pop edi ; pop esi ; ret
0x1000b4b9 add al, 0x85 ; sal byte ptr [ebp + 3], 0x5f ; pop esi ; ret
0x1000b4b8 les eax, ptr [eax*4 + 0x5f0375c0] ; pop esi ; ret
0x1000b4b7 add esp, 4 ; test eax, eax ; jne 0xa ; pop edi ; pop esi ; ret
0x1000b4b6 or byte ptr [ebx - 0x3f7afb3c], al ; jne 0xb ; pop edi ; pop esi ; ret
0x1000b4fb ret
0x1000b4fa pop esi ; ret
0x1000b4f8 add byte ptr [eax], al ; pop esi ; ret
0x1000b4f6 add dword ptr [eax], eax ; add byte ptr [eax], al ; pop esi ; ret
0x1000b4f5 mov eax, 1 ; pop esi ; ret
0x1000b4f4 pop edi ; mov eax, 1 ; pop esi ; ret
0x1000b4f3 and al, 0x5f ; mov eax, 1 ; pop esi ; ret
0x1000b4f2 dec edi ; and al, 0x5f ; mov eax, 1 ; pop esi ; ret
0x1000b4f1 mov dword ptr [edi + 0x24], ecx ; pop edi ; mov eax, 1 ; pop esi ; ret
0x1000b549 ret
0x1000b548 pop esi ; ret
0x1000b546 add byte ptr [eax], al ; pop esi ; ret
0x1000b544 add dword ptr [eax], eax ; add byte ptr [eax], al ; pop esi ; ret
0x1000b541 mov dword ptr [eax + 0x18], 1 ; pop esi ; ret
0x1000b53f add byte ptr [eax], al ; mov dword ptr [eax + 0x18], 1 ; pop esi ; ret
0x1000b591 ret
0x1000b590 pop esi ; ret
0x1000b58e mov dword ptr [eax], ecx ; pop esi ; ret
0x1000b58b mov ecx, dword ptr [edx + 4] ; mov dword ptr [eax], ecx ; pop esi ; ret
0x1000b588 add esp, 4 ; mov ecx, dword ptr [edx + 4] ; mov dword ptr [eax], ecx ; pop esi ; ret
0x1000b5b5 ret
0x1000b5b3 add byte ptr [ebx], bh ; ret
0x1000b5b1 add dword ptr [eax], eax ; add byte ptr [ebx], bh ; ret
0x1000b5b0 inc esp ; add dword ptr [eax], eax ; add byte ptr [ebx], bh ; ret
0x1000b5af xchg byte ptr [ecx + eax], al ; add byte ptr [ebx], bh ; ret
0x1000b5ac add byte ptr [edi - 0x75], dl ; xchg byte ptr [ecx + eax], al ; add byte ptr [ebx], bh ; ret
0x1000b609 pop ecx ; ret
0x1000b608 pop ebx ; pop ecx ; ret
0x1000b607 pop ebp ; pop ebx ; pop ecx ; ret
0x1000b606 pop esi ; pop ebp ; pop ebx ; pop ecx ; ret
0x1000b605 pop edi ; pop esi ; pop ebp ; pop ebx ; pop ecx ; ret
0x1000b604 add byte ptr [edi + 0x5e], bl ; pop ebp ; pop ebx ; pop ecx ; ret
0x1000b603 add byte ptr [eax], al ; pop edi ; pop esi ; pop ebp ; pop ebx ; pop ecx ; ret
0x1000b602 add byte ptr [eax], al ; add byte ptr [edi + 0x5e], bl ; pop ebp ; pop ebx ; pop ecx ; ret
0x1000b601 add byte ptr [eax], al ; add byte ptr [eax], al ; pop edi ; pop esi ; pop ebp ; pop ebx ; pop ecx ; ret
0x1000b600 add byte ptr [eax], al ; add byte ptr [eax], al ; add byte ptr [edi + 0x5e], bl ; pop ebp ; pop ebx ; pop ecx ; ret
0x1000b74a ret
0x1000b749 pop ecx ; ret
0x1000b748 pop ebx ; pop ecx ; ret
0x1000b747 pop ebp ; pop ebx ; pop ecx ; ret
0x1000b746 pop esi ; pop ebp ; pop ebx ; pop ecx ; ret
0x1000b745 pop edi ; pop esi ; pop ebp ; pop ebx ; pop ecx ; ret
0x1000b744 lcall ptr [edi + 0x5e] ; pop ebp ; pop ebx ; pop ecx ; ret
0x1000b7f9 ret
0x1000b7f8 pop ecx ; ret
0x1000b7f7 pop ebx ; pop ecx ; ret
0x1000b7f6 pop edi ; pop ebx ; pop ecx ; ret
0x1000b7f5 pop esi ; pop edi ; pop ebx ; pop ecx ; ret
0x1000b7f4 pop ebp ; pop esi ; pop edi ; pop ebx ; pop ecx ; ret
0x1000b7f3 test dword ptr [ebp + 0x5e], ebx ; pop edi ; pop ebx ; pop ecx ; ret
0x1000b7f2 jl 0xffffff87 ; pop ebp ; pop esi ; pop edi ; pop ebx ; pop ecx ; ret
0x1000b7f1 sbb byte ptr [ebp + eax*4 + 0x5d], bh ; pop esi ; pop edi ; pop ebx ; pop ecx ; ret
0x1000b7f0 and al, 0x18 ; jl 0xffffff89 ; pop ebp ; pop esi ; pop edi ; pop ebx ; pop ecx ; ret
0x1000b7ef push esp ; and al, 0x18 ; jl 0xffffff8a ; pop ebp ; pop esi ; pop edi ; pop ebx ; pop ecx ; ret
0x1000b810 ret
0x1000b80e add byte ptr [eax], dl ; ret
0x1000b808 add byte ptr [eax], al ; mov dword ptr [ecx], 0x1000b820 ; ret
0x1000b806 mov al, 1 ; add byte ptr [eax], al ; mov dword ptr [ecx], 0x1000b820 ; ret
0x1000b83a ret
0x1000b839 pop esi ; ret
0x1000b838 pop edi ; pop esi ; ret
0x1000b837 add byte ptr [edi + 0x5e], bl ; ret
0x1000b836 add byte ptr [eax], al ; pop edi ; pop esi ; ret
0x1000b835 add byte ptr [eax], al ; add byte ptr [edi + 0x5e], bl ; ret
0x1000b834 add al, byte ptr [eax] ; add byte ptr [eax], al ; pop edi ; pop esi ; ret
0x1000b833 mov eax, 2 ; pop edi ; pop esi ; ret
0x1000b832 or byte ptr [eax + 2], bh ; pop edi ; pop esi ; ret
0x1000b831 je 0xa ; mov eax, 2 ; pop edi ; pop esi ; ret
0x1000b830 sal byte ptr [eax + ecx - 0x48], 2 ; add byte ptr [eax], al ; add byte ptr [edi + 0x5e], bl ; ret
0x1000b88b ret
0x1000b889 add al, 0x8b ; ret
0x1000b888 les eax, ptr [ebx + ecx*4] ; ret
0x1000b882 add byte ptr [ebx - 0x7cef00fa], cl ; les eax, ptr [ebx + ecx*4] ; ret
0x1000b88f ret
0x1000b88e pop esi ; ret
0x1000b88d pop edi ; pop esi ; ret
0x1000b88c pop ebx ; pop edi ; pop esi ; ret
0x1000b88b ret ; pop ebx ; pop edi ; pop esi ; ret
0x1000b88a mov eax, ebx ; pop ebx ; pop edi ; pop esi ; ret
0x1000b889 add al, 0x8b ; ret ; pop ebx ; pop edi ; pop esi ; ret
0x1000b888 les eax, ptr [ebx + ecx*4] ; ret ; pop ebx ; pop edi ; pop esi ; ret
0x1000b887 add esp, 4 ; mov eax, ebx ; pop ebx ; pop edi ; pop esi ; ret
0x1000b886 adc byte ptr [ebx - 0x3c74fb3c], al ; pop ebx ; pop edi ; pop esi ; ret
0x1000b885 call dword ptr [eax] ; add esp, 4 ; mov eax, ebx ; pop ebx ; pop edi ; pop esi ; ret
0x1000b8a7 ret
0x1000b8a1 xchg byte ptr [eax - 0x75000000], bl ; ret
0x1000b89d enter 0x4a7e, -0x77 ; xchg byte ptr [eax - 0x75000000], bl ; ret
0x1000b8ab ret
0x1000b8aa pop esi ; ret
0x1000b8a9 pop edi ; pop esi ; ret
0x1000b8a8 pop ebx ; pop edi ; pop esi ; ret
0x1000b8a7 ret ; pop ebx ; pop edi ; pop esi ; ret
0x1000b8a6 mov eax, ebx ; pop ebx ; pop edi ; pop esi ; ret
0x1000b8a5 add byte ptr [ebx + 0x5e5f5bc3], cl ; ret
0x1000b8a4 add byte ptr [eax], al ; mov eax, ebx ; pop ebx ; pop edi ; pop esi ; ret
0x1000b8a3 add byte ptr [eax], al ; add byte ptr [ebx + 0x5e5f5bc3], cl ; ret
0x1000b8a2 cwde ; add byte ptr [eax], al ; add byte ptr [ebx + 0x5e5f5bc3], cl ; ret
0x1000b8a1 xchg byte ptr [eax - 0x75000000], bl ; ret ; pop ebx ; pop edi ; pop esi ; ret
0x1000b8bd ret
0x1000b8bb add al, 0x8b ; ret
0x1000b8ba les eax, ptr [ebx + ecx*4] ; ret
0x1000b8c8 ret
0x1000b8c7 pop esi ; ret
0x1000b8c6 pop edi ; pop esi ; ret
0x1000b8c5 pop ebx ; pop edi ; pop esi ; ret
0x1000b8c4 add byte ptr [ebx + 0x5f], bl ; pop esi ; ret
0x1000b8c3 add byte ptr [eax], al ; pop ebx ; pop edi ; pop esi ; ret
0x1000b8c2 add byte ptr [eax], al ; add byte ptr [ebx + 0x5f], bl ; pop esi ; ret
0x1000b8c1 add byte ptr [eax], al ; add byte ptr [eax], al ; pop ebx ; pop edi ; pop esi ; ret
0x1000b8c0 sbb byte ptr [eax], al ; add byte ptr [eax], al ; add byte ptr [ebx + 0x5f], bl ; pop esi ; ret
0x1000b8bf inc edi ; sbb byte ptr [eax], al ; add byte ptr [eax], al ; add byte ptr [ebx + 0x5f], bl ; pop esi ; ret
0x1000b8be mov dword ptr [edi + 0x18], 0 ; pop ebx ; pop edi ; pop esi ; ret
0x1000b8eb ret
0x1000b8e9 add al, 0x8b ; ret
0x1000b8e8 les eax, ptr [ebx + ecx*4] ; ret
0x1000b8e3 imul edi, esp, 0xc483ffff ; add al, 0x8b ; ret
0x1000b8ef ret
0x1000b8ee pop esi ; ret
0x1000b8ed pop edi ; pop esi ; ret
0x1000b8ec pop ebx ; pop edi ; pop esi ; ret
0x1000b8eb ret ; pop ebx ; pop edi ; pop esi ; ret
0x1000b8ea mov eax, ebx ; pop ebx ; pop edi ; pop esi ; ret
0x1000b8e9 add al, 0x8b ; ret ; pop ebx ; pop edi ; pop esi ; ret
0x1000b8e8 les eax, ptr [ebx + ecx*4] ; ret ; pop ebx ; pop edi ; pop esi ; ret
0x1000b8e7 add esp, 4 ; mov eax, ebx ; pop ebx ; pop edi ; pop esi ; ret
0x1000b8e6 inc dword ptr [ebx - 0x3c74fb3c] ; pop ebx ; pop edi ; pop esi ; ret
0x1000bad8 ret
0x1000bad7 pop ebx ; ret
0x1000bad6 pop ebp ; pop ebx ; ret
0x1000bad5 pop esi ; pop ebp ; pop ebx ; ret
0x1000bad4 pop edi ; pop esi ; pop ebp ; pop ebx ; ret
0x1000bad3 adc byte ptr [edi + 0x5e], bl ; pop ebp ; pop ebx ; ret
0x1000bad2 imul edx, dword ptr [eax], 0x5b5d5e5f ; ret
0x1000bad1 mov dword ptr [ecx + 0x10], ebp ; pop edi ; pop esi ; pop ebp ; pop ebx ; ret
0x1000bad0 add byte ptr [ecx + 0x5e5f1069], cl ; pop ebp ; pop ebx ; ret
0x1000bacf add byte ptr [eax], al ; mov dword ptr [ecx + 0x10], ebp ; pop edi ; pop esi ; pop ebp ; pop ebx ; ret
0x1000bace add dword ptr [eax], eax ; add byte ptr [ecx + 0x5e5f1069], cl ; pop ebp ; pop ebx ; ret
0x1000baea ret
0x1000bae9 pop ebx ; ret
0x1000bae7 add byte ptr [eax], al ; pop ebx ; ret
0x1000bae5 add dword ptr [eax], eax ; add byte ptr [eax], al ; pop ebx ; ret
0x1000bae2 mov dword ptr [edx + 0x10], 1 ; pop ebx ; ret
0x1000bae1 pop ebp ; mov dword ptr [edx + 0x10], 1 ; pop ebx ; ret
0x1000bae0 pop esi ; pop ebp ; mov dword ptr [edx + 0x10], 1 ; pop ebx ; ret
0x1000bb36 ret
0x1000bb35 pop esi ; ret
0x1000bb33 add byte ptr [eax], al ; pop esi ; ret
0x1000bb31 add byte ptr [eax], al ; add byte ptr [eax], al ; pop esi ; ret
0x1000bb2f add byte ptr [eax], al ; add byte ptr [eax], al ; add byte ptr [eax], al ; pop esi ; ret
0x1000bbd4 ret
0x1000bbd2 and al, 0x83 ; ret
0x1000bc09 ret
0x1000bc06 adc byte ptr [eax - 0x7d], al ; ret
0x1000bc03 and byte ptr [ebx - 0x7cbfef3c], al ; ret
0x1000bc02 dec esi ; and byte ptr [ebx - 0x7cbfef3c], al ; ret
0x1000bc00 sub byte ptr [ebx - 0x3b7cdfb2], cl ; adc byte ptr [eax - 0x7d], al ; ret
0x1000bc1a ret
0x1000bc19 pop ebx ; ret
0x1000bc18 pop ebp ; pop ebx ; ret
0x1000bc17 pop esi ; pop ebp ; pop ebx ; ret
0x1000bc16 pop edi ; pop esi ; pop ebp ; pop ebx ; ret
0x1000bc15 rcr byte ptr [edi + 0x5e], 0x5d ; pop ebx ; ret
0x1000bc14 jl 0xffffffc2 ; pop edi ; pop esi ; pop ebp ; pop ebx ; ret
0x1000bc13 sbb byte ptr [eax + eax*8 + 0x5f], bh ; pop esi ; pop ebp ; pop ebx ; ret
0x1000bc12 and al, 0x18 ; jl 0xffffffc4 ; pop edi ; pop esi ; pop ebp ; pop ebx ; ret
0x1000bc11 inc esp ; and al, 0x18 ; jl 0xffffffc5 ; pop edi ; pop esi ; pop ebp ; pop ebx ; ret
0x1000bc10 mov dword ptr [esp + 0x18], eax ; jl 0xffffffc6 ; pop edi ; pop esi ; pop ebp ; pop ebx ; ret
0x1000bccc ret
0x1000bcca les ecx, ptr [eax] ; ret
0x1000bcc9 add esp, 8 ; ret
0x1000bcc8 pop ebx ; add esp, 8 ; ret
0x1000bcc7 pop ebp ; pop ebx ; add esp, 8 ; ret
0x1000bcc6 pop esi ; pop ebp ; pop ebx ; add esp, 8 ; ret
0x1000bcc5 pop edi ; pop esi ; pop ebp ; pop ebx ; add esp, 8 ; ret
0x1000bcc4 lodsd eax, dword ptr [esi] ; pop edi ; pop esi ; pop ebp ; pop ebx ; add esp, 8 ; ret
0x1000bcc3 jl 0xffffffaf ; pop edi ; pop esi ; pop ebp ; pop ebx ; add esp, 8 ; ret
0x1000bcc2 fdivr dword ptr [ebp + ebp*4 + 0x5f] ; pop esi ; pop ebp ; pop ebx ; add esp, 8 ; ret
0x1000bcfe ret
0x1000bcfd pop esi ; ret
0x1000bcfc pop edi ; pop esi ; ret
0x1000bcfb add al, 0x5f ; pop esi ; ret
0x1000bcfa les eax, ptr [edi + ebx*2] ; pop esi ; ret
0x1000bcf9 add esp, 4 ; pop edi ; pop esi ; ret
0x1000bcf8 adc al, byte ptr [ebx + 0x5e5f04c4] ; ret
0x1000bcf7 call dword ptr [edx] ; add esp, 4 ; pop edi ; pop esi ; ret
0x1000bcf6 adc bh, bh ; adc al, byte ptr [ebx + 0x5e5f04c4] ; ret
0x1000bcf5 mov edx, dword ptr [eax] ; call dword ptr [edx] ; add esp, 4 ; pop edi ; pop esi ; ret
0x1000bcf4 add byte ptr [ebx - 0x7ced00f0], cl ; les eax, ptr [edi + ebx*2] ; pop esi ; ret
0x1000bd08 ret
0x1000bd07 pop esi ; ret
0x1000bd06 pop edi ; pop esi ; ret
0x1000bd05 adc byte ptr [edi + 0x5e], bl ; ret
0x1000bd04 add byte ptr [eax], dl ; pop edi ; pop esi ; ret
0x1000bd03 ret 0x1000 ; pop edi ; pop esi ; ret
0x1000bd02 inc eax ; ret 0x1000 ; pop edi ; pop esi ; ret
0x1000bd01 add al, 0x40 ; ret 0x1000 ; pop edi ; pop esi ; ret
0x1000bd00 inc esi ; add al, 0x40 ; ret 0x1000 ; pop edi ; pop esi ; ret
0x1000bcff mov dword ptr [esi + 4], 0x1000c240 ; pop edi ; pop esi ; ret
0x1000bcfe ret ; mov dword ptr [esi + 4], 0x1000c240 ; pop edi ; pop esi ; ret
0x1000bd35 ret
0x1000bd34 pop esi ; ret
0x1000bd33 pop edi ; pop esi ; ret
0x1000bd32 xor al, 0x5f ; pop esi ; ret
0x1000bd31 jle 0x36 ; pop edi ; pop esi ; ret
0x1000bd30 mov dword ptr [esi + 0x34], edi ; pop edi ; pop esi ; ret
0x1000bd2f xor byte ptr [ecx + 0x5e5f347e], cl ; ret
0x1000bd2e jle 0x32 ; mov dword ptr [esi + 0x34], edi ; pop edi ; pop esi ; ret
0x1000bd2d mov dword ptr [esi + 0x30], edi ; mov dword ptr [esi + 0x34], edi ; pop edi ; pop esi ; ret
0x1000bd2c dec esp ; mov dword ptr [esi + 0x30], edi ; mov dword ptr [esi + 0x34], edi ; pop edi ; pop esi ; ret
0x1000bd2b jle 0x4e ; mov dword ptr [esi + 0x30], edi ; mov dword ptr [esi + 0x34], edi ; pop edi ; pop esi ; ret
0x1000bd45 ret
0x1000bd44 pop esi ; ret
0x1000bd43 pop edi ; pop esi ; ret
0x1000bd42 adc byte ptr [edi + 0x5e], bl ; ret
0x1000bd41 add byte ptr [eax], dl ; pop edi ; pop esi ; ret
0x1000bd40 mov esi, 0x5e5f1000 ; ret
0x1000bd3f mov al, 0xbe ; add byte ptr [eax], dl ; pop edi ; pop esi ; ret
0x1000bd3e add al, 0xb0 ; mov esi, 0x5e5f1000 ; ret
0x1000bd3d inc esi ; add al, 0xb0 ; mov esi, 0x5e5f1000 ; ret
0x1000bd3c mov dword ptr [esi + 4], 0x1000beb0 ; pop edi ; pop esi ; ret
0x1000bd3b xor al, 0xc7 ; inc esi ; add al, 0xb0 ; mov esi, 0x5e5f1000 ; ret
0x1000bea3 ret
0x1000bea0 add esp, 0x24 ; ret
0x1000be9f pop ebp ; add esp, 0x24 ; ret
0x1000be9e pop esi ; pop ebp ; add esp, 0x24 ; ret
0x1000be9d pop edi ; pop esi ; pop ebp ; add esp, 0x24 ; ret
0x1000be9c pop ebx ; pop edi ; pop esi ; pop ebp ; add esp, 0x24 ; ret
0x1000be9b lcall ptr [ebx + 0x5f] ; pop esi ; pop ebp ; add esp, 0x24 ; ret
0x1000bf23 ret
0x1000bf22 pop ebx ; ret
0x1000bf21 pop ebp ; pop ebx ; ret
0x1000bf20 pop esi ; pop ebp ; pop ebx ; ret
0x1000bf1f pop edi ; pop esi ; pop ebp ; pop ebx ; ret
0x1000bf1e add byte ptr [edi + 0x5e], bl ; pop ebp ; pop ebx ; ret
0x1000bf1d add byte ptr [eax], al ; pop edi ; pop esi ; pop ebp ; pop ebx ; ret
0x1000bf1c add byte ptr [eax], al ; add byte ptr [edi + 0x5e], bl ; pop ebp ; pop ebx ; ret
0x1000bf1b add byte ptr [eax], al ; add byte ptr [eax], al ; pop edi ; pop esi ; pop ebp ; pop ebx ; ret
0x1000bf1a add eax, dword ptr [eax] ; add byte ptr [eax], al ; add byte ptr [edi + 0x5e], bl ; pop ebp ; pop ebx ; ret
0x1000bf19 mov dword ptr [ebx], 0 ; pop edi ; pop esi ; pop ebp ; pop ebx ; ret
0x1000c071 ret
0x1000c070 pop ebx ; ret
0x1000c06f pop ebp ; pop ebx ; ret
0x1000c06e pop esi ; pop ebp ; pop ebx ; ret
0x1000c06d pop edi ; pop esi ; pop ebp ; pop ebx ; ret
0x1000c06c dec eax ; pop edi ; pop esi ; pop ebp ; pop ebx ; ret
0x1000c06b dec esi ; dec eax ; pop edi ; pop esi ; pop ebp ; pop ebx ; ret
0x1000c06a mov dword ptr [esi + 0x48], ecx ; pop edi ; pop esi ; pop ebp ; pop ebx ; ret
0x1000c069 add byte ptr [ecx + 0x5e5f484e], cl ; pop ebp ; pop ebx ; ret
0x1000c068 add byte ptr [eax], al ; mov dword ptr [esi + 0x48], ecx ; pop edi ; pop esi ; pop ebp ; pop ebx ; ret
0x1000c067 add byte ptr [eax], al ; add byte ptr [ecx + 0x5e5f484e], cl ; pop ebp ; pop ebx ; ret
0x1000c136 ret
0x1000c148 ret
0x1000c146 add al, 0x83 ; ret
0x1000c140 sbb byte ptr [ebp - 0x3e7cf1fc], cl ; add al, 0x83 ; ret
0x1000c193 ret
0x1000c191 les esp, ptr [eax] ; ret
0x1000c190 add esp, 0x20 ; ret
0x1000c18f pop ebp ; add esp, 0x20 ; ret
0x1000c18e pop edi ; pop ebp ; add esp, 0x20 ; ret
0x1000c18d pop esi ; pop edi ; pop ebp ; add esp, 0x20 ; ret
0x1000c18c pop ebx ; pop esi ; pop edi ; pop ebp ; add esp, 0x20 ; ret
0x1000c18b lcall ptr [ebx + 0x5e] ; pop edi ; pop ebp ; add esp, 0x20 ; ret
0x1000c1c3 ret
0x1000c22c ret
0x1000c229 sbb byte ptr [ebp - 0x7d], al ; ret
0x1000c238 ret
0x1000c237 pop ecx ; ret
0x1000c236 pop ebx ; pop ecx ; ret
0x1000c235 pop ebp ; pop ebx ; pop ecx ; ret
0x1000c234 pop esi ; pop ebp ; pop ebx ; pop ecx ; ret
0x1000c233 pop edi ; pop esi ; pop ebp ; pop ebx ; pop ecx ; ret
0x1000c232 xchg eax, esp ; pop edi ; pop esi ; pop ebp ; pop ebx ; pop ecx ; ret
0x1000c231 jl 0xffffff96 ; pop edi ; pop esi ; pop ebp ; pop ebx ; pop ecx ; ret
0x1000c230 and byte ptr [esp + edx*4 + 0x5f], bh ; pop esi ; pop ebp ; pop ebx ; pop ecx ; ret
0x1000c22f imul esp, dword ptr [eax], 0x5e5f947c ; pop ebp ; pop ebx ; pop ecx ; ret
0x1000c22e cmp ebp, dword ptr [ecx + 0x20] ; jl 0xffffff99 ; pop edi ; pop esi ; pop ebp ; pop ebx ; pop ecx ; ret
0x1000c266 ret
0x1000c263 add esp, 0x1c ; ret
0x1000c260 call dword ptr [ecx + 4] ; add esp, 0x1c ; ret
0x1000c25f push eax ; call dword ptr [ecx + 4] ; add esp, 0x1c ; ret
0x1000c25d push 0 ; push eax ; call dword ptr [ecx + 4] ; add esp, 0x1c ; ret
0x1000c25c add byte ptr [edx], ch ; push eax ; call dword ptr [ecx + 4] ; add esp, 0x1c ; ret
0x1000c35b ret
0x1000c35a pop ebx ; ret
0x1000c359 pop ebp ; pop ebx ; ret
0x1000c358 pop esi ; pop ebp ; pop ebx ; ret
0x1000c357 pop edi ; pop esi ; pop ebp ; pop ebx ; ret
0x1000c356 rcr byte ptr [edi + 0x5e], 0x5d ; pop ebx ; ret
0x1000c355 xor eax, eax ; pop edi ; pop esi ; pop ebp ; pop ebx ; ret
0x1000c354 push dword ptr [ebx] ; rcr byte ptr [edi + 0x5e], 0x5d ; pop ebx ; ret
0x1000c36f ret
0x1000c36e pop ebx ; ret
0x1000c36c add byte ptr [eax], al ; pop ebx ; ret
0x1000c36a add dword ptr [eax], eax ; add byte ptr [eax], al ; pop ebx ; ret
0x1000c369 mov eax, 1 ; pop ebx ; ret
0x1000c368 pop ebp ; mov eax, 1 ; pop ebx ; ret
0x1000c367 pop esi ; pop ebp ; mov eax, 1 ; pop ebx ; ret
0x1000c366 pop edi ; pop esi ; pop ebp ; mov eax, 1 ; pop ebx ; ret
0x1000c365 add byte ptr [edi + 0x5e], bl ; pop ebp ; mov eax, 1 ; pop ebx ; ret
0x1000c42d ret
0x1000c42c pop ebx ; ret
0x1000c42b pop ebp ; pop ebx ; ret
0x1000c42a pop esi ; pop ebp ; pop ebx ; ret
0x1000c429 pop edi ; pop esi ; pop ebp ; pop ebx ; ret
0x1000c428 rcr byte ptr [edi + 0x5e], 0x5d ; pop ebx ; ret
0x1000c427 xor eax, eax ; pop edi ; pop esi ; pop ebp ; pop ebx ; ret
0x1000c426 push dword ptr [ebx] ; rcr byte ptr [edi + 0x5e], 0x5d ; pop ebx ; ret
0x1000c48b ret
0x1000c48a pop ebx ; ret
0x1000c488 add byte ptr [eax], al ; pop ebx ; ret
0x1000c486 add dword ptr [eax], eax ; add byte ptr [eax], al ; pop ebx ; ret
0x1000c485 mov eax, 1 ; pop ebx ; ret
0x1000c484 pop ebp ; mov eax, 1 ; pop ebx ; ret
0x1000c483 pop esi ; pop ebp ; mov eax, 1 ; pop ebx ; ret
0x1000c482 pop edi ; pop esi ; pop ebp ; mov eax, 1 ; pop ebx ; ret
0x1000c481 add al, 0x5f ; pop esi ; pop ebp ; mov eax, 1 ; pop ebx ; ret
0x1000c514 ret
0x1000c513 pop esi ; ret
0x1000c512 add al, 0x5e ; ret
0x1000c511 les eax, ptr [esi + ebx*2] ; ret
0x1000c510 add esp, 4 ; pop esi ; ret
0x1000c50e add byte ptr [eax], al ; add esp, 4 ; pop esi ; ret
0x1000c50b call 0x1985 ; add esp, 4 ; pop esi ; ret
0x1000c631 ret
0x1000c7c3 ret
0x1000c7c0 add esp, 0x1c ; ret
0x1000c7bf pop ebx ; add esp, 0x1c ; ret
0x1000c7be pop ebp ; pop ebx ; add esp, 0x1c ; ret
0x1000c7bd pop esi ; pop ebp ; pop ebx ; add esp, 0x1c ; ret
0x1000c7bc pop edi ; pop esi ; pop ebp ; pop ebx ; add esp, 0x1c ; ret
0x1000c7bb add byte ptr [edi + 0x5e], bl ; pop ebp ; pop ebx ; add esp, 0x1c ; ret
0x1000c7ba add byte ptr [eax], al ; pop edi ; pop esi ; pop ebp ; pop ebx ; add esp, 0x1c ; ret
0x1000c7b9 add byte ptr [eax], al ; add byte ptr [edi + 0x5e], bl ; pop ebp ; pop ebx ; add esp, 0x1c ; ret
0x1000c7cd ret
0x1000c7ca add esp, 0x1c ; ret
0x1000c7c9 pop ebx ; add esp, 0x1c ; ret
0x1000c7c7 xor eax, eax ; pop ebx ; add esp, 0x1c ; ret
0x1000c7c6 pop ebp ; xor eax, eax ; pop ebx ; add esp, 0x1c ; ret
0x1000c7c5 pop esi ; pop ebp ; xor eax, eax ; pop ebx ; add esp, 0x1c ; ret
0x1000c7c4 pop edi ; pop esi ; pop ebp ; xor eax, eax ; pop ebx ; add esp, 0x1c ; ret
0x1000c7c3 ret ; pop edi ; pop esi ; pop ebp ; xor eax, eax ; pop ebx ; add esp, 0x1c ; ret
0x1000c9a7 ret
0x1000c9a4 add esp, 0x14 ; ret
0x1000c9a3 pop ebx ; add esp, 0x14 ; ret
0x1000c9a2 pop ebp ; pop ebx ; add esp, 0x14 ; ret
0x1000c9a1 pop esi ; pop ebp ; pop ebx ; add esp, 0x14 ; ret
0x1000c9a0 pop edi ; pop esi ; pop ebp ; pop ebx ; add esp, 0x14 ; ret
0x1000c99f add byte ptr [edi + 0x5e], bl ; pop ebp ; pop ebx ; add esp, 0x14 ; ret
0x1000c99e add byte ptr [eax], al ; pop edi ; pop esi ; pop ebp ; pop ebx ; add esp, 0x14 ; ret
0x1000c99d add byte ptr [eax], al ; add byte ptr [edi + 0x5e], bl ; pop ebp ; pop ebx ; add esp, 0x14 ; ret
0x1000c9b1 ret
0x1000c9ae add esp, 0x14 ; ret
0x1000c9ad pop ebx ; add esp, 0x14 ; ret
0x1000c9ab xor eax, eax ; pop ebx ; add esp, 0x14 ; ret
0x1000c9aa pop ebp ; xor eax, eax ; pop ebx ; add esp, 0x14 ; ret
0x1000c9a9 pop esi ; pop ebp ; xor eax, eax ; pop ebx ; add esp, 0x14 ; ret
0x1000c9a8 pop edi ; pop esi ; pop ebp ; xor eax, eax ; pop ebx ; add esp, 0x14 ; ret
0x1000c9a7 ret ; pop edi ; pop esi ; pop ebp ; xor eax, eax ; pop ebx ; add esp, 0x14 ; ret
0x1000ca5c ret
0x1000ca5b pop ebx ; ret
0x1000ca5a pop ebp ; pop ebx ; ret
0x1000ca59 pop esi ; pop ebp ; pop ebx ; ret
0x1000ca58 pop edi ; pop esi ; pop ebp ; pop ebx ; ret
0x1000ca57 add byte ptr [edi + 0x5e], bl ; pop ebp ; pop ebx ; ret
0x1000ca56 add byte ptr [eax], al ; pop edi ; pop esi ; pop ebp ; pop ebx ; ret
0x1000ca55 add byte ptr [eax], al ; add byte ptr [edi + 0x5e], bl ; pop ebp ; pop ebx ; ret
0x1000ca54 add dword ptr [eax], eax ; add byte ptr [eax], al ; pop edi ; pop esi ; pop ebp ; pop ebx ; ret
0x1000ca53 mov eax, 1 ; pop edi ; pop esi ; pop ebp ; pop ebx ; ret
0x1000ca52 or byte ptr [eax + 1], bh ; pop edi ; pop esi ; pop ebp ; pop ebx ; ret
0x1000ca63 ret
0x1000ca62 pop ebx ; ret
0x1000ca60 xor eax, eax ; pop ebx ; ret
0x1000ca5f pop ebp ; xor eax, eax ; pop ebx ; ret
0x1000ca5e pop esi ; pop ebp ; xor eax, eax ; pop ebx ; ret
0x1000ca5d pop edi ; pop esi ; pop ebp ; xor eax, eax ; pop ebx ; ret
0x1000ca5c ret ; pop edi ; pop esi ; pop ebp ; xor eax, eax ; pop ebx ; ret
0x1000ca5b pop ebx ; ret ; pop edi ; pop esi ; pop ebp ; xor eax, eax ; pop ebx ; ret
0x1000ca5a pop ebp ; pop ebx ; ret ; pop edi ; pop esi ; pop ebp ; xor eax, eax ; pop ebx ; ret
0x1000ca59 pop esi ; pop ebp ; pop ebx ; ret ; pop edi ; pop esi ; pop ebp ; xor eax, eax ; pop ebx ; ret
0x1000ca99 ret
0x1000ca97 adc ch, al ; ret
0x1000cc7b ret
0x1000cc7a pop ebx ; ret
0x1000cc79 pop ebp ; pop ebx ; ret
0x1000cc78 pop esi ; pop ebp ; pop ebx ; ret
0x1000cc77 pop edi ; pop esi ; pop ebp ; pop ebx ; ret
0x1000cc76 add byte ptr [edi + 0x5e], bl ; pop ebp ; pop ebx ; ret
0x1000cc75 add byte ptr [eax], al ; pop edi ; pop esi ; pop ebp ; pop ebx ; ret
0x1000cc74 add byte ptr [eax], al ; add byte ptr [edi + 0x5e], bl ; pop ebp ; pop ebx ; ret
0x1000cc73 add dword ptr [eax], eax ; add byte ptr [eax], al ; pop edi ; pop esi ; pop ebp ; pop ebx ; ret
0x1000cc72 mov eax, 1 ; pop edi ; pop esi ; pop ebp ; pop ebx ; ret
0x1000cc71 add byte ptr [eax + 1], bh ; pop edi ; pop esi ; pop ebp ; pop ebx ; ret
0x1000cc9f ret
0x1000cc9e pop ebx ; ret
0x1000cc9d pop ebp ; pop ebx ; ret
0x1000cc9c pop esi ; pop ebp ; pop ebx ; ret
0x1000cc9b pop edi ; pop esi ; pop ebp ; pop ebx ; ret
0x1000cc9a add byte ptr [edi + 0x5e], bl ; pop ebp ; pop ebx ; ret
0x1000cc99 add byte ptr [eax], al ; pop edi ; pop esi ; pop ebp ; pop ebx ; ret
0x1000cc98 add byte ptr [eax], al ; add byte ptr [edi + 0x5e], bl ; pop ebp ; pop ebx ; ret
0x1000cc97 add al, byte ptr [eax] ; add byte ptr [eax], al ; pop edi ; pop esi ; pop ebp ; pop ebx ; ret
0x1000cc96 mov eax, 2 ; pop edi ; pop esi ; pop ebp ; pop ebx ; ret
0x1000cc95 add byte ptr [eax + 2], bh ; pop edi ; pop esi ; pop ebp ; pop ebx ; ret
0x1000cca6 ret
0x1000cca5 pop ebx ; ret
0x1000cca3 xor eax, eax ; pop ebx ; ret
0x1000cca2 pop ebp ; xor eax, eax ; pop ebx ; ret
0x1000cca1 pop esi ; pop ebp ; xor eax, eax ; pop ebx ; ret
0x1000cca0 pop edi ; pop esi ; pop ebp ; xor eax, eax ; pop ebx ; ret
0x1000cc9f ret ; pop edi ; pop esi ; pop ebp ; xor eax, eax ; pop ebx ; ret
0x1000cc9e pop ebx ; ret ; pop edi ; pop esi ; pop ebp ; xor eax, eax ; pop ebx ; ret
0x1000cc9d pop ebp ; pop ebx ; ret ; pop edi ; pop esi ; pop ebp ; xor eax, eax ; pop ebx ; ret
0x1000cc9c pop esi ; pop ebp ; pop ebx ; ret ; pop edi ; pop esi ; pop ebp ; xor eax, eax ; pop ebx ; ret
0x1000cea8 ret
0x1000cea7 pop ebx ; ret
0x1000cea5 add byte ptr [eax], al ; pop ebx ; ret
0x1000cea3 add dword ptr [eax], eax ; add byte ptr [eax], al ; pop ebx ; ret
0x1000cea2 mov eax, 1 ; pop ebx ; ret
0x1000cea1 add byte ptr [eax + 1], bh ; pop ebx ; ret
0x1000cea0 add byte ptr [eax], al ; mov eax, 1 ; pop ebx ; ret
0x1000ce9f add byte ptr [eax], al ; add byte ptr [eax + 1], bh ; pop ebx ; ret
0x1000ce9e add dword ptr [eax], eax ; add byte ptr [eax], al ; mov eax, 1 ; pop ebx ; ret
0x1000d1c4 ret
0x1000d1c3 pop ecx ; ret
0x1000d1c2 pop ebx ; pop ecx ; ret
0x1000d1c1 pop ebp ; pop ebx ; pop ecx ; ret
0x1000d1c0 pop esi ; pop ebp ; pop ebx ; pop ecx ; ret
0x1000d1bf pop edi ; pop esi ; pop ebp ; pop ebx ; pop ecx ; ret
0x1000d1be add byte ptr [edi + 0x5e], bl ; pop ebp ; pop ebx ; pop ecx ; ret
0x1000d1bd add byte ptr [eax], al ; pop edi ; pop esi ; pop ebp ; pop ebx ; pop ecx ; ret
0x1000d1bc add byte ptr [eax], al ; add byte ptr [edi + 0x5e], bl ; pop ebp ; pop ebx ; pop ecx ; ret
0x1000d1bb add dword ptr [eax], eax ; add byte ptr [eax], al ; pop edi ; pop esi ; pop ebp ; pop ebx ; pop ecx ; ret
0x1000d1ba mov eax, 1 ; pop edi ; pop esi ; pop ebp ; pop ebx ; pop ecx ; ret
0x1000d1cc ret
0x1000d1cb pop ecx ; ret
0x1000d1ca pop ebx ; pop ecx ; ret
0x1000d1c8 xor eax, eax ; pop ebx ; pop ecx ; ret
0x1000d1c7 pop ebp ; xor eax, eax ; pop ebx ; pop ecx ; ret
0x1000d1c6 pop esi ; pop ebp ; xor eax, eax ; pop ebx ; pop ecx ; ret
0x1000d1c5 pop edi ; pop esi ; pop ebp ; xor eax, eax ; pop ebx ; pop ecx ; ret
0x1000d1c4 ret ; pop edi ; pop esi ; pop ebp ; xor eax, eax ; pop ebx ; pop ecx ; ret
0x1000d1c3 pop ecx ; ret ; pop edi ; pop esi ; pop ebp ; xor eax, eax ; pop ebx ; pop ecx ; ret
0x1000d1c2 pop ebx ; pop ecx ; ret ; pop edi ; pop esi ; pop ebp ; xor eax, eax ; pop ebx ; pop ecx ; ret
0x1000d4dd ret
0x1000d4da add esp, 0x14 ; ret
0x1000d4d9 pop ebx ; add esp, 0x14 ; ret
0x1000d4d8 pop ebp ; pop ebx ; add esp, 0x14 ; ret
0x1000d4d7 pop esi ; pop ebp ; pop ebx ; add esp, 0x14 ; ret
0x1000d4d6 pop edi ; pop esi ; pop ebp ; pop ebx ; add esp, 0x14 ; ret
0x1000d4d5 add byte ptr [edi + 0x5e], bl ; pop ebp ; pop ebx ; add esp, 0x14 ; ret
0x1000d4d4 add byte ptr [eax], al ; pop edi ; pop esi ; pop ebp ; pop ebx ; add esp, 0x14 ; ret
0x1000d4d3 add byte ptr [eax], al ; add byte ptr [edi + 0x5e], bl ; pop ebp ; pop ebx ; add esp, 0x14 ; ret
0x1000d4e7 ret
0x1000d4e4 add esp, 0x14 ; ret
0x1000d4e3 pop ebx ; add esp, 0x14 ; ret
0x1000d4e1 xor eax, eax ; pop ebx ; add esp, 0x14 ; ret
0x1000d4e0 pop ebp ; xor eax, eax ; pop ebx ; add esp, 0x14 ; ret
0x1000d4df pop esi ; pop ebp ; xor eax, eax ; pop ebx ; add esp, 0x14 ; ret
0x1000d4de pop edi ; pop esi ; pop ebp ; xor eax, eax ; pop ebx ; add esp, 0x14 ; ret
0x1000d4dd ret ; pop edi ; pop esi ; pop ebp ; xor eax, eax ; pop ebx ; add esp, 0x14 ; ret
0x1000d60b ret
0x1000d664 ret
0x1000d662 les ecx, ptr [eax] ; ret
0x1000d661 add esp, 8 ; ret
0x1000d660 pop ebx ; add esp, 8 ; ret
0x1000d65f pop ebp ; pop ebx ; add esp, 8 ; ret
0x1000d65e pop esi ; pop ebp ; pop ebx ; add esp, 8 ; ret
0x1000d65d pop edi ; pop esi ; pop ebp ; pop ebx ; add esp, 8 ; ret
0x1000d65c add byte ptr [edi + 0x5e], bl ; pop ebp ; pop ebx ; add esp, 8 ; ret
0x1000d65b add byte ptr [eax], al ; pop edi ; pop esi ; pop ebp ; pop ebx ; add esp, 8 ; ret
0x1000d65a add byte ptr [eax], al ; add byte ptr [edi + 0x5e], bl ; pop ebp ; pop ebx ; add esp, 8 ; ret
0x1000d66e ret
0x1000d66c les ecx, ptr [eax] ; ret
0x1000d66b add esp, 8 ; ret
0x1000d66a pop ebx ; add esp, 8 ; ret
0x1000d669 pop ebp ; pop ebx ; add esp, 8 ; ret
0x1000d668 pop esi ; pop ebp ; pop ebx ; add esp, 8 ; ret
0x1000d667 pop edi ; pop esi ; pop ebp ; pop ebx ; add esp, 8 ; ret
0x1000d666 rcr byte ptr [edi + 0x5e], 0x5d ; pop ebx ; add esp, 8 ; ret
0x1000d665 xor eax, eax ; pop edi ; pop esi ; pop ebp ; pop ebx ; add esp, 8 ; ret
0x1000d664 ret ; xor eax, eax ; pop edi ; pop esi ; pop ebp ; pop ebx ; add esp, 8 ; ret
0x1000d680 ret
0x1000d67e les ecx, ptr [eax] ; ret
0x1000d67d add esp, 8 ; ret
0x1000d67c pop ebx ; add esp, 8 ; ret
0x1000d67b add byte ptr [ebx - 0x7d], bl ; les ecx, ptr [eax] ; ret
0x1000d67a add byte ptr [eax], al ; pop ebx ; add esp, 8 ; ret
0x1000d679 add byte ptr [eax], al ; add byte ptr [ebx - 0x7d], bl ; les ecx, ptr [eax] ; ret
0x1000d678 add dword ptr [eax], eax ; add byte ptr [eax], al ; pop ebx ; add esp, 8 ; ret
0x1000d677 mov eax, 1 ; pop ebx ; add esp, 8 ; ret
0x1000d676 pop ebp ; mov eax, 1 ; pop ebx ; add esp, 8 ; ret
0x1000d927 ret
0x1000d9db ret
0x1000d9d9 add byte ptr [eax], al ; ret
0x1000d9d7 and al, 1 ; add byte ptr [eax], al ; ret
0x1000d9d6 les esp, ptr [ecx + eax] ; add byte ptr [eax], al ; ret
0x1000d9d5 add esp, 0x124 ; ret
0x1000d9d4 pop ebx ; add esp, 0x124 ; ret
0x1000d9d3 pop ebp ; pop ebx ; add esp, 0x124 ; ret
0x1000d9d2 pop esi ; pop ebp ; pop ebx ; add esp, 0x124 ; ret
0x1000d9d1 pop edi ; pop esi ; pop ebp ; pop ebx ; add esp, 0x124 ; ret
0x1000d9e8 ret
0x1000d9e6 add byte ptr [eax], al ; ret
0x1000d9e4 and al, 1 ; add byte ptr [eax], al ; ret
0x1000d9e3 les esp, ptr [ecx + eax] ; add byte ptr [eax], al ; ret
0x1000d9e2 add esp, 0x124 ; ret
0x1000d9e1 pop ebx ; add esp, 0x124 ; ret
0x1000d9e0 rcr byte ptr [ebx - 0x7f], 0xc4 ; and al, 1 ; add byte ptr [eax], al ; ret
0x1000d9df xor eax, eax ; pop ebx ; add esp, 0x124 ; ret
0x1000d9de pop ebp ; xor eax, eax ; pop ebx ; add esp, 0x124 ; ret
0x1000dc50 ret
0x1000dc4e les ebx, ptr [eax] ; ret
0x1000dc4d add esp, 0x18 ; ret
0x1000dc4c pop ebx ; add esp, 0x18 ; ret
0x1000dc4b pop ebp ; pop ebx ; add esp, 0x18 ; ret
0x1000dc4a pop esi ; pop ebp ; pop ebx ; add esp, 0x18 ; ret
0x1000dc49 pop edi ; pop esi ; pop ebp ; pop ebx ; add esp, 0x18 ; ret
0x1000dc48 add byte ptr [edi + 0x5e], bl ; pop ebp ; pop ebx ; add esp, 0x18 ; ret
0x1000dc47 add byte ptr [eax], al ; pop edi ; pop esi ; pop ebp ; pop ebx ; add esp, 0x18 ; ret
0x1000dc46 add byte ptr [eax], al ; add byte ptr [edi + 0x5e], bl ; pop ebp ; pop ebx ; add esp, 0x18 ; ret
0x1000dc5a ret
0x1000dc58 les ebx, ptr [eax] ; ret
0x1000dc57 add esp, 0x18 ; ret
0x1000dc56 pop ebx ; add esp, 0x18 ; ret
0x1000dc55 pop ebp ; pop ebx ; add esp, 0x18 ; ret
0x1000dc54 pop esi ; pop ebp ; pop ebx ; add esp, 0x18 ; ret
0x1000dc53 pop edi ; pop esi ; pop ebp ; pop ebx ; add esp, 0x18 ; ret
0x1000dc52 rcr byte ptr [edi + 0x5e], 0x5d ; pop ebx ; add esp, 0x18 ; ret
0x1000dc51 xor eax, eax ; pop edi ; pop esi ; pop ebp ; pop ebx ; add esp, 0x18 ; ret
0x1000dc50 ret ; xor eax, eax ; pop edi ; pop esi ; pop ebp ; pop ebx ; add esp, 0x18 ; ret
0x1000dc6c ret
0x1000dc6a les ebx, ptr [eax] ; ret
0x1000dc69 add esp, 0x18 ; ret
0x1000dc68 pop ebx ; add esp, 0x18 ; ret
0x1000dc67 add byte ptr [ebx - 0x7d], bl ; les ebx, ptr [eax] ; ret
0x1000dc66 add byte ptr [eax], al ; pop ebx ; add esp, 0x18 ; ret
0x1000dc65 add byte ptr [eax], al ; add byte ptr [ebx - 0x7d], bl ; les ebx, ptr [eax] ; ret
0x1000dc64 add dword ptr [eax], eax ; add byte ptr [eax], al ; pop ebx ; add esp, 0x18 ; ret
0x1000dc63 mov eax, 1 ; pop ebx ; add esp, 0x18 ; ret
0x1000dc62 pop ebp ; mov eax, 1 ; pop ebx ; add esp, 0x18 ; ret
0x1000dd58 ret
0x1000dd57 pop ebx ; ret
0x1000dd56 pop ebp ; pop ebx ; ret
0x1000dd55 pop esi ; pop ebp ; pop ebx ; ret
0x1000dd54 pop edi ; pop esi ; pop ebp ; pop ebx ; ret
0x1000dd53 add byte ptr [edi + 0x5e], bl ; pop ebp ; pop ebx ; ret
0x1000dd52 add byte ptr [eax], al ; pop edi ; pop esi ; pop ebp ; pop ebx ; ret
0x1000dd51 add byte ptr [eax], al ; add byte ptr [edi + 0x5e], bl ; pop ebp ; pop ebx ; ret
0x1000dd50 add dword ptr [eax], eax ; add byte ptr [eax], al ; pop edi ; pop esi ; pop ebp ; pop ebx ; ret
0x1000dd4f mov eax, 1 ; pop edi ; pop esi ; pop ebp ; pop ebx ; ret
0x1000dd4e add al, 0xb8 ; add dword ptr [eax], eax ; add byte ptr [eax], al ; pop edi ; pop esi ; pop ebp ; pop ebx ; ret
0x1000dd5f ret
0x1000dd5e pop ebx ; ret
0x1000dd5c xor eax, eax ; pop ebx ; ret
0x1000dd5b pop ebp ; xor eax, eax ; pop ebx ; ret
0x1000dd5a pop esi ; pop ebp ; xor eax, eax ; pop ebx ; ret
0x1000dd59 pop edi ; pop esi ; pop ebp ; xor eax, eax ; pop ebx ; ret
0x1000dd58 ret ; pop edi ; pop esi ; pop ebp ; xor eax, eax ; pop ebx ; ret
0x1000dd57 pop ebx ; ret ; pop edi ; pop esi ; pop ebp ; xor eax, eax ; pop ebx ; ret
0x1000dd56 pop ebp ; pop ebx ; ret ; pop edi ; pop esi ; pop ebp ; xor eax, eax ; pop ebx ; ret
0x1000dd55 pop esi ; pop ebp ; pop ebx ; ret ; pop edi ; pop esi ; pop ebp ; xor eax, eax ; pop ebx ; ret
0x1000ddf6 ret
0x1000ddf5 pop ebx ; ret
0x1000ddf4 pop ebp ; pop ebx ; ret
0x1000ddf3 pop esi ; pop ebp ; pop ebx ; ret
0x1000ddf2 pop edi ; pop esi ; pop ebp ; pop ebx ; ret
0x1000ddf1 add byte ptr [edi + 0x5e], bl ; pop ebp ; pop ebx ; ret
0x1000ddf0 add byte ptr [eax], al ; pop edi ; pop esi ; pop ebp ; pop ebx ; ret
0x1000ddef add byte ptr [eax], al ; add byte ptr [edi + 0x5e], bl ; pop ebp ; pop ebx ; ret
0x1000ddee add dword ptr [eax], eax ; add byte ptr [eax], al ; pop edi ; pop esi ; pop ebp ; pop ebx ; ret
0x1000dded mov eax, 1 ; pop edi ; pop esi ; pop ebp ; pop ebx ; ret
0x1000ddec add al, 0xb8 ; add dword ptr [eax], eax ; add byte ptr [eax], al ; pop edi ; pop esi ; pop ebp ; pop ebx ; ret
0x1000ddfd ret
0x1000ddfc pop ebx ; ret
0x1000ddfa xor eax, eax ; pop ebx ; ret
0x1000ddf9 pop ebp ; xor eax, eax ; pop ebx ; ret
0x1000ddf8 pop esi ; pop ebp ; xor eax, eax ; pop ebx ; ret
0x1000ddf7 pop edi ; pop esi ; pop ebp ; xor eax, eax ; pop ebx ; ret
0x1000ddf6 ret ; pop edi ; pop esi ; pop ebp ; xor eax, eax ; pop ebx ; ret
0x1000ddf5 pop ebx ; ret ; pop edi ; pop esi ; pop ebp ; xor eax, eax ; pop ebx ; ret
0x1000ddf4 pop ebp ; pop ebx ; ret ; pop edi ; pop esi ; pop ebp ; xor eax, eax ; pop ebx ; ret
0x1000ddf3 pop esi ; pop ebp ; pop ebx ; ret ; pop edi ; pop esi ; pop ebp ; xor eax, eax ; pop ebx ; ret
0x1000de1d ret
0x1000de1c pop esi ; ret
0x1000de1a jne 4 ; pop esi ; ret
0x1000de19 sal byte ptr [ebp + 2], 0x5e ; ret
0x1000de18 test eax, eax ; jne 6 ; pop esi ; ret
0x1000de17 add al, 0x85 ; sal byte ptr [ebp + 2], 0x5e ; ret
0x1000de16 les eax, ptr [eax*4 + 0x5e0275c0] ; ret
0x1000de15 add esp, 4 ; test eax, eax ; jne 9 ; pop esi ; ret
0x1000de14 inc dword ptr [ebx - 0x3f7afb3c] ; jne 0xa ; pop esi ; ret
0x1000de79 ret
0x1000de78 pop esi ; ret
0x1000de77 pop eax ; pop esi ; ret
0x1000de76 push esi ; pop eax ; pop esi ; ret
0x1000de75 mov dword ptr [esi + 0x58], edx ; pop esi ; ret
0x1000de74 pop es ; mov dword ptr [esi + 0x58], edx ; pop esi ; ret
0x1000de73 loop 9 ; mov dword ptr [esi + 0x58], edx ; pop esi ; ret
0x1000de72 and edx, 7 ; mov dword ptr [esi + 0x58], edx ; pop esi ; ret
0x1000de71 inc edx ; and edx, 7 ; mov dword ptr [esi + 0x58], edx ; pop esi ; ret
0x1000de70 pop eax ; inc edx ; and edx, 7 ; mov dword ptr [esi + 0x58], edx ; pop esi ; ret
0x1000de6f push esi ; pop eax ; inc edx ; and edx, 7 ; mov dword ptr [esi + 0x58], edx ; pop esi ; ret
0x1000de8a ret
0x1000de89 pop esi ; ret
0x1000de87 jne 0xffffffdc ; pop esi ; ret
0x1000de86 sal byte ptr [ebp - 0x26], 0x5e ; ret
0x1000de85 test eax, eax ; jne 0xffffffde ; pop esi ; ret
0x1000de84 or byte ptr [ebp + 0x5eda75c0], al ; ret
0x1000de83 les ecx, ptr [eax] ; test eax, eax ; jne 0xffffffe0 ; pop esi ; ret
0x1000de82 add esp, 8 ; test eax, eax ; jne 0xffffffe1 ; pop esi ; ret
0x1000de81 adc al, 0x83 ; les ecx, ptr [eax] ; test eax, eax ; jne 0xffffffe2 ; pop esi ; ret
0x1000de80 push ecx ; adc al, 0x83 ; les ecx, ptr [eax] ; test eax, eax ; jne 0xffffffe3 ; pop esi ; ret
0x1000dec3 ret
0x1000dec2 pop esp ; ret
0x1000dec1 dec eax ; pop esp ; ret
0x1000dec0 mov dword ptr [eax + 0x5c], ecx ; ret
0x1000debe add byte ptr [eax], al ; mov dword ptr [eax + 0x5c], ecx ; ret
0x1000debc mov ah, 1 ; add byte ptr [eax], al ; mov dword ptr [eax + 0x5c], ecx ; ret
0x1000debb xor byte ptr [ecx + eax + 0x48890000], 0x5c ; ret
0x1000deba mov eax, dword ptr [eax + 0x1b4] ; mov dword ptr [eax + 0x5c], ecx ; ret
0x1000deb9 push esp ; mov eax, dword ptr [eax + 0x1b4] ; mov dword ptr [eax + 0x5c], ecx ; ret
0x1000e0e7 ret
0x1000e0e6 pop ebx ; ret
0x1000e0e5 pop ebp ; pop ebx ; ret
0x1000e0e4 pop esi ; pop ebp ; pop ebx ; ret
0x1000e0e3 pop edi ; pop esi ; pop ebp ; pop ebx ; ret
0x1000e0e2 add byte ptr [edi + 0x5e], bl ; pop ebp ; pop ebx ; ret
0x1000e0e1 add byte ptr [eax], al ; pop edi ; pop esi ; pop ebp ; pop ebx ; ret
0x1000e0e0 add byte ptr [eax], al ; add byte ptr [edi + 0x5e], bl ; pop ebp ; pop ebx ; ret
0x1000e0df add byte ptr [eax], 0 ; add byte ptr [edi + 0x5e], bl ; pop ebp ; pop ebx ; ret
0x1000e0de xchg byte ptr [eax + 0x5f000000], al ; pop esi ; pop ebp ; pop ebx ; ret
0x1000e0dd mov dword ptr [esi + 0x80], eax ; pop edi ; pop esi ; pop ebp ; pop ebx ; ret
0x1000e0f2 ret
0x1000e0f1 pop ebx ; ret
0x1000e0f0 pop ebp ; pop ebx ; ret
0x1000e0ef pop esi ; pop ebp ; pop ebx ; ret
0x1000e0ee pop edi ; pop esi ; pop ebp ; pop ebx ; ret
0x1000e0ed add byte ptr [edi + 0x5e], bl ; pop ebp ; pop ebx ; ret
0x1000e0ec add byte ptr [eax], al ; pop edi ; pop esi ; pop ebp ; pop ebx ; ret
0x1000e0eb add byte ptr [eax], al ; add byte ptr [edi + 0x5e], bl ; pop ebp ; pop ebx ; ret
0x1000e0ea add byte ptr [eax], 0 ; add byte ptr [edi + 0x5e], bl ; pop ebp ; pop ebx ; ret
0x1000e0e9 scasb al, byte ptr es:[edi] ; add byte ptr [eax], 0 ; add byte ptr [edi + 0x5e], bl ; pop ebp ; pop ebx ; ret
0x1000e0e8 mov dword ptr [esi + 0x80], ebp ; pop edi ; pop esi ; pop ebp ; pop ebx ; ret
0x1000e192 ret
0x1000e191 pop edi ; ret
0x1000e18f xor eax, eax ; pop edi ; ret
0x1000e18d je 4 ; xor eax, eax ; pop edi ; ret
0x1000e18b add byte ptr [eax], al ; je 6 ; xor eax, eax ; pop edi ; ret
0x1000e1d6 ret
0x1000e1d5 pop esi ; ret
0x1000e1d4 add al, 0x5e ; ret
0x1000e1d3 les eax, ptr [esi + ebx*2] ; ret
0x1000e1d2 add esp, 4 ; pop esi ; ret
0x1000e1d0 add byte ptr [eax], al ; add esp, 4 ; pop esi ; ret
0x1000e1cd call 0x13 ; add esp, 4 ; pop esi ; ret
0x1000e3c0 ret
0x1000e3bf pop ebx ; ret
0x1000e3be pop ebp ; pop ebx ; ret
0x1000e3bd pop esi ; pop ebp ; pop ebx ; ret
0x1000e3bc pop edi ; pop esi ; pop ebp ; pop ebx ; ret
0x1000e3bb or al, 0x5f ; pop esi ; pop ebp ; pop ebx ; ret
0x1000e3ba inc ebx ; or al, 0x5f ; pop esi ; pop ebp ; pop ebx ; ret
0x1000e3b9 mov dword ptr [ebx + 0xc], eax ; pop edi ; pop esi ; pop ebp ; pop ebx ; ret
0x1000e3b8 inc eax ; mov dword ptr [ebx + 0xc], eax ; pop edi ; pop esi ; pop ebp ; pop ebx ; ret
0x1000e3b7 or al, 0x40 ; mov dword ptr [ebx + 0xc], eax ; pop edi ; pop esi ; pop ebp ; pop ebx ; ret
0x1000e3b6 inc ebx ; or al, 0x40 ; mov dword ptr [ebx + 0xc], eax ; pop edi ; pop esi ; pop ebp ; pop ebx ; ret
0x1000e448 ret
0x1000e447 pop esi ; ret
0x1000e446 pop edi ; pop esi ; ret
0x1000e445 movsd dword ptr es:[edi], dword ptr [esi] ; pop edi ; pop esi ; ret
0x1000e444 rep movsd dword ptr es:[edi], dword ptr [esi] ; pop edi ; pop esi ; ret
0x1000e443 add bl, dh ; movsd dword ptr es:[edi], dword ptr [esi] ; pop edi ; pop esi ; ret
0x1000e442 add byte ptr [eax], al ; rep movsd dword ptr es:[edi], dword ptr [esi] ; pop edi ; pop esi ; ret
0x1000e441 add byte ptr [eax], al ; add bl, dh ; movsd dword ptr es:[edi], dword ptr [esi] ; pop edi ; pop esi ; ret
0x1000e440 and byte ptr [eax], al ; add byte ptr [eax], al ; rep movsd dword ptr es:[edi], dword ptr [esi] ; pop edi ; pop esi ; ret
0x1000e43f mov ecx, 0x20 ; rep movsd dword ptr es:[edi], dword ptr [esi] ; pop edi ; pop esi ; ret
0x1000e43e add byte ptr [ecx + 0x20], bh ; rep movsd dword ptr es:[edi], dword ptr [esi] ; pop edi ; pop esi ; ret
0x1000e5b4 ret
0x1000e5b3 pop esi ; ret
0x1000e5b2 pop edi ; pop esi ; ret
0x1000e5b1 adc byte ptr [edi + 0x5e], bl ; ret
0x1000e5b0 dec eax ; adc byte ptr [edi + 0x5e], bl ; ret
0x1000e5af mov dword ptr [eax + 0x10], ecx ; pop edi ; pop esi ; ret
0x1000e5ae retf 0x4889 ; adc byte ptr [edi + 0x5e], bl ; ret
0x1000e5ad add ecx, edx ; mov dword ptr [eax + 0x10], ecx ; pop edi ; pop esi ; ret
0x1000e5ac inc edx ; add ecx, edx ; mov dword ptr [eax + 0x10], ecx ; pop edi ; pop esi ; ret
0x1000e5ab ret 0x342 ; retf 0x4889 ; adc byte ptr [edi + 0x5e], bl ; ret
0x1000e5aa xchg eax, ebp ; ret 0x342 ; retf 0x4889 ; adc byte ptr [edi + 0x5e], bl ; ret
0x1000e5e7 ret
0x1000e5e6 pop esi ; ret
0x1000e5e5 or al, 0x5e ; ret
0x1000e5e4 inc esi ; or al, 0x5e ; ret
0x1000e5e3 mov dword ptr [esi + 0xc], eax ; pop esi ; ret
0x1000e5e2 inc eax ; mov dword ptr [esi + 0xc], eax ; pop esi ; ret
0x1000e5e1 or al, 0x40 ; mov dword ptr [esi + 0xc], eax ; pop esi ; ret
0x1000e5e0 inc esi ; or al, 0x40 ; mov dword ptr [esi + 0xc], eax ; pop esi ; ret
0x1000e5df mov eax, dword ptr [esi + 0xc] ; inc eax ; mov dword ptr [esi + 0xc], eax ; pop esi ; ret
0x1000e5de add al, 0x8b ; inc esi ; or al, 0x40 ; mov dword ptr [esi + 0xc], eax ; pop esi ; ret
0x1000e5dd les eax, ptr [ebx + ecx*4] ; inc esi ; or al, 0x40 ; mov dword ptr [esi + 0xc], eax ; pop esi ; ret
0x1000e657 ret
0x1000e656 pop esi ; ret
0x1000e655 pop edi ; pop esi ; ret
0x1000e654 add al, 0x5f ; pop esi ; ret
0x1000e653 les eax, ptr [edi + ebx*2] ; pop esi ; ret
0x1000e652 add esp, 4 ; pop edi ; pop esi ; ret
0x1000e651 add byte ptr [ebx + 0x5e5f04c4], al ; ret
0x1000e650 add byte ptr [eax], al ; add esp, 4 ; pop edi ; pop esi ; ret
0x1000e64f add byte ptr [eax], al ; add byte ptr [ebx + 0x5e5f04c4], al ; ret
0x1000e64e add byte ptr cs:[eax], al ; add byte ptr [ebx + 0x5e5f04c4], al ; ret
0x1000e64d call 0x33 ; add esp, 4 ; pop edi ; pop esi ; ret
0x1000e674 ret
0x1000e673 pop esi ; ret
0x1000e672 pop edi ; pop esi ; ret
0x1000e671 add al, 0x5f ; pop esi ; ret
0x1000e670 les eax, ptr [edi + ebx*2] ; pop esi ; ret
0x1000e66f add esp, 4 ; pop edi ; pop esi ; ret
0x1000e66e add byte ptr [ebx + 0x5e5f04c4], al ; ret
0x1000e66d add byte ptr [eax], al ; add esp, 4 ; pop edi ; pop esi ; ret
0x1000e66c add byte ptr [eax], al ; add byte ptr [ebx + 0x5e5f04c4], al ; ret
0x1000e66b adc dword ptr [eax], eax ; add byte ptr [eax], al ; add esp, 4 ; pop edi ; pop esi ; ret
0x1000e66a call 0x16 ; add esp, 4 ; pop edi ; pop esi ; ret
0x1000e748 ret
0x1000e747 pop ebx ; ret
0x1000e746 pop ebp ; pop ebx ; ret
0x1000e745 pop esi ; pop ebp ; pop ebx ; ret
0x1000e744 pop edi ; pop esi ; pop ebp ; pop ebx ; ret
0x1000e743 scasd eax, dword ptr es:[edi] ; pop edi ; pop esi ; pop ebp ; pop ebx ; ret
0x1000e742 jge 0xffffffb1 ; pop edi ; pop esi ; pop ebp ; pop ebx ; ret
0x1000e741 adc al, 0x7d ; scasd eax, dword ptr es:[edi] ; pop edi ; pop esi ; pop ebp ; pop ebx ; ret
0x1000e740 and al, 0x14 ; jge 0xffffffb3 ; pop edi ; pop esi ; pop ebp ; pop ebx ; ret
0x1000e73f pop esp ; and al, 0x14 ; jge 0xffffffb4 ; pop edi ; pop esi ; pop ebp ; pop ebx ; ret
0x1000e73e mov dword ptr [esp + 0x14], ebx ; jge 0xffffffb5 ; pop edi ; pop esi ; pop ebp ; pop ebx ; ret
0x1000e767 ret
0x1000e764 mov dword ptr [eax + 0x2c], ecx ; ret
0x1000e761 mov ecx, dword ptr [ecx + 0x74] ; mov dword ptr [eax + 0x2c], ecx ; ret
0x1000e75f add byte ptr [eax], al ; mov ecx, dword ptr [ecx + 0x74] ; mov dword ptr [eax + 0x2c], ecx ; ret
0x1000e75d add byte ptr [eax], al ; add byte ptr [eax], al ; mov ecx, dword ptr [ecx + 0x74] ; mov dword ptr [eax + 0x2c], ecx ; ret
0x1000e83e ret
0x1000e83c les ecx, ptr [eax] ; ret
0x1000e83b add esp, 8 ; ret
0x1000e83a pop ebx ; add esp, 8 ; ret
0x1000e839 pop ebp ; pop ebx ; add esp, 8 ; ret
0x1000e838 pop esi ; pop ebp ; pop ebx ; add esp, 8 ; ret
0x1000e837 pop edi ; pop esi ; pop ebp ; pop ebx ; add esp, 8 ; ret
0x1000e836 add byte ptr [edi + 0x5e], bl ; pop ebp ; pop ebx ; add esp, 8 ; ret
0x1000e835 inc ebp ; add byte ptr [edi + 0x5e], bl ; pop ebp ; pop ebx ; add esp, 8 ; ret
0x1000e834 inc dword ptr [ebp] ; pop edi ; pop esi ; pop ebp ; pop ebx ; add esp, 8 ; ret
0x1000e879 ret
0x1000e878 pop esi ; ret
0x1000e877 pop edi ; pop esi ; ret
0x1000e876 pop es ; pop edi ; pop esi ; ret
0x1000e875 mov dword ptr [edi], eax ; pop edi ; pop esi ; ret
0x1000e874 inc eax ; mov dword ptr [edi], eax ; pop edi ; pop esi ; ret
0x1000e873 pop es ; inc eax ; mov dword ptr [edi], eax ; pop edi ; pop esi ; ret
0x1000e872 mov eax, dword ptr [edi] ; inc eax ; mov dword ptr [edi], eax ; pop edi ; pop esi ; ret
0x1000e871 push cs ; mov eax, dword ptr [edi] ; inc eax ; mov dword ptr [edi], eax ; pop edi ; pop esi ; ret
0x1000e870 mov dword ptr [esi], ecx ; mov eax, dword ptr [edi] ; inc eax ; mov dword ptr [edi], eax ; pop edi ; pop esi ; ret
0x1000e86f inc ecx ; mov dword ptr [esi], ecx ; mov eax, dword ptr [edi] ; inc eax ; mov dword ptr [edi], eax ; pop edi ; pop esi ; ret
0x1000e9f6 ret
0x1000e9f4 les ebx, ptr [eax] ; ret
0x1000e9f3 add esp, 0x18 ; ret
0x1000e9f2 pop ebx ; add esp, 0x18 ; ret
0x1000e9f1 pop ebp ; pop ebx ; add esp, 0x18 ; ret
0x1000e9f0 pop esi ; pop ebp ; pop ebx ; add esp, 0x18 ; ret
0x1000e9ef pop edi ; pop esi ; pop ebp ; pop ebx ; add esp, 0x18 ; ret
0x1000e9ee add bl, byte ptr [edi + 0x5e] ; pop ebp ; pop ebx ; add esp, 0x18 ; ret
0x1000e9ed push eax ; add bl, byte ptr [edi + 0x5e] ; pop ebp ; pop ebx ; add esp, 0x18 ; ret
0x1000e9ec mov byte ptr [eax + 2], dl ; pop edi ; pop esi ; pop ebp ; pop ebx ; add esp, 0x18 ; ret
0x1000ebfe ret
0x1000ebfb add esp, 0x24 ; ret
0x1000ebfa pop ebx ; add esp, 0x24 ; ret
0x1000ebf9 pop ebp ; pop ebx ; add esp, 0x24 ; ret
0x1000ebf8 pop esi ; pop ebp ; pop ebx ; add esp, 0x24 ; ret
0x1000ebf7 pop edi ; pop esi ; pop ebp ; pop ebx ; add esp, 0x24 ; ret
0x1000ebf6 add bl, byte ptr [edi + 0x5e] ; pop ebp ; pop ebx ; add esp, 0x24 ; ret
0x1000ebf5 inc ecx ; add bl, byte ptr [edi + 0x5e] ; pop ebp ; pop ebx ; add esp, 0x24 ; ret
0x1000ebf4 mov byte ptr [ecx + 2], al ; pop edi ; pop esi ; pop ebp ; pop ebx ; add esp, 0x24 ; ret
0x1000ec70 ret
0x1000ec6f pop ebx ; ret
0x1000ec6e pop esi ; pop ebx ; ret
0x1000ec6d pop edi ; pop esi ; pop ebx ; ret
0x1000ec6c out 0x5f, al ; pop esi ; pop ebx ; ret
0x1000ec6b jl 0xffffffe8 ; pop edi ; pop esi ; pop ebx ; ret
0x1000ec6a fdivr dword ptr [esi + 0x5f] ; pop esi ; pop ebx ; ret
0x1000ec69 cmp ebx, eax ; jl 0xffffffea ; pop edi ; pop esi ; pop ebx ; ret
0x1000ec68 inc ebx ; cmp ebx, eax ; jl 0xffffffeb ; pop edi ; pop esi ; pop ebx ; ret
0x1000ec67 and byte ptr [ebx + 0x3b], al ; fdivr dword ptr [esi + 0x5f] ; pop esi ; pop ebx ; ret
0x1000ec66 inc esi ; and byte ptr [ebx + 0x3b], al ; fdivr dword ptr [esi + 0x5f] ; pop esi ; pop ebx ; ret
0x1000ee01 ret
0x1000edfb xchg byte ptr [eax - 0x7cffffff], dl ; ret
0x1000ef63 ret
0x1000efa1 ret
0x1000ef9f les edx, ptr [eax] ; ret
0x1000ef9e add esp, 0x10 ; ret
0x1000ef9d pop ebx ; add esp, 0x10 ; ret
0x1000ef9c pop ebp ; pop ebx ; add esp, 0x10 ; ret
0x1000ef9b pop esi ; pop ebp ; pop ebx ; add esp, 0x10 ; ret
0x1000ef9a pop edi ; pop esi ; pop ebp ; pop ebx ; add esp, 0x10 ; ret
0x1000ef99 sub byte ptr [edi + 0x5e], bl ; pop ebp ; pop ebx ; add esp, 0x10 ; ret
0x1000ef98 inc edi ; sub byte ptr [edi + 0x5e], bl ; pop ebp ; pop ebx ; add esp, 0x10 ; ret
0x1000ef97 mov dword ptr [edi + 0x28], eax ; pop edi ; pop esi ; pop ebp ; pop ebx ; add esp, 0x10 ; ret
0x1000eff4 ret
0x1000eff3 dec eax ; ret
0x1000eff1 add esp, 0x48 ; ret
0x1000eff0 pop ebx ; add esp, 0x48 ; ret
0x1000efef pop ebp ; pop ebx ; add esp, 0x48 ; ret
0x1000efee pop esi ; pop ebp ; pop ebx ; add esp, 0x48 ; ret
0x1000efed pop edi ; pop esi ; pop ebp ; pop ebx ; add esp, 0x48 ; ret
0x1000efec or byte ptr [edi + 0x5e], bl ; pop ebp ; pop ebx ; add esp, 0x48 ; ret
0x1000efeb jne 0xa ; pop edi ; pop esi ; pop ebp ; pop ebx ; add esp, 0x48 ; ret
0x1000efea sal byte ptr [ebp + 8], 0x5f ; pop esi ; pop ebp ; pop ebx ; add esp, 0x48 ; ret
0x1000f1eb ret
0x1000f1ea dec eax ; ret
0x1000f1e8 add esp, 0x48 ; ret
0x1000f1e7 pop ebx ; add esp, 0x48 ; ret
0x1000f1e6 pop ebp ; pop ebx ; add esp, 0x48 ; ret
0x1000f1e5 pop esi ; pop ebp ; pop ebx ; add esp, 0x48 ; ret
0x1000f1e4 pop edi ; pop esi ; pop ebp ; pop ebx ; add esp, 0x48 ; ret
0x1000f1e3 add byte ptr [edi + 0x5e], bl ; pop ebp ; pop ebx ; add esp, 0x48 ; ret
0x1000f1e2 add byte ptr [eax], al ; pop edi ; pop esi ; pop ebp ; pop ebx ; add esp, 0x48 ; ret
0x1000f1e1 add byte ptr [eax], al ; add byte ptr [edi + 0x5e], bl ; pop ebp ; pop ebx ; add esp, 0x48 ; ret
0x1000f1f5 ret
0x1000f1f4 dec eax ; ret
0x1000f1f2 add esp, 0x48 ; ret
0x1000f1f1 pop ebx ; add esp, 0x48 ; ret
0x1000f1f0 rcr byte ptr [ebx - 0x7d], 0xc4 ; dec eax ; ret
0x1000f1ef xor eax, eax ; pop ebx ; add esp, 0x48 ; ret
0x1000f1ee pop ebp ; xor eax, eax ; pop ebx ; add esp, 0x48 ; ret
0x1000f1ed pop esi ; pop ebp ; xor eax, eax ; pop ebx ; add esp, 0x48 ; ret
0x1000f1ec pop edi ; pop esi ; pop ebp ; xor eax, eax ; pop ebx ; add esp, 0x48 ; ret
0x1000f1eb ret ; pop edi ; pop esi ; pop ebp ; xor eax, eax ; pop ebx ; add esp, 0x48 ; ret
0x1000f240 ret
0x1000f23f pop esi ; ret
0x1000f23e pop edi ; pop esi ; ret
0x1000f23d add ebx, dword ptr [edi + 0x5e] ; ret
0x1000f23c jne 5 ; pop edi ; pop esi ; ret
0x1000f23b sal byte ptr [ebp + 3], 0x5f ; pop esi ; ret
0x1000f23a test eax, eax ; jne 7 ; pop edi ; pop esi ; ret
0x1000f239 add al, 0x85 ; sal byte ptr [ebp + 3], 0x5f ; pop esi ; ret
0x1000f238 les eax, ptr [eax*4 + 0x5f0375c0] ; pop esi ; ret
0x1000f237 add esp, 4 ; test eax, eax ; jne 0xa ; pop edi ; pop esi ; ret
0x1000f236 or byte ptr [ebx - 0x3f7afb3c], al ; jne 0xb ; pop edi ; pop esi ; ret
0x1000f282 ret
0x1000f281 pop esi ; ret
0x1000f27f add byte ptr [eax], al ; pop esi ; ret
0x1000f27d add dword ptr [eax], eax ; add byte ptr [eax], al ; pop esi ; ret
0x1000f27c mov eax, 1 ; pop esi ; ret
0x1000f27b pop edi ; mov eax, 1 ; pop esi ; ret
0x1000f27a add byte ptr [edi - 0x48], bl ; add dword ptr [eax], eax ; add byte ptr [eax], al ; pop esi ; ret
0x1000f279 add byte ptr [eax], al ; pop edi ; mov eax, 1 ; pop esi ; ret
0x1000f278 add byte ptr [eax], al ; add byte ptr [edi - 0x48], bl ; add dword ptr [eax], eax ; add byte ptr [eax], al ; pop esi ; ret
0x1000f2de ret
0x1000f2dc les esi, ptr [eax] ; ret
0x1000f2db add esp, 0x30 ; ret
0x1000f2da pop ebx ; add esp, 0x30 ; ret
0x1000f2d9 pop ebp ; pop ebx ; add esp, 0x30 ; ret
0x1000f2d8 pop esi ; pop ebp ; pop ebx ; add esp, 0x30 ; ret
0x1000f2d7 pop edi ; pop esi ; pop ebp ; pop ebx ; add esp, 0x30 ; ret
0x1000f2d6 or byte ptr [edi + 0x5e], bl ; pop ebp ; pop ebx ; add esp, 0x30 ; ret
0x1000f2d5 jne 0xa ; pop edi ; pop esi ; pop ebp ; pop ebx ; add esp, 0x30 ; ret
0x1000f2d4 sal byte ptr [ebp + 8], 0x5f ; pop esi ; pop ebp ; pop ebx ; add esp, 0x30 ; ret
0x1000f470 ret
0x1000f46a fisttp dword ptr [ebx + 0x3b3774ee] ; ret
0x1000f468 out 0x85, al ; fisttp dword ptr [ebx + 0x3b3774ee] ; ret
0x1000f490 ret
0x1000f48e les esi, ptr [eax] ; ret
0x1000f48d add esp, 0x30 ; ret
0x1000f48c pop ebx ; add esp, 0x30 ; ret
0x1000f48b pop ebp ; pop ebx ; add esp, 0x30 ; ret
0x1000f48a pop esi ; pop ebp ; pop ebx ; add esp, 0x30 ; ret
0x1000f489 pop edi ; pop esi ; pop ebp ; pop ebx ; add esp, 0x30 ; ret
0x1000f488 rcr byte ptr [edi + 0x5e], 0x5d ; pop ebx ; add esp, 0x30 ; ret
0x1000f487 xor eax, eax ; pop edi ; pop esi ; pop ebp ; pop ebx ; add esp, 0x30 ; ret
0x1000f486 or dh, byte ptr [ebx] ; rcr byte ptr [edi + 0x5e], 0x5d ; pop ebx ; add esp, 0x30 ; ret
0x1000f49a ret
0x1000f498 xor al, 0x2b ; ret
0x1000f494 xor byte ptr [ebx + 0x2b342444], cl ; ret
0x1000f492 jl 0x26 ; xor byte ptr [ebx + 0x2b342444], cl ; ret
0x1000f4f0 ret
0x1000f4ee les esi, ptr [eax] ; ret
0x1000f4ed add esp, 0x30 ; ret
0x1000f4ec pop ebx ; add esp, 0x30 ; ret
0x1000f4eb add byte ptr [ebx - 0x7d], bl ; les esi, ptr [eax] ; ret
0x1000f4ea add byte ptr [eax], al ; pop ebx ; add esp, 0x30 ; ret
0x1000f4e9 add byte ptr [eax], al ; add byte ptr [ebx - 0x7d], bl ; les esi, ptr [eax] ; ret
0x1000f4e8 add dword ptr [eax], eax ; add byte ptr [eax], al ; pop ebx ; add esp, 0x30 ; ret
0x1000f4e7 mov eax, 1 ; pop ebx ; add esp, 0x30 ; ret
0x1000f4e6 pop ebp ; mov eax, 1 ; pop ebx ; add esp, 0x30 ; ret
0x1000f547 ret
0x1000f545 les esp, ptr [eax] ; ret
0x1000f544 add esp, 0x20 ; ret
0x1000f543 pop ebx ; add esp, 0x20 ; ret
0x1000f542 pop ebp ; pop ebx ; add esp, 0x20 ; ret
0x1000f541 pop esi ; pop ebp ; pop ebx ; add esp, 0x20 ; ret
0x1000f540 pop edi ; pop esi ; pop ebp ; pop ebx ; add esp, 0x20 ; ret
0x1000f53f or byte ptr [edi + 0x5e], bl ; pop ebp ; pop ebx ; add esp, 0x20 ; ret
0x1000f53e jne 0xa ; pop edi ; pop esi ; pop ebp ; pop ebx ; add esp, 0x20 ; ret
0x1000f53d sal byte ptr [ebp + 8], 0x5f ; pop esi ; pop ebp ; pop ebx ; add esp, 0x20 ; ret
0x1000f5cb ret
0x1000f5c8 add byte ptr [edx - 0x7d], al ; ret
0x1000f5c6 add dword ptr [eax], eax ; add byte ptr [edx - 0x7d], al ; ret
0x1000f5c5 pushal ; add dword ptr [eax], eax ; add byte ptr [edx - 0x7d], al ; ret
0x1000f60b ret
0x1000f609 les esp, ptr [eax] ; ret
0x1000f608 add esp, 0x20 ; ret
0x1000f607 pop ebx ; add esp, 0x20 ; ret
0x1000f606 pop ebp ; pop ebx ; add esp, 0x20 ; ret
0x1000f605 pop esi ; pop ebp ; pop ebx ; add esp, 0x20 ; ret
0x1000f604 pop edi ; pop esi ; pop ebp ; pop ebx ; add esp, 0x20 ; ret
0x1000f603 add byte ptr [edi + 0x5e], bl ; pop ebp ; pop ebx ; add esp, 0x20 ; ret
0x1000f602 add byte ptr [eax], al ; pop edi ; pop esi ; pop ebp ; pop ebx ; add esp, 0x20 ; ret
0x1000f601 add byte ptr [eax], al ; add byte ptr [edi + 0x5e], bl ; pop ebp ; pop ebx ; add esp, 0x20 ; ret
0x1000f615 ret
0x1000f613 les esp, ptr [eax] ; ret
0x1000f612 add esp, 0x20 ; ret
0x1000f611 pop ebx ; add esp, 0x20 ; ret
0x1000f60f xor eax, eax ; pop ebx ; add esp, 0x20 ; ret
0x1000f60e pop ebp ; xor eax, eax ; pop ebx ; add esp, 0x20 ; ret
0x1000f60d pop esi ; pop ebp ; xor eax, eax ; pop ebx ; add esp, 0x20 ; ret
0x1000f60c pop edi ; pop esi ; pop ebp ; xor eax, eax ; pop ebx ; add esp, 0x20 ; ret
0x1000f60b ret ; pop edi ; pop esi ; pop ebp ; xor eax, eax ; pop ebx ; add esp, 0x20 ; ret
0x1000f687 ret
0x1000f685 add byte ptr [eax], al ; ret
0x1000f681 add esp, 0x14c ; ret
0x1000f680 pop ebx ; add esp, 0x14c ; ret
0x1000f67f pop ebp ; pop ebx ; add esp, 0x14c ; ret
0x1000f67e pop esi ; pop ebp ; pop ebx ; add esp, 0x14c ; ret
0x1000f67d pop edi ; pop esi ; pop ebp ; pop ebx ; add esp, 0x14c ; ret
0x1000f73d ret
0x1000f84b ret
0x1000f848 adc byte ptr [esi - 0x75], cl ; ret
0x1000f918 ret
0x1000f99f ret
0x1000f99c add byte ptr [esi - 0x75], cl ; ret
0x1000f99a add dword ptr [eax], eax ; add byte ptr [esi - 0x75], cl ; ret
0x1000f999 pushal ; add dword ptr [eax], eax ; add byte ptr [esi - 0x75], cl ; ret
0x1000f998 and al, 0x60 ; add dword ptr [eax], eax ; add byte ptr [esi - 0x75], cl ; ret
0x1000f997 xchg eax, esp ; and al, 0x60 ; add dword ptr [eax], eax ; add byte ptr [esi - 0x75], cl ; ret
0x1000fa27 ret
0x1000fa25 add byte ptr [eax], al ; ret
0x1000fa21 add esp, 0x14c ; ret
0x1000fa20 pop ebx ; add esp, 0x14c ; ret
0x1000fa1f pop ebp ; pop ebx ; add esp, 0x14c ; ret
0x1000fa1e pop esi ; pop ebp ; pop ebx ; add esp, 0x14c ; ret
0x1000fa1d pop edi ; pop esi ; pop ebp ; pop ebx ; add esp, 0x14c ; ret
0x1000fa53 ret
0x1000fa51 add byte ptr [eax], al ; ret
0x1000fa4d add esp, 0x14c ; ret
0x1000fa4c pop ebx ; add esp, 0x14c ; ret
0x1000fa4a xor eax, eax ; pop ebx ; add esp, 0x14c ; ret
0x1000fa49 pop ebp ; xor eax, eax ; pop ebx ; add esp, 0x14c ; ret
0x1000fad3 ret
0x1000fad2 pop ebp ; ret
0x1000fad1 pop esi ; pop ebp ; ret
0x1000fad0 pop edi ; pop esi ; pop ebp ; ret
0x1000facf or byte ptr [edi + 0x5e], bl ; pop ebp ; ret
0x1000face inc edi ; or byte ptr [edi + 0x5e], bl ; pop ebp ; ret
0x1000facd mov dword ptr [edi + 8], eax ; pop edi ; pop esi ; pop ebp ; ret
0x1000facc sbb byte ptr [ecx + 0x5e5f0847], cl ; pop ebp ; ret
0x1000facb les ebx, ptr [eax] ; mov dword ptr [edi + 8], eax ; pop edi ; pop esi ; pop ebp ; ret
0x1000faca add esp, 0x18 ; mov dword ptr [edi + 8], eax ; pop edi ; pop esi ; pop ebp ; ret
0x1000fac9 adc byte ptr [ebx + 0x478918c4], al ; or byte ptr [edi + 0x5e], bl ; pop ebp ; ret
0x1000faef ret
0x1000faee pop ebp ; ret
0x1000faed pop esi ; pop ebp ; ret
0x1000faec pop edi ; pop esi ; pop ebp ; ret
0x1000faeb or al, 0x5f ; pop esi ; pop ebp ; ret
0x1000faea inc edi ; or al, 0x5f ; pop esi ; pop ebp ; ret
0x1000fae9 mov dword ptr [edi + 0xc], eax ; pop edi ; pop esi ; pop ebp ; ret
0x1000fae8 adc byte ptr [ecx + 0x5e5f0c47], cl ; pop ebp ; ret
0x1000fae7 les edx, ptr [eax] ; mov dword ptr [edi + 0xc], eax ; pop edi ; pop esi ; pop ebp ; ret
0x1000fae6 add esp, 0x10 ; mov dword ptr [edi + 0xc], eax ; pop edi ; pop esi ; pop ebp ; ret
0x1000fae5 or byte ptr [ebx + 0x478910c4], al ; or al, 0x5f ; pop esi ; pop ebp ; ret
0x1000fb30 ret
0x1000fb2f pop esi ; ret
0x1000fb2d add byte ptr [eax], al ; pop esi ; ret
0x1000fb2b add byte ptr [eax], al ; add byte ptr [eax], al ; pop esi ; ret
0x1000fb28 mov dword ptr [esi + 0x14], 0 ; pop esi ; ret
0x1000fb26 add byte ptr [eax], al ; mov dword ptr [esi + 0x14], 0 ; pop esi ; ret
0x1000fb5f ret
0x1000fb5e pop esi ; ret
0x1000fb5c add byte ptr [eax], al ; pop esi ; ret
0x1000fb5a add byte ptr [eax], al ; add byte ptr [eax], al ; pop esi ; ret
0x1000fb57 mov dword ptr [esi + 0x14], 0 ; pop esi ; ret
0x1000fb55 add byte ptr [eax], al ; mov dword ptr [esi + 0x14], 0 ; pop esi ; ret
0x1000fb8e ret
0x1000fb8d pop esi ; ret
0x1000fb8b add byte ptr [eax], al ; pop esi ; ret
0x1000fb89 add byte ptr [eax], al ; add byte ptr [eax], al ; pop esi ; ret
0x1000fb86 mov dword ptr [esi + 0x14], 0 ; pop esi ; ret
0x1000fb84 add byte ptr [eax], al ; mov dword ptr [esi + 0x14], 0 ; pop esi ; ret
0x1000fbcc ret
0x1000fbcb pop esi ; ret
0x1000fbc9 add byte ptr [eax], al ; pop esi ; ret
0x1000fbc7 add byte ptr [eax], al ; add byte ptr [eax], al ; pop esi ; ret
0x1000fbc4 mov dword ptr [esi + 0x14], 0 ; pop esi ; ret
0x1000fbc2 add byte ptr [eax], al ; mov dword ptr [esi + 0x14], 0 ; pop esi ; ret
0x1000fbe8 ret
0x1000fbe7 pop esi ; ret
0x1000fbe5 add byte ptr [eax], al ; pop esi ; ret
0x1000fbe3 add byte ptr [eax], al ; add byte ptr [eax], al ; pop esi ; ret
0x1000fbe0 mov dword ptr [esi + 0x14], 0 ; pop esi ; ret
0x1000fbde add byte ptr [eax], al ; mov dword ptr [esi + 0x14], 0 ; pop esi ; ret
0x1000fc6d ret
0x1000fc6c pop ebx ; ret
0x1000fc6b pop esi ; pop ebx ; ret
0x1000fc6a pop edi ; pop esi ; pop ebx ; ret
0x1000fc69 add ebx, dword ptr [edi + 0x5e] ; pop ebx ; ret
0x1000fc68 mov dword ptr [ebx], eax ; pop edi ; pop esi ; pop ebx ; ret
0x1000fc67 ret 0x389 ; pop edi ; pop esi ; pop ebx ; ret
0x1000fc66 add eax, edx ; mov dword ptr [ebx], eax ; pop edi ; pop esi ; pop ebx ; ret
0x1000fc65 adc byte ptr [ebx], al ; ret 0x389 ; pop edi ; pop esi ; pop ebx ; ret
0x1000fc64 les edx, ptr [eax] ; add eax, edx ; mov dword ptr [ebx], eax ; pop edi ; pop esi ; pop ebx ; ret
0x1000fc63 add esp, 0x10 ; add eax, edx ; mov dword ptr [ebx], eax ; pop edi ; pop esi ; pop ebx ; ret
0x1000fd12 ret
0x1000fd11 pop ebx ; ret
0x1000fd10 pop ebp ; pop ebx ; ret
0x1000fd0f pop esi ; pop ebp ; pop ebx ; ret
0x1000fd0e pop edi ; pop esi ; pop ebp ; pop ebx ; ret
0x1000fd0d adc al, 0x5f ; pop esi ; pop ebp ; pop ebx ; ret
0x1000fd0c dec esi ; adc al, 0x5f ; pop esi ; pop ebp ; pop ebx ; ret
0x1000fd0b mov dword ptr [esi + 0x14], ecx ; pop edi ; pop esi ; pop ebp ; pop ebx ; ret
0x1000fd09 add ecx, eax ; mov dword ptr [esi + 0x14], ecx ; pop edi ; pop esi ; pop ebp ; pop ebx ; ret
0x1000fd08 add byte ptr [ebx], al ; enter 0x4e89, 0x14 ; pop edi ; pop esi ; pop ebp ; pop ebx ; ret
0x1000fdc5 ret
0x1000fdc4 pop ebx ; ret
0x1000fdc3 pop ebp ; pop ebx ; ret
0x1000fdc2 pop esi ; pop ebp ; pop ebx ; ret
0x1000fdc1 pop edi ; pop esi ; pop ebp ; pop ebx ; ret
0x1000fdc0 adc al, 0x5f ; pop esi ; pop ebp ; pop ebx ; ret
0x1000fdbf dec esi ; adc al, 0x5f ; pop esi ; pop ebp ; pop ebx ; ret
0x1000fdbe mov dword ptr [esi + 0x14], ecx ; pop edi ; pop esi ; pop ebp ; pop ebx ; ret
0x1000fdbd enter 0x4e89, 0x14 ; pop edi ; pop esi ; pop ebp ; pop ebx ; ret
0x1000fdbc add ecx, eax ; mov dword ptr [esi + 0x14], ecx ; pop edi ; pop esi ; pop ebp ; pop ebx ; ret
0x1000fdbb add byte ptr [ebx], al ; enter 0x4e89, 0x14 ; pop edi ; pop esi ; pop ebp ; pop ebx ; ret
0x1000fe58 ret
0x1000fe56 and al, 0x83 ; ret
0x1000fe55 lds esp, ptr [ebx + eax*4] ; ret
0x1000fe4f mov cs, word ptr [eax - 0x7cffffff] ; lds esp, ptr [ebx + eax*4] ; ret
0x1000ffcb ret
0x1000ffc8 and byte ptr [eax - 0x7d], al ; ret
0x1000ffc7 dec esi ; and byte ptr [eax - 0x7d], al ; ret
0x1000ffc5 sub al, 0x8b ; dec esi ; and byte ptr [eax - 0x7d], al ; ret
0x1000ffc1 fmul dword ptr [ebx - 0x74d3dbbc] ; dec esi ; and byte ptr [eax - 0x7d], al ; ret
0x1000ffe3 ret
0x1000ffe1 les ebx, ptr [eax] ; ret
0x1000ffe0 add esp, 0x18 ; ret
0x1000ffdf pop ebx ; add esp, 0x18 ; ret
0x1000ffde pop ebp ; pop ebx ; add esp, 0x18 ; ret
0x1000ffdd pop esi ; pop ebp ; pop ebx ; add esp, 0x18 ; ret
0x1000ffdc pop edi ; pop esi ; pop ebp ; pop ebx ; add esp, 0x18 ; ret
0x1000ffdb lcall ptr [edi + 0x5e] ; pop ebp ; pop ebx ; add esp, 0x18 ; ret
0x10010009 ret
0x10010008 pushal ; ret
0x10010007 inc ecx ; pushal ; ret
0x10010006 mov dword ptr [ecx + 0x60], eax ; ret
0x10010005 je 0xffffff8b ; inc ecx ; pushal ; ret
0x10010004 inc eax ; je 0xffffff8c ; inc ecx ; pushal ; ret
0x10010003 mov eax, dword ptr [eax + 0x74] ; mov dword ptr [ecx + 0x60], eax ; ret
0x10010002 pop esp ; mov eax, dword ptr [eax + 0x74] ; mov dword ptr [ecx + 0x60], eax ; ret
0x10010001 push ecx ; pop esp ; mov eax, dword ptr [eax + 0x74] ; mov dword ptr [ecx + 0x60], eax ; ret
0x10010000 mov dword ptr [ecx + 0x5c], edx ; mov eax, dword ptr [eax + 0x74] ; mov dword ptr [ecx + 0x60], eax ; ret
0x1000ffff add byte ptr [ecx + 0x408b5c51], cl ; je 0xffffff91 ; inc ecx ; pushal ; ret
0x10010073 ret
0x10010071 add al, 0x83 ; ret
0x100100d4 ret
0x100100d2 adc al, 3 ; ret
0x100100d1 les edx, ptr [ebx + eax] ; ret
0x10010103 ret
0x10010102 pop ecx ; ret
0x10010101 pop ebx ; pop ecx ; ret
0x10010100 pop ebp ; pop ebx ; pop ecx ; ret
0x100100ff pop esi ; pop ebp ; pop ebx ; pop ecx ; ret
0x100100fe pop edi ; pop esi ; pop ebp ; pop ebx ; pop ecx ; ret
0x100100fd add byte ptr [edi + 0x5e], bl ; pop ebp ; pop ebx ; pop ecx ; ret
0x100100fc inc dword ptr [eax] ; pop edi ; pop esi ; pop ebp ; pop ebx ; pop ecx ; ret
0x100100fb and bh, bh ; add byte ptr [edi + 0x5e], bl ; pop ebp ; pop ebx ; pop ecx ; ret
0x100100fa and al, 0x20 ; inc dword ptr [eax] ; pop edi ; pop esi ; pop ebp ; pop ebx ; pop ecx ; ret
0x100100f9 inc esp ; and al, 0x20 ; inc dword ptr [eax] ; pop edi ; pop esi ; pop ebp ; pop ebx ; pop ecx ; ret
0x1001011a ret
0x10010118 mov dword ptr [eax], ecx ; ret
0x10010116 and al, 0xc ; mov dword ptr [eax], ecx ; ret
0x10010115 dec esp ; and al, 0xc ; mov dword ptr [eax], ecx ; ret
0x10010114 mov ecx, dword ptr [esp + 0xc] ; mov dword ptr [eax], ecx ; ret
0x10010112 and al, 0x10 ; mov ecx, dword ptr [esp + 0xc] ; mov dword ptr [eax], ecx ; ret
0x10010111 inc esp ; and al, 0x10 ; mov ecx, dword ptr [esp + 0xc] ; mov dword ptr [eax], ecx ; ret
0x10010110 mov eax, dword ptr [esp + 0x10] ; mov ecx, dword ptr [esp + 0xc] ; mov dword ptr [eax], ecx ; ret
0x1001012a ret
0x10010128 add byte ptr [eax], al ; ret
0x10010126 add byte ptr [eax], al ; add byte ptr [eax], al ; ret
0x10010124 mov dword ptr [eax], 0 ; ret
0x10010122 and al, 0x10 ; mov dword ptr [eax], 0 ; ret
0x10010121 inc esp ; and al, 0x10 ; mov dword ptr [eax], 0 ; ret
0x10010120 mov eax, dword ptr [esp + 0x10] ; mov dword ptr [eax], 0 ; ret
0x100101b7 ret
0x100101bf ret
0x100101bc adc byte ptr [esi - 0x75], ah ; ret
0x10010243 ret
0x10010241 les edx, ptr [eax] ; ret
0x10010240 add esp, 0x10 ; ret
0x1001023f pop ebx ; add esp, 0x10 ; ret
0x1001023e pop esi ; pop ebx ; add esp, 0x10 ; ret
0x1001023d pop edi ; pop esi ; pop ebx ; add esp, 0x10 ; ret
0x1001023c pop ebp ; pop edi ; pop esi ; pop ebx ; add esp, 0x10 ; ret
0x1001023b lcall ptr [ebp + 0x5f] ; pop esi ; pop ebx ; add esp, 0x10 ; ret
0x100102a5 ret
0x100102a4 pop ebx ; ret
0x100102a3 pop ebp ; pop ebx ; ret
0x100102a2 pop edi ; pop ebp ; pop ebx ; ret
0x100102a1 pop esi ; pop edi ; pop ebp ; pop ebx ; ret
0x100102a0 rcr dword ptr [esi + 0x5f], cl ; pop ebp ; pop ebx ; ret
0x1001029f jl 0xffffffd5 ; pop esi ; pop edi ; pop ebp ; pop ebx ; ret
0x1001029e call 0x5f5ed381 ; pop ebp ; pop ebx ; ret
0x1001029d cmp ebp, eax ; jl 0xffffffd7 ; pop esi ; pop edi ; pop ebp ; pop ebx ; ret
0x1001029c add al, 0x3b ; call 0x5f5ed383 ; pop ebp ; pop ebx ; ret
0x1001029b mov dword ptr [ebx + edi], 0x5ed37ce8 ; pop edi ; pop ebp ; pop ebx ; ret
0x10010336 ret
0x10010335 pop ebx ; ret
0x10010334 pop ebp ; pop ebx ; ret
0x10010333 pop esi ; pop ebp ; pop ebx ; ret
0x10010332 pop edi ; pop esi ; pop ebp ; pop ebx ; ret
0x10010331 movsb byte ptr es:[edi], byte ptr [esi] ; pop edi ; pop esi ; pop ebp ; pop ebx ; ret
0x10010330 jl 0xffffffa6 ; pop edi ; pop esi ; pop ebp ; pop ebx ; ret
0x1001032f adc al, 0x7c ; movsb byte ptr es:[edi], byte ptr [esi] ; pop edi ; pop esi ; pop ebp ; pop ebx ; ret
0x1001032e and al, 0x14 ; jl 0xffffffa8 ; pop edi ; pop esi ; pop ebp ; pop ebx ; ret
0x1001032d dec esp ; and al, 0x14 ; jl 0xffffffa9 ; pop edi ; pop esi ; pop ebp ; pop ebx ; ret
0x1001032c mov dword ptr [esp + 0x14], ecx ; jl 0xffffffaa ; pop edi ; pop esi ; pop ebp ; pop ebx ; ret
0x10010400 ret
0x100103ff pop edi ; ret
0x100103fe pop esi ; pop edi ; ret
0x100103fd pop ebp ; pop esi ; pop edi ; ret
0x100103fc pop ebx ; pop ebp ; pop esi ; pop edi ; ret
0x100103fb lcall ptr [ebx + 0x5d] ; pop esi ; pop edi ; ret
0x100103f6 jl 0xffffff78 ; pop ebx ; pop ebp ; pop esi ; pop edi ; ret
0x100104d6 ret
0x10010561 ret
0x1001055e add esp, 0x14 ; ret
0x1001055d pop esi ; add esp, 0x14 ; ret
0x1001055c pop edi ; pop esi ; add esp, 0x14 ; ret
0x1001055b pop ebp ; pop edi ; pop esi ; add esp, 0x14 ; ret
0x1001055a pop ebx ; pop ebp ; pop edi ; pop esi ; add esp, 0x14 ; ret
0x10010559 lcall ptr [ebx + 0x5d] ; pop edi ; pop esi ; add esp, 0x14 ; ret
0x100105bb ret
0x100105b9 add byte ptr [eax], al ; ret
0x100105b5 mov dword ptr [eax + 0x80], ecx ; ret
0x100105b2 mov dword ptr [eax + 0x7c], ecx ; mov dword ptr [eax + 0x80], ecx ; ret
0x100105e2 ret
0x100105e1 pop esi ; ret
0x100105e0 add al, 0x5e ; ret
0x100105df les eax, ptr [esi + ebx*2] ; ret
0x100105de add esp, 4 ; pop esi ; ret
0x100105dc add byte ptr [eax], al ; add esp, 4 ; pop esi ; ret
0x100105da adc cl, byte ptr [ebp - 0x3b7d0000] ; add al, 0x5e ; ret
0x100105d9 call 0x8d17 ; add esp, 4 ; pop esi ; ret
0x100105d8 add eax, ebp ; adc cl, byte ptr [ebp - 0x3b7d0000] ; add al, 0x5e ; ret
0x10010625 ret
0x10010623 add byte ptr [eax], al ; ret
0x10010621 enter 0, 0 ; ret
0x1001061f add esp, 0xc8 ; ret
0x1001061c add esp, 0xc ; add esp, 0xc8 ; ret
0x1001061b add byte ptr [ebx - 0x3b7ef33c], al ; enter 0, 0 ; ret
0x10010657 ret
0x10010656 pop esi ; ret
0x10010655 insb byte ptr es:[edi], dx ; pop esi ; ret
0x10010654 inc esi ; insb byte ptr es:[edi], dx ; pop esi ; ret
0x10010653 inc dword ptr [esi + 0x6c] ; pop esi ; ret
0x10010652 add al, 0xff ; inc esi ; insb byte ptr es:[edi], dx ; pop esi ; ret
0x10010651 les eax, ptr [edi + edi*8] ; inc esi ; insb byte ptr es:[edi], dx ; pop esi ; ret
0x10010650 add esp, 4 ; inc dword ptr [esi + 0x6c] ; pop esi ; ret
0x1001064f or byte ptr [ebx + 0x46ff04c4], al ; insb byte ptr es:[edi], dx ; pop esi ; ret
0x1001064e push esi ; or byte ptr [ebx + 0x46ff04c4], al ; insb byte ptr es:[edi], dx ; pop esi ; ret
0x1001064d call dword ptr [esi + 8] ; add esp, 4 ; inc dword ptr [esi + 0x6c] ; pop esi ; ret
0x10010665 ret
0x10010664 pop esi ; ret
0x10010663 add al, 0x5e ; ret
0x10010662 les eax, ptr [esi + ebx*2] ; ret
0x10010661 add esp, 4 ; pop esi ; ret
0x1001065e call dword ptr [esi + 8] ; add esp, 4 ; pop esi ; ret
0x1001065d push ecx ; call dword ptr [esi + 8] ; add esp, 4 ; pop esi ; ret
0x1001065c pop es ; push ecx ; call dword ptr [esi + 8] ; add esp, 4 ; pop esi ; ret
0x1001065b jl 9 ; push ecx ; call dword ptr [esi + 8] ; add esp, 4 ; pop esi ; ret
0x100106f0 ret
0x100106ef pop esi ; ret
0x100106ee pop edi ; pop esi ; ret
0x100106ed or al, 0x5f ; pop esi ; ret
0x100106ec les ecx, ptr [edi + ebx*2] ; pop esi ; ret
0x100106eb add esp, 0xc ; pop edi ; pop esi ; ret
0x100106ea add byte ptr [ebx + 0x5e5f0cc4], al ; ret
0x100106e9 add byte ptr [eax], al ; add esp, 0xc ; pop edi ; pop esi ; ret
0x100106e8 xchg eax, edi ; add byte ptr [eax], al ; add esp, 0xc ; pop edi ; pop esi ; ret
0x100106e7 xchg eax, edi ; add byte ptr [eax], al ; add esp, 0xc ; pop edi ; pop esi ; ret
0x100106e6 call 0x976a ; add esp, 0xc ; pop edi ; pop esi ; ret
0x10010721 ret
0x10010720 pop esi ; ret
0x1001071f pop edi ; pop esi ; ret
0x1001071e sub byte ptr [edi + 0x5e], bl ; ret
0x1001071d les ebp, ptr [eax] ; pop edi ; pop esi ; ret
0x1001071c add esp, 0x28 ; pop edi ; pop esi ; ret
0x1001071b add byte ptr [ebx + 0x5e5f28c4], al ; ret
0x1001071a add byte ptr [eax], al ; add esp, 0x28 ; pop edi ; pop esi ; ret
0x10010719 xchg eax, edi ; add byte ptr [eax], al ; add esp, 0x28 ; pop edi ; pop esi ; ret
0x10010718 xor al, 0x97 ; add byte ptr [eax], al ; add esp, 0x28 ; pop edi ; pop esi ; ret
0x10010717 call 0x9739 ; add esp, 0x28 ; pop edi ; pop esi ; ret
0x10010740 ret
0x1001073d mov dword ptr [eax + 0x14], ecx ; ret
0x1001073b mov eax, dword ptr [eax] ; mov dword ptr [eax + 0x14], ecx ; ret
0x1001073a insb byte ptr es:[edi], dx ; mov eax, dword ptr [eax] ; mov dword ptr [eax + 0x14], ecx ; ret
0x10010739 dec edx ; insb byte ptr es:[edi], dx ; mov eax, dword ptr [eax] ; mov dword ptr [eax + 0x14], ecx ; ret
0x10010738 mov dword ptr [edx + 0x6c], ecx ; mov eax, dword ptr [eax] ; mov dword ptr [eax + 0x14], ecx ; ret
0x10010737 adc byte ptr [ecx + 0x8b6c4a], cl ; mov dword ptr [eax + 0x14], ecx ; ret
0x10010736 mov edx, dword ptr [eax] ; mov dword ptr [edx + 0x6c], ecx ; mov eax, dword ptr [eax] ; mov dword ptr [eax + 0x14], ecx ; ret
0x10010d22 ret
0x10010d1f add esp, 0x14 ; ret
0x10010d1e pop ebx ; add esp, 0x14 ; ret
0x10010d1d pop ebp ; pop ebx ; add esp, 0x14 ; ret
0x10010d1c pop esi ; pop ebp ; pop ebx ; add esp, 0x14 ; ret
0x10010d1b pop edi ; pop esi ; pop ebp ; pop ebx ; add esp, 0x14 ; ret
0x10010d1a lcall ptr [edi + 0x5e] ; pop ebp ; pop ebx ; add esp, 0x14 ; ret
0x100110f8 ret
0x100110f5 add esp, 0x1c ; ret
0x100110f4 pop ebx ; add esp, 0x1c ; ret
0x100110f3 pop ebp ; pop ebx ; add esp, 0x1c ; ret
0x100110f2 pop esi ; pop ebp ; pop ebx ; add esp, 0x1c ; ret
0x100110f1 pop edi ; pop esi ; pop ebp ; pop ebx ; add esp, 0x1c ; ret
0x100110f0 lcall ptr [edi + 0x5e] ; pop ebp ; pop ebx ; add esp, 0x1c ; ret
0x10011129 ret
0x1001169f ret
0x1001169d add byte ptr [eax], al ; ret
0x1001169b sub byte ptr [ecx], al ; add byte ptr [eax], al ; ret
0x10011699 add esp, 0x128 ; ret
0x10011698 pop ebx ; add esp, 0x128 ; ret
0x10011697 pop ebp ; pop ebx ; add esp, 0x128 ; ret
0x10011696 pop esi ; pop ebp ; pop ebx ; add esp, 0x128 ; ret
0x10011695 pop edi ; pop esi ; pop ebp ; pop ebx ; add esp, 0x128 ; ret
0x10011b47 ret
0x10011b45 add byte ptr [eax], al ; ret
0x10011b43 xor byte ptr [ecx], al ; add byte ptr [eax], al ; ret
0x10011b41 add esp, 0x130 ; ret
0x10011b40 pop ebx ; add esp, 0x130 ; ret
0x10011b3f pop ebp ; pop ebx ; add esp, 0x130 ; ret
0x10011b3e pop esi ; pop ebp ; pop ebx ; add esp, 0x130 ; ret
0x10011b3d pop edi ; pop esi ; pop ebp ; pop ebx ; add esp, 0x130 ; ret
0x10011be7 ret
0x10011be2 mov edi, 0x83028b33 ; ret
0x10011cee ret
0x10011ced scasd eax, dword ptr es:[edi] ; ret
0x10011d20 ret
0x10011d43 ret
0x10011d41 sbb al, 0x8b ; ret
0x10011d3d adc byte ptr [ecx - 0x74e3dbbc], cl ; ret
0x10011d4a ret
0x10011d48 add ch, byte ptr [ebx] ; ret
0x10011d4f ret
0x10011d4d add ebp, dword ptr [ebx] ; ret
0x10011d54 ret
0x10011d52 or byte ptr [ebx], ch ; ret
0x10011d58 ret
0x10011d56 loopne 0x2d ; ret
0x10011df7 ret
0x10011df5 add byte ptr [ebx], ch ; ret
0x10011df3 add al, 0 ; add byte ptr [ebx], ch ; ret
0x10011df2 add byte ptr [eax + eax], al ; add byte ptr [ebx], ch ; ret
0x10011df1 sbb byte ptr [eax], al ; add al, 0 ; add byte ptr [ebx], ch ; ret
0x10011df0 lodsb al, byte ptr [esi] ; sbb byte ptr [eax], al ; add al, 0 ; add byte ptr [ebx], ch ; ret
0x10011dee sub al, 0x8d ; lodsb al, byte ptr [esi] ; sbb byte ptr [eax], al ; add al, 0 ; add byte ptr [ebx], ch ; ret
0x10011e1b ret
0x10011e19 add byte ptr [ebx], ch ; ret
0x10011e17 add al, 0 ; add byte ptr [ebx], ch ; ret
0x10011e16 add byte ptr [eax + eax], al ; add byte ptr [ebx], ch ; ret
0x10011e15 sbb byte ptr [eax], al ; add al, 0 ; add byte ptr [ebx], ch ; ret
0x10011e14 lodsb al, byte ptr [esi] ; sbb byte ptr [eax], al ; add al, 0 ; add byte ptr [ebx], ch ; ret
0x10011e6f ret
0x10011e68 mov byte ptr [0x400], 0x83 ; ret
0x10011e66 add byte ptr [ebx], ch ; mov byte ptr [0x400], 0x83 ; ret
0x10011fa3 ret
0x10011fa1 sbb byte ptr [ebx], al ; ret
0x10011fb1 ret
0x10011faf sub byte ptr [ebx], al ; ret
0x10011fab adc byte ptr [ebx + 0x3282444], cl ; ret
0x10011fc2 ret
0x10011fe5 ret
0x10011fe3 sbb al, 0x8b ; ret
0x10011fdf adc byte ptr [ecx - 0x74e3dbbc], cl ; ret
0x10011fec ret
0x10011fea add ch, byte ptr [ebx] ; ret
0x10011ff1 ret
0x10011fef add ebp, dword ptr [ebx] ; ret
0x10011ff6 ret
0x10011ff4 or byte ptr [ebx], ch ; ret
0x10011ffa ret
0x10011ff8 loopne 0x2d ; ret
0x100120b2 ret
0x100121a3 ret
0x100121a1 add byte ptr [eax], al ; ret
0x1001219f cmp byte ptr [ecx], al ; add byte ptr [eax], al ; ret
0x1001219d add esp, 0x138 ; ret
0x1001219c pop ebx ; add esp, 0x138 ; ret
0x1001219b pop ebp ; pop ebx ; add esp, 0x138 ; ret
0x1001219a pop esi ; pop ebp ; pop ebx ; add esp, 0x138 ; ret
0x10012199 pop edi ; pop esi ; pop ebp ; pop ebx ; add esp, 0x138 ; ret
0x100121db ret
0x1001239f ret
0x10012399 mov dword ptr [eax], 0x81000008 ; ret
0x1001250d ret
0x10012512 ret
0x100125af ret
0x100125ad add byte ptr [eax], al ; ret
0x100125a9 add esp, 0xa0 ; ret
0x100125a8 pop ebx ; add esp, 0xa0 ; ret
0x100125a7 pop ebp ; pop ebx ; add esp, 0xa0 ; ret
0x100125a6 pop esi ; pop ebp ; pop ebx ; add esp, 0xa0 ; ret
0x100125a5 pop edi ; pop esi ; pop ebp ; pop ebx ; add esp, 0xa0 ; ret
0x100126d1 ret
0x100126cb and byte ptr [ebx - 0x7ca7dbbc], cl ; ret
0x100127c8 ret
0x100127c7 inc esp ; ret
0x100127c5 add esp, 0x44 ; ret
0x100127c4 pop ebx ; add esp, 0x44 ; ret
0x100127c3 pop ebp ; pop ebx ; add esp, 0x44 ; ret
0x100127c2 pop esi ; pop ebp ; pop ebx ; add esp, 0x44 ; ret
0x100127c1 pop edi ; pop esi ; pop ebp ; pop ebx ; add esp, 0x44 ; ret
0x100127c0 lcall ptr [edi + 0x5e] ; pop ebp ; pop ebx ; add esp, 0x44 ; ret
0x1001280d ret
0x1001280b add al, 0xa ; ret
0x10012809 adc al, 0x88 ; add al, 0xa ; ret
0x10012808 and al, 0x14 ; mov byte ptr [edx + ecx], al ; ret
0x10012807 dec esp ; and al, 0x14 ; mov byte ptr [edx + ecx], al ; ret
0x10012806 mov ecx, dword ptr [esp + 0x14] ; mov byte ptr [edx + ecx], al ; ret
0x10012805 add byte ptr [ebx - 0x77ebdbb4], cl ; add al, 0xa ; ret
0x10012804 add byte ptr [eax], al ; mov ecx, dword ptr [esp + 0x14] ; mov byte ptr [edx + ecx], al ; ret
0x10012803 add byte ptr [eax], al ; add byte ptr [ebx - 0x77ebdbb4], cl ; add al, 0xa ; ret
0x1001281d ret
0x1001281a add esp, 4 ; ret
0x10012818 add byte ptr [eax], al ; add esp, 4 ; ret
0x10012817 outsd dx, dword ptr [esi] ; add byte ptr [eax], al ; add esp, 4 ; ret
0x10012816 cmpsb byte ptr [esi], byte ptr es:[edi] ; outsd dx, dword ptr [esi] ; add byte ptr [eax], al ; add esp, 4 ; ret
0x10012815 call 0x6fab ; add esp, 4 ; ret
0x10012814 push eax ; call 0x6fac ; add esp, 4 ; ret
0x10012813 or byte ptr [eax - 0x18], dl ; cmpsb byte ptr [esi], byte ptr es:[edi] ; outsd dx, dword ptr [esi] ; add byte ptr [eax], al ; add esp, 4 ; ret
0x1001282d ret
0x1001282a add esp, 4 ; ret
0x10012828 add byte ptr [eax], al ; add esp, 4 ; ret
0x10012827 outsd dx, dword ptr [esi] ; add byte ptr [eax], al ; add esp, 4 ; ret
0x10012826 outsd dx, dword ptr es:[esi] ; add byte ptr [eax], al ; add esp, 4 ; ret
0x10012825 call 0x6f2b ; add esp, 4 ; ret
0x10012824 push eax ; call 0x6f2c ; add esp, 4 ; ret
0x10012823 or byte ptr [eax - 0x18], dl ; outsd dx, dword ptr es:[esi] ; add byte ptr [eax], al ; add esp, 4 ; ret
0x10012840 ret
0x1001283e sub eax, ecx ; ret
0x1001283c and al, 0x10 ; sub eax, ecx ; ret
0x1001283b dec esp ; and al, 0x10 ; sub eax, ecx ; ret
0x1001283a mov ecx, dword ptr [esp + 0x10] ; sub eax, ecx ; ret
0x10012839 sub al, 0x8b ; dec esp ; and al, 0x10 ; sub eax, ecx ; ret
0x10012838 inc ecx ; sub al, 0x8b ; dec esp ; and al, 0x10 ; sub eax, ecx ; ret
0x10012837 mov eax, dword ptr [ecx + 0x2c] ; mov ecx, dword ptr [esp + 0x10] ; sub eax, ecx ; ret
0x10012836 add al, 0x8b ; inc ecx ; sub al, 0x8b ; dec esp ; and al, 0x10 ; sub eax, ecx ; ret
0x100128a2 ret
0x100128a1 pop esi ; ret
0x1001289f add dword ptr [eax], edx ; pop esi ; ret
0x1001289c or byte ptr [eax + 0x5e100129], dl ; ret
0x1001289b inc esi ; or byte ptr [eax + 0x5e100129], dl ; ret
0x1001289a mov dword ptr [esi + 8], 0x10012990 ; pop esi ; ret
0x10012899 adc bh, al ; inc esi ; or byte ptr [eax + 0x5e100129], dl ; ret
0x10012898 add dword ptr [eax], edx ; mov dword ptr [esi + 8], 0x10012990 ; pop esi ; ret
0x10012911 ret
0x10012910 pop esi ; ret
0x1001290f pop edi ; pop esi ; ret
0x1001290e add al, 0x5f ; pop esi ; ret
0x1001290d les eax, ptr [edi + ebx*2] ; pop esi ; ret
0x1001290c add esp, 4 ; pop edi ; pop esi ; ret
0x1001290b adc dword ptr [ebx + 0x5e5f04c4], eax ; ret
0x10012909 push cs ; call dword ptr [ecx] ; add esp, 4 ; pop edi ; pop esi ; ret
0x10012908 mov ecx, dword ptr [esi] ; call dword ptr [ecx] ; add esp, 4 ; pop edi ; pop esi ; ret
0x10012907 add byte ptr [ebx - 0x7cee00f2], cl ; les eax, ptr [edi + ebx*2] ; pop esi ; ret
0x10012981 ret
0x10012980 pop esi ; ret
0x1001297f pop edi ; pop esi ; ret
0x1001297e add al, 0x5f ; pop esi ; ret
0x1001297d les eax, ptr [edi + ebx*2] ; pop esi ; ret
0x1001297c add esp, 4 ; pop edi ; pop esi ; ret
0x1001297b adc dword ptr [ebx + 0x5e5f04c4], eax ; ret
0x1001297a call dword ptr [ecx] ; add esp, 4 ; pop edi ; pop esi ; ret
0x10012979 push cs ; call dword ptr [ecx] ; add esp, 4 ; pop edi ; pop esi ; ret
0x10012978 mov ecx, dword ptr [esi] ; call dword ptr [ecx] ; add esp, 4 ; pop edi ; pop esi ; ret
0x10012977 add byte ptr [ebx - 0x7cee00f2], cl ; les eax, ptr [edi + ebx*2] ; pop esi ; ret
0x100129a0 ret
0x1001299d add esp, 4 ; ret
0x1001299b add byte ptr [eax], al ; add esp, 4 ; ret
0x10012998 call 0x7918 ; add esp, 4 ; ret
0x10012997 push ecx ; call 0x7919 ; add esp, 4 ; ret
0x10012996 or al, 0x51 ; call 0x791a ; add esp, 4 ; ret
0x100129b5 ret
0x100129b0 mov eax, 0xf4240 ; ret
0x100129af nop ; mov eax, 0xf4240 ; ret
0x100129ae nop ; nop ; mov eax, 0xf4240 ; ret
0x100129ad nop ; nop ; nop ; mov eax, 0xf4240 ; ret
0x100129ac nop ; nop ; nop ; nop ; mov eax, 0xf4240 ; ret
0x100129ab nop ; nop ; nop ; nop ; nop ; mov eax, 0xf4240 ; ret
0x10012a8e ret
0x10012a8c add al, 0x3b ; ret
0x10012a8b les eax, ptr [ebx + edi] ; ret
0x10012ae1 ret
0x10012ae0 pop ecx ; ret
0x10012adf pop ebx ; pop ecx ; ret
0x10012ade pop esi ; pop ebx ; pop ecx ; ret
0x10012add pop edi ; pop esi ; pop ebx ; pop ecx ; ret
0x10012adc sub al, 0x5f ; pop esi ; pop ebx ; pop ecx ; ret
0x10012adb inc esi ; sub al, 0x5f ; pop esi ; pop ebx ; pop ecx ; ret
0x10012ada mov dword ptr [esi + 0x2c], eax ; pop edi ; pop esi ; pop ebx ; pop ecx ; ret
0x10012ad9 add ecx, dword ptr [ecx + 0x5e5f2c46] ; pop ebx ; pop ecx ; ret
0x10012ad8 loopne 5 ; mov dword ptr [esi + 0x2c], eax ; pop edi ; pop esi ; pop ebx ; pop ecx ; ret
0x10012ad7 shl eax, 3 ; mov dword ptr [esi + 0x2c], eax ; pop edi ; pop esi ; pop ebx ; pop ecx ; ret
0x10012af9 ret
0x10012af8 pop ecx ; ret
0x10012af7 pop ebx ; pop ecx ; ret
0x10012af6 pop esi ; pop ebx ; pop ecx ; ret
0x10012af5 pop edi ; pop esi ; pop ebx ; pop ecx ; ret
0x10012af4 sub al, 0x5f ; pop esi ; pop ebx ; pop ecx ; ret
0x10012af3 inc esi ; sub al, 0x5f ; pop esi ; pop ebx ; pop ecx ; ret
0x10012af2 mov dword ptr [esi + 0x2c], eax ; pop edi ; pop esi ; pop ebx ; pop ecx ; ret
0x10012af1 add ecx, dword ptr [ecx + 0x5e5f2c46] ; pop ebx ; pop ecx ; ret
0x10012af0 loopne 5 ; mov dword ptr [esi + 0x2c], eax ; pop edi ; pop esi ; pop ebx ; pop ecx ; ret
0x10012aef shl eax, 3 ; mov dword ptr [esi + 0x2c], eax ; pop edi ; pop esi ; pop ebx ; pop ecx ; ret
0x10012c2c ret
0x10012c2b pop ebx ; ret
0x10012c2a ret 0xc35b
0x10012c29 mov eax, edx ; pop ebx ; ret
0x10012c28 pop ebp ; mov eax, edx ; pop ebx ; ret
0x10012c27 or byte ptr [ebp - 0x75], bl ; ret 0xc35b
0x10012c26 dec eax ; or byte ptr [ebp - 0x75], bl ; ret 0xc35b
0x10012c25 mov dword ptr [eax + 8], ecx ; pop ebp ; mov eax, edx ; pop ebx ; ret
0x10012c24 pop esi ; mov dword ptr [eax + 8], ecx ; pop ebp ; mov eax, edx ; pop ebx ; ret
0x10012c23 pop edi ; pop esi ; mov dword ptr [eax + 8], ecx ; pop ebp ; mov eax, edx ; pop ebx ; ret
0x10012c22 iretd ; pop edi ; pop esi ; mov dword ptr [eax + 8], ecx ; pop ebp ; mov eax, edx ; pop ebx ; ret
0x10012c4e ret
0x10012c4b add esp, 4 ; ret
0x10012c49 call dword ptr [edx] ; add esp, 4 ; ret
0x10012c47 mov edx, dword ptr [eax] ; call dword ptr [edx] ; add esp, 4 ; ret
0x10012c44 mov dword ptr [edx + 0x18], ecx ; mov edx, dword ptr [eax] ; call dword ptr [edx] ; add esp, 4 ; ret
0x10012cf0 ret
0x10012cef pop ebx ; ret
0x10012cee pop ebp ; pop ebx ; ret
0x10012ced pop esi ; pop ebp ; pop ebx ; ret
0x10012cec pop edi ; pop esi ; pop ebp ; pop ebx ; ret
0x10012ceb adc byte ptr [edi + 0x5e], bl ; pop ebp ; pop ebx ; ret
0x10012cea inc esi ; adc byte ptr [edi + 0x5e], bl ; pop ebp ; pop ebx ; ret
0x10012ce9 lea eax, dword ptr [esi + 0x10] ; pop edi ; pop esi ; pop ebp ; pop ebx ; ret
0x10012ce8 cmp byte ptr [ebp + 0x5e5f1046], cl ; pop ebp ; pop ebx ; ret
0x10012ce7 cmp dword ptr [eax], -0x73 ; inc esi ; adc byte ptr [edi + 0x5e], bl ; pop ebp ; pop ebx ; ret
0x10012ce6 je 0xffffff85 ; cmp byte ptr [ebp + 0x5e5f1046], cl ; pop ebp ; pop ebx ; ret
0x10012d72 ret
0x10012d71 scasd eax, dword ptr es:[edi] ; ret
0x10012d6f sbb byte ptr [edi], cl ; scasd eax, dword ptr es:[edi] ; ret
0x10012d97 ret
0x10012d95 add al, 3 ; ret
0x10012da7 ret
0x10012da6 pop ebx ; ret
0x10012da5 pop ebp ; pop ebx ; ret
0x10012da4 pop esi ; pop ebp ; pop ebx ; ret
0x10012da3 pop edi ; pop esi ; pop ebp ; pop ebx ; ret
0x10012da2 sbb al, 0x5f ; pop esi ; pop ebp ; pop ebx ; ret
0x10012da1 and al, 0x1c ; pop edi ; pop esi ; pop ebp ; pop ebx ; ret
0x10012da0 inc esp ; and al, 0x1c ; pop edi ; pop esi ; pop ebp ; pop ebx ; ret
0x10012d9f mov eax, dword ptr [esp + 0x1c] ; pop edi ; pop esi ; pop ebp ; pop ebx ; ret
0x10012d9e ror dword ptr [ebx + 0x5f1c2444], 0x5e ; pop ebp ; pop ebx ; ret
0x10012d9d jb 0xffffffc3 ; mov eax, dword ptr [esp + 0x1c] ; pop edi ; pop esi ; pop ebp ; pop ebx ; ret
0x10012e4f ret
0x10012e4d add al, 3 ; ret
0x10012e5f ret
0x10012e5e pop ebx ; ret
0x10012e5d pop ebp ; pop ebx ; ret
0x10012e5c pop esi ; pop ebp ; pop ebx ; ret
0x10012e5b pop edi ; pop esi ; pop ebp ; pop ebx ; ret
0x10012e5a and byte ptr [edi + 0x5e], bl ; pop ebp ; pop ebx ; ret
0x10012e59 and al, 0x20 ; pop edi ; pop esi ; pop ebp ; pop ebx ; ret
0x10012e58 inc esp ; and al, 0x20 ; pop edi ; pop esi ; pop ebp ; pop ebx ; ret
0x10012e57 mov eax, dword ptr [esp + 0x20] ; pop edi ; pop esi ; pop ebp ; pop ebx ; ret
0x10012e56 mov esp, 0x2024448b ; pop edi ; pop esi ; pop ebp ; pop ebx ; ret
0x10012e55 jb 0xffffffbe ; mov eax, dword ptr [esp + 0x20] ; pop edi ; pop esi ; pop ebp ; pop ebx ; ret
0x10012ecd ret
0x10012ecc pop ebx ; ret
0x10012ecb pop esi ; pop ebx ; ret
0x10012eca pop edi ; pop esi ; pop ebx ; ret
0x10012ec9 inc eax ; pop edi ; pop esi ; pop ebx ; ret
0x10012ec8 inc edi ; inc eax ; pop edi ; pop esi ; pop ebx ; ret
0x10012ec7 mov dword ptr [edi + 0x40], eax ; pop edi ; pop esi ; pop ebx ; ret
0x10012ec6 sub al, 0x89 ; inc edi ; inc eax ; pop edi ; pop esi ; pop ebx ; ret
0x10012ec5 dec eax ; sub al, 0x89 ; inc edi ; inc eax ; pop edi ; pop esi ; pop ebx ; ret
0x10012ec4 mov dword ptr [eax + 0x2c], ecx ; mov dword ptr [edi + 0x40], eax ; pop edi ; pop esi ; pop ebx ; ret
0x10012ec3 or al, 0x89 ; dec eax ; sub al, 0x89 ; inc edi ; inc eax ; pop edi ; pop esi ; pop ebx ; ret
0x10012f3d ret
0x10012f3c pop ebx ; ret
0x10012f3b pop esi ; pop ebx ; ret
0x10012f3a pop edi ; pop esi ; pop ebx ; ret
0x10012f39 inc esp ; pop edi ; pop esi ; pop ebx ; ret
0x10012f38 inc edi ; inc esp ; pop edi ; pop esi ; pop ebx ; ret
0x10012f37 mov dword ptr [edi + 0x44], eax ; pop edi ; pop esi ; pop ebx ; ret
0x10012f36 sub al, 0x89 ; inc edi ; inc esp ; pop edi ; pop esi ; pop ebx ; ret
0x10012f35 dec eax ; sub al, 0x89 ; inc edi ; inc esp ; pop edi ; pop esi ; pop ebx ; ret
0x10012f34 mov dword ptr [eax + 0x2c], ecx ; mov dword ptr [edi + 0x44], eax ; pop edi ; pop esi ; pop ebx ; ret
0x10012f33 or al, 0x89 ; dec eax ; sub al, 0x89 ; inc edi ; inc esp ; pop edi ; pop esi ; pop ebx ; ret
0x100130d6 ret
0x100130d5 pop ebx ; ret
0x100130d4 pop ebp ; pop ebx ; ret
0x100130d3 pop esi ; pop ebp ; pop ebx ; ret
0x100130d2 pop edi ; pop esi ; pop ebp ; pop ebx ; ret
0x100130d0 jne 0xffffff91 ; pop edi ; pop esi ; pop ebp ; pop ebx ; ret
0x100130cf cmc ; jne 0xffffff92 ; pop edi ; pop esi ; pop ebp ; pop ebx ; ret
0x100130ce cmp esi, ebp ; jne 0xffffff93 ; pop edi ; pop esi ; pop ebp ; pop ebx ; ret
0x100130cd sub al, 0x3b ; cmc ; jne 0xffffff94 ; pop edi ; pop esi ; pop ebp ; pop ebx ; ret
0x100130cc jbe 0x2e ; cmp esi, ebp ; jne 0xffffff95 ; pop edi ; pop esi ; pop ebp ; pop ebx ; ret
0x1001316d ret
0x1001321d ret
0x1001321c pop ebx ; ret
0x1001321a add al, 0x82 ; pop ebx ; ret
0x10013219 lea eax, dword ptr [edx + eax*4] ; pop ebx ; ret
0x10013218 pop ebp ; lea eax, dword ptr [edx + eax*4] ; pop ebx ; ret
0x10013217 pop esi ; pop ebp ; lea eax, dword ptr [edx + eax*4] ; pop ebx ; ret
0x10013216 pop edi ; pop esi ; pop ebp ; lea eax, dword ptr [edx + eax*4] ; pop ebx ; ret
0x10013215 rcr dword ptr [edi + 0x5e], 0x5d ; lea eax, dword ptr [edx + eax*4] ; pop ebx ; ret
0x10013214 sub eax, ecx ; pop edi ; pop esi ; pop ebp ; lea eax, dword ptr [edx + eax*4] ; pop ebx ; ret
0x10013213 push ss ; sub eax, ecx ; pop edi ; pop esi ; pop ebp ; lea eax, dword ptr [edx + eax*4] ; pop ebx ; ret
0x10013272 ret
0x10013271 scasd eax, dword ptr es:[edi] ; ret
0x1001326d sar byte ptr [esi + 0x47], 0xf ; scasd eax, dword ptr es:[edi] ; ret
0x100132bb ret
0x100132ba pop ebx ; ret
0x100132b9 pop ebp ; pop ebx ; ret
0x100132b8 pop esi ; pop ebp ; pop ebx ; ret
0x100132b7 pop edi ; pop esi ; pop ebp ; pop ebx ; ret
0x100132b6 mov dword ptr [edi + 0x5e], ebx ; pop ebp ; pop ebx ; ret
0x100132b5 jl 0xffffff8b ; pop edi ; pop esi ; pop ebp ; pop ebx ; ret
0x100132b4 clc ; jl 0xffffff8c ; pop edi ; pop esi ; pop ebp ; pop ebx ; ret
0x100132b3 cmp edi, eax ; jl 0xffffff8d ; pop edi ; pop esi ; pop ebp ; pop ebx ; ret
0x100132b2 jmp 0x3d ; clc ; jl 0xffffff8e ; pop edi ; pop esi ; pop ebp ; pop ebx ; ret
0x100132b1 add ebp, ebx ; cmp edi, eax ; jl 0xffffff8f ; pop edi ; pop esi ; pop ebp ; pop ebx ; ret
0x100133f8 ret
0x100133f7 pop ebx ; ret
0x100133f5 add al, 0x82 ; pop ebx ; ret
0x100133f4 lea eax, dword ptr [edx + eax*4] ; pop ebx ; ret
0x100133f3 pop ebp ; lea eax, dword ptr [edx + eax*4] ; pop ebx ; ret
0x100133f2 pop esi ; pop ebp ; lea eax, dword ptr [edx + eax*4] ; pop ebx ; ret
0x100133f1 pop edi ; pop esi ; pop ebp ; lea eax, dword ptr [edx + eax*4] ; pop ebx ; ret
0x100133f0 rcr dword ptr [edi + 0x5e], 0x5d ; lea eax, dword ptr [edx + eax*4] ; pop ebx ; ret
0x100133ef sub eax, ecx ; pop edi ; pop esi ; pop ebp ; lea eax, dword ptr [edx + eax*4] ; pop ebx ; ret
0x100133ee push ss ; sub eax, ecx ; pop edi ; pop esi ; pop ebp ; lea eax, dword ptr [edx + eax*4] ; pop ebx ; ret
0x10013455 ret
0x10013454 scasd eax, dword ptr es:[edi] ; ret
0x10013450 sar byte ptr [esi + 0x47], 0xf ; scasd eax, dword ptr es:[edi] ; ret
0x1001349e ret
0x1001349d pop ebx ; ret
0x1001349c pop ebp ; pop ebx ; ret
0x1001349b pop esi ; pop ebp ; pop ebx ; ret
0x1001349a pop edi ; pop esi ; pop ebp ; pop ebx ; ret
0x10013499 mov dword ptr [edi + 0x5e], ebx ; pop ebp ; pop ebx ; ret
0x10013498 jl 0xffffff8b ; pop edi ; pop esi ; pop ebp ; pop ebx ; ret
0x10013497 clc ; jl 0xffffff8c ; pop edi ; pop esi ; pop ebp ; pop ebx ; ret
0x10013496 cmp edi, eax ; jl 0xffffff8d ; pop edi ; pop esi ; pop ebp ; pop ebx ; ret
0x10013495 jmp 0x3d ; clc ; jl 0xffffff8e ; pop edi ; pop esi ; pop ebp ; pop ebx ; ret
0x10013494 add ebp, ebx ; cmp edi, eax ; jl 0xffffff8f ; pop edi ; pop esi ; pop ebp ; pop ebx ; ret
0x1001352d ret
0x1001352b cmp byte ptr [ebx], bh ; ret
0x10013527 cmp byte ptr [ecx + 0x3b38be5c], cl ; ret
0x10013526 mov esi, 0xbe5c8938 ; cmp byte ptr [ebx], bh ; ret
0x10013525 inc esp ; mov esi, 0xbe5c8938 ; cmp byte ptr [ebx], bh ; ret
0x10013564 ret
0x10013562 xor byte ptr [ebx], bh ; ret
0x1001355e xor byte ptr [ecx + 0x3b30be5c], cl ; ret
0x1001355d mov esi, 0xbe5c8930 ; xor byte ptr [ebx], bh ; ret
0x1001355c inc esp ; mov esi, 0xbe5c8930 ; xor byte ptr [ebx], bh ; ret
0x10013590 ret
0x1001358f pop ebx ; ret
0x1001358e pop ebp ; pop ebx ; ret
0x1001358d pop esi ; pop ebp ; pop ebx ; ret
0x1001358c pop edi ; pop esi ; pop ebp ; pop ebx ; ret
0x1001358b fistp dword ptr [edi + 0x5e] ; pop ebp ; pop ebx ; ret
0x1001358a jne 0xffffffdd ; pop edi ; pop esi ; pop ebp ; pop ebx ; ret
0x10013589 dec eax ; jne 0xffffffde ; pop edi ; pop esi ; pop ebp ; pop ebx ; ret
0x10013588 push esi ; dec eax ; jne 0xffffffdf ; pop edi ; pop esi ; pop ebp ; pop ebx ; ret
0x10013587 mov dword ptr [esi + 0x48], edx ; jne 0xffffffe0 ; pop edi ; pop esi ; pop ebp ; pop ebx ; ret
0x10013586 dec dword ptr [ecx - 0x248ab7aa] ; pop edi ; pop esi ; pop ebp ; pop ebx ; ret
0x100135d9 ret
0x100135d8 pop esi ; ret
0x100135d7 pop edi ; pop esi ; ret
0x100135d6 add al, 0x5f ; pop esi ; ret
0x100135d5 les eax, ptr [edi + ebx*2] ; pop esi ; ret
0x100135d4 add esp, 4 ; pop edi ; pop esi ; ret
0x100135d3 add byte ptr [ebx + 0x5e5f04c4], al ; ret
0x100135d2 add byte ptr [eax], al ; add esp, 4 ; pop edi ; pop esi ; ret
0x100135d1 bound eax, qword ptr [eax] ; add byte ptr [ebx + 0x5e5f04c4], al ; ret
0x100135d0 fsub qword ptr [edx] ; add byte ptr [ebx + 0x5e5f04c4], al ; ret
0x100135cf call 0x62e1 ; add esp, 4 ; pop edi ; pop esi ; ret
0x10013649 ret
0x10013647 add byte ptr [eax], al ; ret
0x10013643 add esp, 0x1f4 ; ret
0x10013642 pop ebx ; add esp, 0x1f4 ; ret
0x10013641 pop ebp ; pop ebx ; add esp, 0x1f4 ; ret
0x10013640 pop esi ; pop ebp ; pop ebx ; add esp, 0x1f4 ; ret
0x1001363f pop edi ; pop esi ; pop ebp ; pop ebx ; add esp, 0x1f4 ; ret
0x10013675 ret
0x10013673 add byte ptr [eax], al ; ret
0x1001366f add esp, 0x1f4 ; ret
0x1001366e pop ebx ; add esp, 0x1f4 ; ret
0x1001366d pop ebp ; pop ebx ; add esp, 0x1f4 ; ret
0x1001366c pop esi ; pop ebp ; pop ebx ; add esp, 0x1f4 ; ret
0x1001366b pop edi ; pop esi ; pop ebp ; pop ebx ; add esp, 0x1f4 ; ret
0x100136a2 ret
0x100136a0 add byte ptr [eax], al ; ret
0x1001369c add esp, 0x1f4 ; ret
0x1001369b pop ebx ; add esp, 0x1f4 ; ret
0x1001369a pop ebp ; pop ebx ; add esp, 0x1f4 ; ret
0x10013699 pop esi ; pop ebp ; pop ebx ; add esp, 0x1f4 ; ret
0x10013698 pop edi ; pop esi ; pop ebp ; pop ebx ; add esp, 0x1f4 ; ret
0x100136ad ret
0x100136b3 ret
0x10013734 ret
0x10013733 scasd eax, dword ptr es:[edi] ; ret
0x10013730 ror dword ptr [eax + 0xf], -0x51 ; ret
0x1001372e adc byte ptr [ebx], ch ; ror dword ptr [eax + 0xf], -0x51 ; ret
0x100137b5 ret
0x100137b3 add byte ptr [eax], al ; ret
0x100137af add esp, 0x1f4 ; ret
0x100137ae pop ebx ; add esp, 0x1f4 ; ret
0x100137ad pop ebp ; pop ebx ; add esp, 0x1f4 ; ret
0x100137ac pop esi ; pop ebp ; pop ebx ; add esp, 0x1f4 ; ret
0x100137ab pop edi ; pop esi ; pop ebp ; pop ebx ; add esp, 0x1f4 ; ret
0x10013809 ret
0x10013808 pop ebp ; ret
0x10013807 in eax, 0x5d ; ret
0x10013806 mov esp, ebp ; pop ebp ; ret
0x10013805 pop ebx ; mov esp, ebp ; pop ebp ; ret
0x10013804 pop esi ; pop ebx ; mov esp, ebp ; pop ebp ; ret
0x10013803 pop edi ; pop esi ; pop ebx ; mov esp, ebp ; pop ebp ; ret
0x10013802 rcr byte ptr [edi + 0x5e], 0x5b ; mov esp, ebp ; pop ebp ; ret
0x10013801 xor eax, eax ; pop edi ; pop esi ; pop ebx ; mov esp, ebp ; pop ebp ; ret
0x10013800 or al, 0x33 ; rcr byte ptr [edi + 0x5e], 0x5b ; mov esp, ebp ; pop ebp ; ret
0x100137ff les ecx, ptr [ebx + esi] ; rcr byte ptr [edi + 0x5e], 0x5b ; mov esp, ebp ; pop ebp ; ret
0x10013861 ret
0x10013860 pop ebp ; ret
0x1001385f in eax, 0x5d ; ret
0x1001385e mov esp, ebp ; pop ebp ; ret
0x1001385d pop ebx ; mov esp, ebp ; pop ebp ; ret
0x1001385c pop esi ; pop ebx ; mov esp, ebp ; pop ebp ; ret
0x1001385b pop edi ; pop esi ; pop ebx ; mov esp, ebp ; pop ebp ; ret
0x1001385a rcr byte ptr [edi + 0x5e], 0x5b ; mov esp, ebp ; pop ebp ; ret
0x10013859 xor eax, eax ; pop edi ; pop esi ; pop ebx ; mov esp, ebp ; pop ebp ; ret
0x10013858 add al, 0x33 ; rcr byte ptr [edi + 0x5e], 0x5b ; mov esp, ebp ; pop ebp ; ret
0x10013857 les eax, ptr [ebx + esi] ; rcr byte ptr [edi + 0x5e], 0x5b ; mov esp, ebp ; pop ebp ; ret
0x100138d9 ret
0x100138db ret
0x100138d9 ret
0x1001394c ret
0x1001394b pop ebp ; ret
0x1001394a in eax, 0x5d ; ret
0x10013949 mov esp, ebp ; pop ebp ; ret
0x10013948 pop ebx ; mov esp, ebp ; pop ebp ; ret
0x10013947 pop esi ; pop ebx ; mov esp, ebp ; pop ebp ; ret
0x10013946 pop edi ; pop esi ; pop ebx ; mov esp, ebp ; pop ebp ; ret
0x10013945 rcr byte ptr [edi + 0x5e], 0x5b ; mov esp, ebp ; pop ebp ; ret
0x10013944 xor eax, eax ; pop edi ; pop esi ; pop ebx ; mov esp, ebp ; pop ebp ; ret
0x10013943 add al, 0x33 ; rcr byte ptr [edi + 0x5e], 0x5b ; mov esp, ebp ; pop ebp ; ret
0x10013942 les eax, ptr [ebx + esi] ; rcr byte ptr [edi + 0x5e], 0x5b ; mov esp, ebp ; pop ebp ; ret
0x10013a55 ret
0x10013a54 pop ebp ; ret
0x10013a53 in eax, 0x5d ; ret
0x10013a52 mov esp, ebp ; pop ebp ; ret
0x10013a51 pop ebx ; mov esp, ebp ; pop ebp ; ret
0x10013a50 pop esi ; pop ebx ; mov esp, ebp ; pop ebp ; ret
0x10013a4f pop edi ; pop esi ; pop ebx ; mov esp, ebp ; pop ebp ; ret
0x10013a4d mov eax, esi ; pop edi ; pop esi ; pop ebx ; mov esp, ebp ; pop ebp ; ret
0x10013a4c add byte ptr [ebx + 0x5b5e5fc6], cl ; mov esp, ebp ; pop ebp ; ret
0x10013a4b add byte ptr [eax], al ; mov eax, esi ; pop edi ; pop esi ; pop ebx ; mov esp, ebp ; pop ebp ; ret
0x10013a80 ret
0x10013a7f pop esi ; ret
0x10013a7d les ecx, ptr [eax] ; pop esi ; ret
0x10013a7c add esp, 8 ; pop esi ; ret
0x10013a7a add byte ptr [eax], al ; add esp, 8 ; pop esi ; ret
0x10013a77 call 0x6ad5 ; add esp, 8 ; pop esi ; ret
0x10013a76 push esi ; call 0x6ad6 ; add esp, 8 ; pop esi ; ret
0x10013ad7 ret
0x10013ad6 pop ebp ; ret
0x10013ad5 in eax, 0x5d ; ret
0x10013ad4 mov esp, ebp ; pop ebp ; ret
0x10013ad3 pop esi ; mov esp, ebp ; pop ebp ; ret
0x10013ad2 pop edi ; pop esi ; mov esp, ebp ; pop ebp ; ret
0x10013ad1 rcr byte ptr [edi + 0x5e], 0x8b ; in eax, 0x5d ; ret
0x10013ad0 xor eax, eax ; pop edi ; pop esi ; mov esp, ebp ; pop ebp ; ret
0x10013acf or al, 0x33 ; rcr byte ptr [edi + 0x5e], 0x8b ; in eax, 0x5d ; ret
0x10013ace les ecx, ptr [ebx + esi] ; rcr byte ptr [edi + 0x5e], 0x8b ; in eax, 0x5d ; ret
0x10013acd add esp, 0xc ; xor eax, eax ; pop edi ; pop esi ; mov esp, ebp ; pop ebp ; ret
0x10013b2e ret
0x10013b2d pop ebp ; ret
0x10013b2c in eax, 0x5d ; ret
0x10013b2b mov esp, ebp ; pop ebp ; ret
0x10013b2a pop esi ; mov esp, ebp ; pop ebp ; ret
0x10013b29 pop edi ; pop esi ; mov esp, ebp ; pop ebp ; ret
0x10013b28 rcr byte ptr [edi + 0x5e], 0x8b ; in eax, 0x5d ; ret
0x10013b27 xor eax, eax ; pop edi ; pop esi ; mov esp, ebp ; pop ebp ; ret
0x10013b26 add al, 0x33 ; rcr byte ptr [edi + 0x5e], 0x8b ; in eax, 0x5d ; ret
0x10013b25 les eax, ptr [ebx + esi] ; rcr byte ptr [edi + 0x5e], 0x8b ; in eax, 0x5d ; ret
0x10013b24 add esp, 4 ; xor eax, eax ; pop edi ; pop esi ; mov esp, ebp ; pop ebp ; ret
0x10013c1e ret
0x10013c1d pop ebp ; ret
0x10013c1c in eax, 0x5d ; ret
0x10013c1b mov esp, ebp ; pop ebp ; ret
0x10013c1a pop esi ; mov esp, ebp ; pop ebp ; ret
0x10013c19 pop edi ; pop esi ; mov esp, ebp ; pop ebp ; ret
0x10013c18 add byte ptr [edi + 0x5e], bl ; mov esp, ebp ; pop ebp ; ret
0x10013c17 add byte ptr [eax], al ; pop edi ; pop esi ; mov esp, ebp ; pop ebp ; ret
0x10013c16 add byte ptr [eax], al ; add byte ptr [edi + 0x5e], bl ; mov esp, ebp ; pop ebp ; ret
0x10013c15 add dword ptr [eax], eax ; add byte ptr [eax], al ; pop edi ; pop esi ; mov esp, ebp ; pop ebp ; ret
0x10013c14 mov eax, 1 ; pop edi ; pop esi ; mov esp, ebp ; pop ebp ; ret
0x10013cbc ret
0x10013cbb pop esi ; ret
0x10013cba add al, 0x5e ; ret
0x10013cb9 les eax, ptr [esi + ebx*2] ; ret
0x10013cb8 add esp, 4 ; pop esi ; ret
0x10013cb6 add byte ptr [eax], al ; add esp, 4 ; pop esi ; ret
0x10013cb4 call 0x83000008 ; les eax, ptr [esi + ebx*2] ; ret
0x10013cb3 call 0x3ed ; add esp, 4 ; pop esi ; ret
0x10013cb2 push esi ; call 0x3ee ; add esp, 4 ; pop esi ; ret
0x10013dd5 ret
0x10013def ret
0x10013e21 ret
0x10013e1e add esp, 0x24 ; ret
0x10013e1d pop ebx ; add esp, 0x24 ; ret
0x10013e1c pop ebp ; pop ebx ; add esp, 0x24 ; ret
0x10013e1b pop esi ; pop ebp ; pop ebx ; add esp, 0x24 ; ret
0x10013e1a pop edi ; pop esi ; pop ebp ; pop ebx ; add esp, 0x24 ; ret
0x10013e19 adc al, 0x5f ; pop esi ; pop ebp ; pop ebx ; add esp, 0x24 ; ret
0x10013e18 ja 0x16 ; pop edi ; pop esi ; pop ebp ; pop ebx ; add esp, 0x24 ; ret
0x10013e17 mov dword ptr [edi + 0x14], esi ; pop edi ; pop esi ; pop ebp ; pop ebx ; add esp, 0x24 ; ret
0x10013e53 ret
0x10013e5b ret
0x10013e5a scasd eax, dword ptr es:[edi] ; ret
0x10013e58 dec dword ptr [edi] ; scasd eax, dword ptr es:[edi] ; ret
0x10013e57 dec esi ; dec dword ptr [edi] ; scasd eax, dword ptr es:[edi] ; ret
0x10013e55 or dword ptr [ebp - 0x50f000b2], ecx ; ret
0x10013e51 add dword ptr [ebx - 0x72f6813d], ecx ; dec esi ; dec dword ptr [edi] ; scasd eax, dword ptr es:[edi] ; ret
0x10013e8f ret
0x10013f16 ret
0x10013f14 les edx, ptr [eax] ; ret
0x10013f13 add esp, 0x10 ; ret
0x10013f12 pop ebx ; add esp, 0x10 ; ret
0x10013f11 pop ebp ; pop ebx ; add esp, 0x10 ; ret
0x10013f10 pop esi ; pop ebp ; pop ebx ; add esp, 0x10 ; ret
0x10013f0f lds ebx, ptr [esi + 0x5d] ; pop ebx ; add esp, 0x10 ; ret
0x10013f0e mov eax, ebp ; pop esi ; pop ebp ; pop ebx ; add esp, 0x10 ; ret
0x10013f0d pop edi ; mov eax, ebp ; pop esi ; pop ebp ; pop ebx ; add esp, 0x10 ; ret
0x10013f3d ret
0x10013f3c pop esi ; ret
0x10013f3a idiv esi ; pop esi ; ret
0x10013f39 cdq ; idiv esi ; pop esi ; ret
0x10013f38 ret 0xf799
0x10013f37 add eax, edx ; cdq ; idiv esi ; pop esi ; ret
0x10013f36 rol dword ptr [ebx], 1 ; ret 0xf799
0x10013f35 sub edx, ecx ; add eax, edx ; cdq ; idiv esi ; pop esi ; ret
0x10013f34 clc ; sub edx, ecx ; add eax, edx ; cdq ; idiv esi ; pop esi ; ret
0x10013f33 sar eax, 1 ; sub edx, ecx ; add eax, edx ; cdq ; idiv esi ; pop esi ; ret
0x10014018 ret
0x1001407b ret
0x10014078 add esp, 0x14 ; ret
0x10014077 pop ebx ; add esp, 0x14 ; ret
0x10014076 pop ebp ; pop ebx ; add esp, 0x14 ; ret
0x10014075 pop esi ; pop ebp ; pop ebx ; add esp, 0x14 ; ret
0x10014074 pop edi ; pop esi ; pop ebp ; pop ebx ; add esp, 0x14 ; ret
0x10014073 lcall ptr [edi + 0x5e] ; pop ebp ; pop ebx ; add esp, 0x14 ; ret
0x1001409b ret
0x1001409a stc ; ret
0x10014099 idiv ecx ; ret
0x10014098 cdq ; idiv ecx ; ret
0x10014097 leave ; cdq ; idiv ecx ; ret
0x10014096 add ecx, ecx ; cdq ; idiv ecx ; ret
0x10014095 add byte ptr [ebx], al ; leave ; cdq ; idiv ecx ; ret
0x10014094 add byte ptr [eax], al ; add ecx, ecx ; cdq ; idiv ecx ; ret
0x10014093 add byte ptr [eax], al ; add byte ptr [ebx], al ; leave ; cdq ; idiv ecx ; ret
0x10014092 inc dword ptr [eax] ; add byte ptr [eax], al ; add ecx, ecx ; cdq ; idiv ecx ; ret
0x10014091 push ecx ; inc dword ptr [eax] ; add byte ptr [eax], al ; add ecx, ecx ; cdq ; idiv ecx ; ret
0x100140d5 ret
0x100140cf add ecx, dword ptr [ebx - 0x7cb887ba] ; ret
0x100140cd or al, 0x89 ; add ecx, dword ptr [ebx - 0x7cb887ba] ; ret
0x100140cc les ecx, ptr [ecx + ecx*4] ; add ecx, dword ptr [ebx - 0x7cb887ba] ; ret
0x100140df ret
0x100140de pop ebp ; ret
0x100140dd pop esi ; pop ebp ; ret
0x100140dc pop edi ; pop esi ; pop ebp ; ret
0x100140db pop ebx ; pop edi ; pop esi ; pop ebp ; ret
0x100140da out 0x5b, al ; pop edi ; pop esi ; pop ebp ; ret
0x100140d9 jl 0xffffffe8 ; pop ebx ; pop edi ; pop esi ; pop ebp ; ret
0x100140d8 clc ; jl 0xffffffe9 ; pop ebx ; pop edi ; pop esi ; pop ebp ; ret
0x100140d7 cmp edi, eax ; jl 0xffffffea ; pop ebx ; pop edi ; pop esi ; pop ebp ; ret
0x100140d6 add al, 0x3b ; clc ; jl 0xffffffeb ; pop ebx ; pop edi ; pop esi ; pop ebp ; ret
0x100140d5 ret ; add al, 0x3b ; clc ; jl 0xffffffec ; pop ebx ; pop edi ; pop esi ; pop ebp ; ret
0x10014128 ret
0x10014127 pop ebx ; ret
0x10014126 pop ebp ; pop ebx ; ret
0x10014125 pop esi ; pop ebp ; pop ebx ; ret
0x10014124 pop edi ; pop esi ; pop ebp ; pop ebx ; ret
0x10014123 add al, 0x5f ; pop esi ; pop ebp ; pop ebx ; ret
0x10014122 les eax, ptr [edi + ebx*2] ; pop esi ; pop ebp ; pop ebx ; ret
0x10014121 add esp, 4 ; pop edi ; pop esi ; pop ebp ; pop ebx ; ret
0x10014120 adc byte ptr [ebx + 0x5e5f04c4], al ; pop ebp ; pop ebx ; ret
0x1001411f call dword ptr [eax] ; add esp, 4 ; pop edi ; pop esi ; pop ebp ; pop ebx ; ret
0x1001411e push es ; call dword ptr [eax] ; add esp, 4 ; pop edi ; pop esi ; pop ebp ; pop ebx ; ret
0x10014137 ret
0x10014165 ret
0x10014162 or byte ptr [edi - 0x7d], al ; ret
0x1001415c add byte ptr [ebx - 0x3b7c87ba], cl ; or byte ptr [edi - 0x7d], al ; ret
0x1001416f ret
0x1001416e pop ebx ; ret
0x1001416d pop ebp ; pop ebx ; ret
0x1001416c pop esi ; pop ebp ; pop ebx ; ret
0x1001416b pop edi ; pop esi ; pop ebp ; pop ebx ; ret
0x1001416a jmp 0x5b5d5e64 ; ret
0x10014169 jl 0xffffffeb ; pop edi ; pop esi ; pop ebp ; pop ebx ; ret
0x10014168 clc ; jl 0xffffffec ; pop edi ; pop esi ; pop ebp ; pop ebx ; ret
0x10014167 cmp edi, eax ; jl 0xffffffed ; pop edi ; pop esi ; pop ebp ; pop ebx ; ret
0x10014166 add al, 0x3b ; clc ; jl 0xffffffee ; pop edi ; pop esi ; pop ebp ; pop ebx ; ret
0x10014165 ret ; add al, 0x3b ; clc ; jl 0xffffffef ; pop edi ; pop esi ; pop ebp ; pop ebx ; ret
0x100141ab ret
0x100141aa pop ebx ; ret
0x100141a9 pop ebp ; pop ebx ; ret
0x100141a8 pop esi ; pop ebp ; pop ebx ; ret
0x100141a7 pop edi ; pop esi ; pop ebp ; pop ebx ; ret
0x100141a6 add al, 0x5f ; pop esi ; pop ebp ; pop ebx ; ret
0x100141a5 les eax, ptr [edi + ebx*2] ; pop esi ; pop ebp ; pop ebx ; ret
0x100141a4 add esp, 4 ; pop edi ; pop esi ; pop ebp ; pop ebx ; ret
0x100141a3 add byte ptr [ebx + 0x5e5f04c4], al ; pop ebp ; pop ebx ; ret
0x100141a2 add byte ptr [eax], al ; add esp, 4 ; pop edi ; pop esi ; pop ebp ; pop ebx ; ret
0x100141a1 add byte ptr [eax], al ; add byte ptr [ebx + 0x5e5f04c4], al ; pop ebp ; pop ebx ; ret
0x100141bd ret
0x100141bc pop ebx ; ret
0x100141bb pop ebp ; pop ebx ; ret
0x100141ba pop esi ; pop ebp ; pop ebx ; ret
0x100141b9 pop edi ; pop esi ; pop ebp ; pop ebx ; ret
0x100141b8 adc byte ptr [edi + 0x5e], bl ; pop ebp ; pop ebx ; ret
0x100141b7 add dword ptr [eax], edx ; pop edi ; pop esi ; pop ebp ; pop ebx ; ret
0x100141b6 inc ebx ; add dword ptr [eax], edx ; pop edi ; pop esi ; pop ebp ; pop ebx ; ret
0x100141b5 jo 0x45 ; add dword ptr [eax], edx ; pop edi ; pop esi ; pop ebp ; pop ebx ; ret
0x100141b4 add al, 0x70 ; inc ebx ; add dword ptr [eax], edx ; pop edi ; pop esi ; pop ebp ; pop ebx ; ret
0x100141b3 inc ebx ; add al, 0x70 ; inc ebx ; add dword ptr [eax], edx ; pop edi ; pop esi ; pop ebp ; pop ebx ; ret
0x100141c9 ret
0x100141c8 pop ebx ; ret
0x100141c7 pop ebp ; pop ebx ; ret
0x100141c6 pop esi ; pop ebp ; pop ebx ; ret
0x100141c5 pop edi ; pop esi ; pop ebp ; pop ebx ; ret
0x100141c4 adc byte ptr [edi + 0x5e], bl ; pop ebp ; pop ebx ; ret
0x100141c3 add dword ptr [eax], edx ; pop edi ; pop esi ; pop ebp ; pop ebx ; ret
0x100141c2 inc edx ; add dword ptr [eax], edx ; pop edi ; pop esi ; pop ebp ; pop ebx ; ret
0x100141c1 mov al, 0x42 ; add dword ptr [eax], edx ; pop edi ; pop esi ; pop ebp ; pop ebx ; ret
0x100141c0 add al, 0xb0 ; inc edx ; add dword ptr [eax], edx ; pop edi ; pop esi ; pop ebp ; pop ebx ; ret
0x100141bf inc ebx ; add al, 0xb0 ; inc edx ; add dword ptr [eax], edx ; pop edi ; pop esi ; pop ebp ; pop ebx ; ret
0x1001422d ret
0x10014227 add ecx, dword ptr [ebx - 0x7cb987bb] ; ret
0x10014237 ret
0x10014236 pop ebp ; ret
0x10014235 pop esi ; pop ebp ; ret
0x10014234 pop edi ; pop esi ; pop ebp ; ret
0x10014233 pop ebx ; pop edi ; pop esi ; pop ebp ; ret
0x10014232 mov ebp, 0x5d5e5f5b ; ret
0x10014231 jl 0xffffffbf ; pop ebx ; pop edi ; pop esi ; pop ebp ; ret
0x1001422f cmp esi, eax ; jl 0xffffffc1 ; pop ebx ; pop edi ; pop esi ; pop ebp ; ret
0x100142a5 ret
0x100142a4 pop ebx ; ret
0x100142a3 pop ebp ; pop ebx ; ret
0x100142a2 pop esi ; pop ebp ; pop ebx ; ret
0x100142a1 lds ebx, ptr [esi + 0x5d] ; pop ebx ; ret
0x100142a0 mov eax, ebp ; pop esi ; pop ebp ; pop ebx ; ret
0x1001429f pop edi ; mov eax, ebp ; pop esi ; pop ebp ; pop ebx ; ret
0x1001429e iretd ; pop edi ; mov eax, ebp ; pop esi ; pop ebp ; pop ebx ; ret
0x1001429d jl 0xffffffd1 ; pop edi ; mov eax, ebp ; pop esi ; pop ebp ; pop ebx ; ret
0x1001429c adc byte ptr [edi + ecx*8 + 0x5f], bh ; mov eax, ebp ; pop esi ; pop ebp ; pop ebx ; ret
0x1001429b add dl, byte ptr [eax] ; jl 0xffffffd3 ; pop edi ; mov eax, ebp ; pop esi ; pop ebp ; pop ebx ; ret
0x1001436c ret
0x1001436a les edx, ptr [eax] ; ret
0x10014369 add esp, 0x10 ; ret
0x10014368 pop ebx ; add esp, 0x10 ; ret
0x10014367 pop edi ; pop ebx ; add esp, 0x10 ; ret
0x10014366 pop esi ; pop edi ; pop ebx ; add esp, 0x10 ; ret
0x10014365 pop ebp ; pop esi ; pop edi ; pop ebx ; add esp, 0x10 ; ret
0x10014364 xchg eax, ebp ; pop ebp ; pop esi ; pop edi ; pop ebx ; add esp, 0x10 ; ret
0x10014363 jne 0xffffff97 ; pop ebp ; pop esi ; pop edi ; pop ebx ; add esp, 0x10 ; ret
0x10014362 sub byte ptr [ebp - 0x6b], dh ; pop ebp ; pop esi ; pop edi ; pop ebx ; add esp, 0x10 ; ret
0x10014423 ret
0x10014421 les edx, ptr [eax] ; ret
0x10014420 add esp, 0x10 ; ret
0x1001441f pop edi ; add esp, 0x10 ; ret
0x1001441e pop esi ; pop edi ; add esp, 0x10 ; ret
0x1001441d pop ebp ; pop esi ; pop edi ; add esp, 0x10 ; ret
0x1001441c pop ebx ; pop ebp ; pop esi ; pop edi ; add esp, 0x10 ; ret
0x1001441b mov eax, dword ptr [0x5f5e5d5b] ; add esp, 0x10 ; ret
0x1001441a jne 0xffffffa3 ; pop ebx ; pop ebp ; pop esi ; pop edi ; add esp, 0x10 ; ret
0x10014419 xor byte ptr [ebp - 0x5f], dh ; pop ebx ; pop ebp ; pop esi ; pop edi ; add esp, 0x10 ; ret
0x100144fa ret
0x100144f8 adc byte ptr [ebx], al ; ret
0x100144f4 sbb dword ptr [ebx + 0x310245c], ecx ; ret
0x100144f2 cmp byte ptr [eax + 0x245c8b19], cl ; adc byte ptr [ebx], al ; ret
0x10014538 ret
0x10014553 ret
0x10014550 add esp, 0x1c ; ret
0x1001454f pop esi ; add esp, 0x1c ; ret
0x1001454e pop edi ; pop esi ; add esp, 0x1c ; ret
0x1001454d pop ebp ; pop edi ; pop esi ; add esp, 0x1c ; ret
0x1001454c pop ebx ; pop ebp ; pop edi ; pop esi ; add esp, 0x1c ; ret
0x1001454b lcall ptr [ebx + 0x5d] ; pop edi ; pop esi ; add esp, 0x1c ; ret
0x10014685 ret
0x10014682 add esp, 0x24 ; ret
0x10014681 pop esi ; add esp, 0x24 ; ret
0x10014680 pop edi ; pop esi ; add esp, 0x24 ; ret
0x1001467f pop ebp ; pop edi ; pop esi ; add esp, 0x24 ; ret
0x1001467e pop ebx ; pop ebp ; pop edi ; pop esi ; add esp, 0x24 ; ret
0x1001467d lcall ptr [ebx + 0x5d] ; pop edi ; pop esi ; add esp, 0x24 ; ret
0x10014720 ret
0x1001471f scasd eax, dword ptr es:[edi] ; ret
0x1001471d dec dword ptr [edi] ; scasd eax, dword ptr es:[edi] ; ret
0x1001471c leave ; dec dword ptr [edi] ; scasd eax, dword ptr es:[edi] ; ret
0x1001471a inc dword ptr [ebx - 0x50f00037] ; ret
0x10014719 inc esi ; inc dword ptr [ebx - 0x50f00037] ; ret
0x10014724 ret
0x10014856 ret
0x10014854 les esi, ptr [eax] ; ret
0x10014853 add esp, 0x30 ; ret
0x10014852 pop ebx ; add esp, 0x30 ; ret
0x10014851 pop ebp ; pop ebx ; add esp, 0x30 ; ret
0x10014850 pop esi ; pop ebp ; pop ebx ; add esp, 0x30 ; ret
0x1001484f pop edi ; pop esi ; pop ebp ; pop ebx ; add esp, 0x30 ; ret
0x1001484e lcall ptr [edi + 0x5e] ; pop ebp ; pop ebx ; add esp, 0x30 ; ret
0x10014875 ret
0x10014872 add esp, 4 ; ret
0x10014870 call dword ptr [edx] ; add esp, 4 ; ret
0x1001486e mov edx, dword ptr [eax] ; call dword ptr [edx] ; add esp, 4 ; ret
0x1001486c add byte ptr [eax], al ; mov edx, dword ptr [eax] ; call dword ptr [edx] ; add esp, 4 ; ret
0x100149b0 ret
0x100149af pop ebx ; ret
0x100149ae pop esi ; pop ebx ; ret
0x100149ad pop edi ; pop esi ; pop ebx ; ret
0x100149ac add al, 0x5f ; pop esi ; pop ebx ; ret
0x100149ab les eax, ptr [edi + ebx*2] ; pop esi ; pop ebx ; ret
0x100149aa add esp, 4 ; pop edi ; pop esi ; pop ebx ; ret
0x100149a9 add byte ptr [ebx + 0x5e5f04c4], al ; pop ebx ; ret
0x100149a8 add byte ptr [eax], al ; add esp, 4 ; pop edi ; pop esi ; pop ebx ; ret
0x100149a7 add byte ptr [eax], al ; add byte ptr [ebx + 0x5e5f04c4], al ; pop ebx ; ret
0x100149a6 push ss ; add byte ptr [eax], al ; add byte ptr [ebx + 0x5e5f04c4], al ; pop ebx ; ret
0x10014a57 ret
0x10014a56 pop ebx ; ret
0x10014a55 pop ebp ; pop ebx ; ret
0x10014a54 pop esi ; pop ebp ; pop ebx ; ret
0x10014a53 pop edi ; pop esi ; pop ebp ; pop ebx ; ret
0x10014a52 pop edi ; pop esi ; pop ebp ; pop ebx ; ret
0x10014a51 jne 0xfffffff5 ; pop edi ; pop esi ; pop ebp ; pop ebx ; ret
0x10014a50 dec edi ; jne 0xfffffff6 ; pop edi ; pop esi ; pop ebp ; pop ebx ; ret
0x10014a4f add al, 0x4f ; jne 0xfffffff7 ; pop edi ; pop esi ; pop ebp ; pop ebx ; ret
0x10014a4e call 0xf3754f09 ; pop edi ; pop esi ; pop ebp ; pop ebx ; ret
0x10014a4d sub eax, 4 ; dec edi ; jne 0xfffffff9 ; pop edi ; pop esi ; pop ebp ; pop ebx ; ret
0x10014b84 ret
0x10014b83 pop ebx ; ret
0x10014b82 pop esi ; pop ebx ; ret
0x10014b81 pop edi ; pop esi ; pop ebx ; ret
0x10014b80 add byte ptr [edi + 0x5e], bl ; pop ebx ; ret
0x10014b7f add byte ptr [eax], al ; pop edi ; pop esi ; pop ebx ; ret
0x10014b7e add byte ptr [eax], al ; add byte ptr [edi + 0x5e], bl ; pop ebx ; ret
0x10014b7d add byte ptr [eax], al ; add byte ptr [eax], al ; pop edi ; pop esi ; pop ebx ; ret
0x10014b7c sbb al, 0 ; add byte ptr [eax], al ; add byte ptr [edi + 0x5e], bl ; pop ebx ; ret
0x10014b7b inc ebx ; sbb al, 0 ; add byte ptr [eax], al ; add byte ptr [edi + 0x5e], bl ; pop ebx ; ret
0x10014b7a mov dword ptr [ebx + 0x1c], 0 ; pop edi ; pop esi ; pop ebx ; ret
0x10014bf9 ret
0x10014bf7 adc al, 0x83 ; ret
0x10014bf3 enter 0x448b, 0x24 ; adc al, 0x83 ; ret
0x10014bf0 add ecx, dword ptr [edi + 0x75] ; enter 0x448b, 0x24 ; adc al, 0x83 ; ret
0x10014c06 ret
0x10014c05 pop ebp ; ret
0x10014c04 pop esi ; pop ebp ; ret
0x10014c03 pop edi ; pop esi ; pop ebp ; ret
0x10014c02 pop ebx ; pop edi ; pop esi ; pop ebp ; ret
0x10014c01 mov dl, 0x5b ; pop edi ; pop esi ; pop ebp ; ret
0x10014c00 jne 0xffffffb4 ; pop ebx ; pop edi ; pop esi ; pop ebp ; ret
0x10014bff adc al, 0x75 ; mov dl, 0x5b ; pop edi ; pop esi ; pop ebp ; ret
0x10014bfe and al, 0x14 ; jne 0xffffffb6 ; pop ebx ; pop edi ; pop esi ; pop ebp ; ret
0x10014bfd inc esp ; and al, 0x14 ; jne 0xffffffb7 ; pop ebx ; pop edi ; pop esi ; pop ebp ; ret
0x10014bfc mov dword ptr [esp + 0x14], eax ; jne 0xffffffb8 ; pop ebx ; pop edi ; pop esi ; pop ebp ; ret
0x10014cd7 ret
0x10014cd4 add esp, 0xc ; ret
0x10014cd3 pop esi ; add esp, 0xc ; ret
0x10014cd2 pop edi ; pop esi ; add esp, 0xc ; ret
0x10014cd1 pop ebp ; pop edi ; pop esi ; add esp, 0xc ; ret
0x10014cd0 pop ebx ; pop ebp ; pop edi ; pop esi ; add esp, 0xc ; ret
0x10014cce jne 0xffffff83 ; pop ebx ; pop ebp ; pop edi ; pop esi ; add esp, 0xc ; ret
0x10014d39 ret
0x10014d34 add eax, 0x8305e6c1 ; ret
0x10014dfe ret
0x10014dfc add byte ptr [eax], al ; ret
0x10014dfa test byte ptr [ecx], al ; add byte ptr [eax], al ; ret
0x10014df8 add esp, 0x184 ; ret
0x10014df7 pop ebx ; add esp, 0x184 ; ret
0x10014df6 pop ebp ; pop ebx ; add esp, 0x184 ; ret
0x10014df5 pop esi ; pop ebp ; pop ebx ; add esp, 0x184 ; ret
0x10014df4 pop edi ; pop esi ; pop ebp ; pop ebx ; add esp, 0x184 ; ret
0x10014fcd ret
0x10014fcb add byte ptr [eax], al ; ret
0x10014fc9 sub al, 4 ; add byte ptr [eax], al ; ret
0x10014fc8 les ebp, ptr [esp + eax] ; add byte ptr [eax], al ; ret
0x10014fc7 add esp, 0x42c ; ret
0x10014fc6 pop ebx ; add esp, 0x42c ; ret
0x10014fc5 pop ebp ; pop ebx ; add esp, 0x42c ; ret
0x10014fc4 pop esi ; pop ebp ; pop ebx ; add esp, 0x42c ; ret
0x10014fc3 pop edi ; pop esi ; pop ebp ; pop ebx ; add esp, 0x42c ; ret
0x10014fea ret
0x10014fe8 sar byte ptr [ebx], cl ; ret
0x10014fe6 and byte ptr [ebx], dh ; sar byte ptr [ebx], cl ; ret
0x10014fe2 dec dword ptr [ebx + 0x3320245c] ; sar byte ptr [ebx], cl ; ret
0x10014fed ret
0x10014fea ret
0x10014fe8 sar byte ptr [ebx], cl ; ret
0x10014fe6 and byte ptr [ebx], dh ; sar byte ptr [ebx], cl ; ret
0x100150cf ret
0x1001515f ret
0x1001515d add byte ptr [eax], al ; ret
0x1001515b and byte ptr [edx], al ; add byte ptr [eax], al ; ret
0x10015159 add esp, 0x220 ; ret
0x10015158 pop edi ; add esp, 0x220 ; ret
0x10015157 pop esi ; pop edi ; add esp, 0x220 ; ret
0x10015156 pop ebp ; pop esi ; pop edi ; add esp, 0x220 ; ret
0x10015155 pop ebx ; pop ebp ; pop esi ; pop edi ; add esp, 0x220 ; ret
0x1001542b ret
0x10015443 ret
0x10015442 pop eax ; ret
0x10015440 add esp, 0x58 ; ret
0x1001543f pop esi ; add esp, 0x58 ; ret
0x1001543e pop edi ; pop esi ; add esp, 0x58 ; ret
0x1001543d pop ebp ; pop edi ; pop esi ; add esp, 0x58 ; ret
0x1001543c pop ebx ; pop ebp ; pop edi ; pop esi ; add esp, 0x58 ; ret
0x1001543b lcall ptr [ebx + 0x5d] ; pop edi ; pop esi ; add esp, 0x58 ; ret
0x10015479 ret
0x10015478 pop esi ; ret
0x10015476 add byte ptr [eax], al ; pop esi ; ret
0x10015474 add dword ptr [eax], eax ; add byte ptr [eax], al ; pop esi ; ret
0x10015471 mov dword ptr [esi + 0x1c], 1 ; pop esi ; ret
0x1001546f les ecx, ptr [eax] ; mov dword ptr [esi + 0x1c], 1 ; pop esi ; ret
0x1001550e ret
0x1001550d pop ebx ; ret
0x1001550c pop ebp ; pop ebx ; ret
0x1001550b pop esi ; pop ebp ; pop ebx ; ret
0x10015509 or byte ptr [edi + 0x5e], bl ; pop ebp ; pop ebx ; ret
0x10015508 les ecx, ptr [eax] ; pop edi ; pop esi ; pop ebp ; pop ebx ; ret
0x10015507 add esp, 8 ; pop edi ; pop esi ; pop ebp ; pop ebx ; ret
0x10015506 add al, 0x83 ; les ecx, ptr [eax] ; pop edi ; pop esi ; pop ebp ; pop ebx ; ret
0x10015505 push ecx ; add al, 0x83 ; les ecx, ptr [eax] ; pop edi ; pop esi ; pop ebp ; pop ebx ; ret
0x10015504 call dword ptr [ecx + 4] ; add esp, 8 ; pop edi ; pop esi ; pop ebp ; pop ebx ; ret
0x10015622 ret
0x1001561f sbb byte ptr [eax + 0x3b], al ; ret
0x10015657 ret
0x10015655 and byte ptr [ebx], bh ; ret
0x10015650 imul eax, dword ptr [ebx + ecx*4], 0x3b202444 ; ret
0x1001564e adc al, 0x89 ; imul eax, dword ptr [ebx + ecx*4], 0x3b202444 ; ret
0x1001573e ret
0x1001593d ret
0x1001593a add esp, 0x1c ; ret
0x10015939 pop ebx ; add esp, 0x1c ; ret
0x10015938 pop ebp ; pop ebx ; add esp, 0x1c ; ret
0x10015937 sbb al, 0x5d ; pop ebx ; add esp, 0x1c ; ret
0x10015936 push 0x1c ; pop ebp ; pop ebx ; add esp, 0x1c ; ret
0x10015935 mov dword ptr [edx + 0x1c], ebp ; pop ebp ; pop ebx ; add esp, 0x1c ; ret
0x10015934 pop esi ; mov dword ptr [edx + 0x1c], ebp ; pop ebp ; pop ebx ; add esp, 0x1c ; ret
0x10015933 pop edi ; pop esi ; mov dword ptr [edx + 0x1c], ebp ; pop ebp ; pop ebx ; add esp, 0x1c ; ret
0x10015a6e ret
0x10015a6b or byte ptr [edi - 0x7d], al ; ret
0x10015a8a ret
0x10015a89 pop ecx ; ret
0x10015a88 pop ebx ; pop ecx ; ret
0x10015a87 pop ebp ; pop ebx ; pop ecx ; ret
0x10015a86 pop esi ; pop ebp ; pop ebx ; pop ecx ; ret
0x10015a85 pop edi ; pop esi ; pop ebp ; pop ebx ; pop ecx ; ret
0x10015a83 mov eax, edi ; pop edi ; pop esi ; pop ebp ; pop ebx ; pop ecx ; ret
0x10015a82 dec dword ptr [ebx + 0x5d5e5fc7] ; pop ebx ; pop ecx ; ret
0x10015ac3 ret
0x10015ac2 pop esi ; ret
0x10015ac1 pop edi ; pop esi ; ret
0x10015ac0 pop ebx ; pop edi ; pop esi ; ret
0x10015abe jne 0xffffffea ; pop ebx ; pop edi ; pop esi ; ret
0x10015abd dec edi ; jne 0xffffffeb ; pop ebx ; pop edi ; pop esi ; ret
0x10015abb shl dword ptr [eax], 0x4f ; jne 0xffffffed ; pop ebx ; pop edi ; pop esi ; ret
0x10015aba add ecx, 0x20 ; dec edi ; jne 0xffffffee ; pop ebx ; pop edi ; pop esi ; ret
0x10015ab9 add ecx, 0x20 ; dec edi ; jne 0xffffffef ; pop ebx ; pop edi ; pop esi ; ret
0x10015afa ret
0x10015af9 pop esi ; ret
0x10015af8 pop edi ; pop esi ; ret
0x10015af7 out dx, eax ; pop edi ; pop esi ; ret
0x10015af6 jne 0xfffffff1 ; pop edi ; pop esi ; ret
0x10015af5 dec edi ; jne 0xfffffff2 ; pop edi ; pop esi ; ret
0x10015af4 and byte ptr [edi + 0x75], cl ; out dx, eax ; pop edi ; pop esi ; ret
0x10015af3 shl dword ptr [eax], 0x4f ; jne 0xfffffff4 ; pop edi ; pop esi ; ret
0x10015af2 add ecx, 0x20 ; dec edi ; jne 0xfffffff5 ; pop edi ; pop esi ; ret
0x10015af1 add ecx, 0x20 ; dec edi ; jne 0xfffffff6 ; pop edi ; pop esi ; ret
0x10015af0 mov esi, edx ; add ecx, 0x20 ; dec edi ; jne 0xfffffff7 ; pop edi ; pop esi ; ret
0x10015c93 ret
0x10015c91 les esi, ptr [eax] ; ret
0x10015c90 add esp, 0x30 ; ret
0x10015c8f pop ebx ; add esp, 0x30 ; ret
0x10015c8e pop ebp ; pop ebx ; add esp, 0x30 ; ret
0x10015c8d pop esi ; pop ebp ; pop ebx ; add esp, 0x30 ; ret
0x10015c8c xor bl, byte ptr [esi + 0x5d] ; pop ebx ; add esp, 0x30 ; ret
0x10015c8b add al, 0x32 ; pop esi ; pop ebp ; pop ebx ; add esp, 0x30 ; ret
0x10015c8a mov byte ptr [edx + esi], al ; pop esi ; pop ebp ; pop ebx ; add esp, 0x30 ; ret
0x10015c89 pop edi ; mov byte ptr [edx + esi], al ; pop esi ; pop ebp ; pop ebx ; add esp, 0x30 ; ret
0x10015cb1 ret
0x10015caf add byte ptr [eax], al ; ret
0x10015cad add dword ptr [eax], eax ; add byte ptr [eax], al ; ret
0x10015caa mov dword ptr [ecx + 0x1c], 1 ; ret
0x10015ca8 add byte ptr [eax], al ; mov dword ptr [ecx + 0x1c], 1 ; ret
0x10015ccf ret
0x10015cce stc ; ret
0x10015ccd idiv ecx ; ret
0x10015ccc cdq ; idiv ecx ; ret
0x10015cca add edi, edi ; cdq ; idiv ecx ; ret
0x10015cc9 inc esp ; add edi, edi ; cdq ; idiv ecx ; ret
0x10015cc8 lea eax, dword ptr [ecx + eax - 1] ; cdq ; idiv ecx ; ret
0x10015cc7 add al, 0x8d ; inc esp ; add edi, edi ; cdq ; idiv ecx ; ret
0x10015cc6 and al, 4 ; lea eax, dword ptr [ecx + eax - 1] ; cdq ; idiv ecx ; ret
0x10015cc5 inc esp ; and al, 4 ; lea eax, dword ptr [ecx + eax - 1] ; cdq ; idiv ecx ; ret
0x10015ce7 ret
0x10015ce5 sub eax, edx ; ret
0x10015ce4 pop esi ; sub eax, edx ; ret
0x10015ce3 rcr dword ptr [esi + 0x2b], -0x3e ; ret
0x10015ce2 mov eax, ecx ; pop esi ; sub eax, edx ; ret
0x10015ce1 dec byte ptr [ebx - 0x3dd4a13f] ; ret
0x10015ce0 idiv esi ; mov eax, ecx ; pop esi ; sub eax, edx ; ret
0x10015cdf cdq ; idiv esi ; mov eax, ecx ; pop esi ; sub eax, edx ; ret
0x10015cde rcr dword ptr [ecx - 0x3e740109], 0x5e ; sub eax, edx ; ret
0x10015cdd mov eax, ecx ; cdq ; idiv esi ; mov eax, ecx ; pop esi ; sub eax, edx ; ret
0x10015d35 ret
0x10015d34 pop ebx ; ret
0x10015d33 pop edi ; pop ebx ; ret
0x10015d32 pop esi ; pop edi ; pop ebx ; ret
0x10015d31 pop ebp ; pop esi ; pop edi ; pop ebx ; ret
0x10015d30 loope 0x5f ; pop esi ; pop edi ; pop ebx ; ret
0x10015d2f jne 0xffffffe3 ; pop ebp ; pop esi ; pop edi ; pop ebx ; ret
0x10015d2e movsb byte ptr es:[edi], byte ptr [esi] ; jne 0xffffffe4 ; pop ebp ; pop esi ; pop edi ; pop ebx ; ret
0x10015d2d rep movsb byte ptr es:[edi], byte ptr [esi] ; jne 0xffffffe5 ; pop ebp ; pop esi ; pop edi ; pop ebx ; ret
0x10015d2c dec ebx ; rep movsb byte ptr es:[edi], byte ptr [esi] ; jne 0xffffffe6 ; pop ebp ; pop esi ; pop edi ; pop ebx ; ret
0x10015d2b add ecx, dword ptr [ebx - 0xd] ; movsb byte ptr es:[edi], byte ptr [esi] ; jne 0xffffffe7 ; pop ebp ; pop esi ; pop edi ; pop ebx ; ret
0x10015d61 ret
0x10015d60 pop esi ; ret
0x10015d5f pop edi ; pop esi ; ret
0x10015d5e movsb byte ptr es:[edi], byte ptr [esi] ; pop edi ; pop esi ; ret
0x10015d5d rep movsb byte ptr es:[edi], byte ptr [esi] ; pop edi ; pop esi ; ret
0x10015d5c add esi, ebx ; movsb byte ptr es:[edi], byte ptr [esi] ; pop edi ; pop esi ; ret
0x10015d5b loope 5 ; rep movsb byte ptr es:[edi], byte ptr [esi] ; pop edi ; pop esi ; ret
0x10015d5a and ecx, 3 ; rep movsb byte ptr es:[edi], byte ptr [esi] ; pop edi ; pop esi ; ret
0x10015d59 enter -0x1e7d, 3 ; rep movsb byte ptr es:[edi], byte ptr [esi] ; pop edi ; pop esi ; ret
0x10015d58 mov ecx, eax ; and ecx, 3 ; rep movsb byte ptr es:[edi], byte ptr [esi] ; pop edi ; pop esi ; ret
0x10015d57 movsd dword ptr es:[edi], dword ptr [esi] ; mov ecx, eax ; and ecx, 3 ; rep movsb byte ptr es:[edi], byte ptr [esi] ; pop edi ; pop esi ; ret
0x10015d8a ret
0x10015d89 pop edi ; ret
0x10015d88 stosb byte ptr es:[edi], al ; pop edi ; ret
0x10015d87 rep stosb byte ptr es:[edi], al ; pop edi ; ret
0x10015d86 add esi, ebx ; stosb byte ptr es:[edi], al ; pop edi ; ret
0x10015d85 loope 5 ; rep stosb byte ptr es:[edi], al ; pop edi ; ret
0x10015d84 and ecx, 3 ; rep stosb byte ptr es:[edi], al ; pop edi ; ret
0x10015d83 retf -0x1e7d ; add esi, ebx ; stosb byte ptr es:[edi], al ; pop edi ; ret
0x10015d82 mov ecx, edx ; and ecx, 3 ; rep stosb byte ptr es:[edi], al ; pop edi ; ret
0x10015d81 stosd dword ptr es:[edi], eax ; mov ecx, edx ; and ecx, 3 ; rep stosb byte ptr es:[edi], al ; pop edi ; ret
0x10015d80 rep stosd dword ptr es:[edi], eax ; mov ecx, edx ; and ecx, 3 ; rep stosb byte ptr es:[edi], al ; pop edi ; ret
0x10015db5 ret
0x10015db3 add al, 0x10 ; ret
0x10015db1 cmp al, 0xa2 ; add al, 0x10 ; ret
0x10015db0 mov eax, dword ptr [0x1004a23c] ; ret
0x10015daf nop ; mov eax, dword ptr [0x1004a23c] ; ret
0x10015dae nop ; nop ; mov eax, dword ptr [0x1004a23c] ; ret
0x10015dad add byte ptr [eax - 0x5dc35e70], dl ; add al, 0x10 ; ret
0x10015dac or al, 0 ; nop ; nop ; mov eax, dword ptr [0x1004a23c] ; ret
0x10015dab ret 0xc ; nop ; nop ; mov eax, dword ptr [0x1004a23c] ; ret
0x10015dec ret
0x10015de9 add esp, 0x1c ; ret
0x10015de8 pop ebx ; add esp, 0x1c ; ret
0x10015de7 pop ebp ; pop ebx ; add esp, 0x1c ; ret
0x10015de6 pop esi ; pop ebp ; pop ebx ; add esp, 0x1c ; ret
0x10015de5 pop edi ; pop esi ; pop ebp ; pop ebx ; add esp, 0x1c ; ret
0x10015de4 rcr byte ptr [edi + 0x5e], 0x5d ; pop ebx ; add esp, 0x1c ; ret
0x10015de3 xor eax, eax ; pop edi ; pop esi ; pop ebp ; pop ebx ; add esp, 0x1c ; ret
0x10015de2 or dh, byte ptr [ebx] ; rcr byte ptr [edi + 0x5e], 0x5d ; pop ebx ; add esp, 0x1c ; ret
0x10015e12 ret
0x10015e0f add esp, 0x1c ; ret
0x10015e0e pop ebx ; add esp, 0x1c ; ret
0x10015e0d pop ebp ; pop ebx ; add esp, 0x1c ; ret
0x10015e0c pop esi ; pop ebp ; pop ebx ; add esp, 0x1c ; ret
0x10015e0b pop edi ; pop esi ; pop ebp ; pop ebx ; add esp, 0x1c ; ret
0x10015e09 xor eax, eax ; pop edi ; pop esi ; pop ebp ; pop ebx ; add esp, 0x1c ; ret
0x10015e08 or dh, byte ptr [ebx] ; rcr byte ptr [edi + 0x5e], 0x5d ; pop ebx ; add esp, 0x1c ; ret
0x10015e97 ret
0x10015e95 add edi, dword ptr [ebx] ; ret
0x10015e94 mov byte ptr [ebx], 0x3b ; ret
0x10015e92 add al, 0x83 ; mov byte ptr [ebx], 0x3b ; ret
0x10015e91 ret 0x8304 ; mov byte ptr [ebx], 0x3b ; ret
0x10015e8e xor byte ptr [eax - 0x7d], al ; ret 0x8304 ; mov byte ptr [ebx], 0x3b ; ret
0x10015eb7 ret
0x10015eb4 add esp, 0x1c ; ret
0x10015eb3 pop ebx ; add esp, 0x1c ; ret
0x10015eb2 pop ebp ; pop ebx ; add esp, 0x1c ; ret
0x10015eb1 pop esi ; pop ebp ; pop ebx ; add esp, 0x1c ; ret
0x10015eb0 pop edi ; pop esi ; pop ebp ; pop ebx ; add esp, 0x1c ; ret
0x10015eaf rcr dword ptr [edi + 0x5e], 0x5d ; pop ebx ; add esp, 0x1c ; ret
0x10015eae mov eax, ecx ; pop edi ; pop esi ; pop ebp ; pop ebx ; add esp, 0x1c ; ret
0x10015ead add cl, byte ptr [ebx + 0x5d5e5fc1] ; pop ebx ; add esp, 0x1c ; ret
0x10015f7a ret
0x10015f78 adc al, 0x3b ; ret
0x10015f74 enter -0x7cc0, -0x3a ; adc al, 0x3b ; ret
0x10015fb0 ret
0x10015fae sub ch, byte ptr [edx] ; ret
0x10015faa sub ecx, dword ptr [edx + 0x2a2a2454] ; ret
0x10016062 ret
0x1001614e ret
0x1001614d dec eax ; ret
0x1001614b add esp, 0x48 ; ret
0x1001614a pop ebx ; add esp, 0x48 ; ret
0x10016149 pop ebp ; pop ebx ; add esp, 0x48 ; ret
0x10016148 pop esi ; pop ebp ; pop ebx ; add esp, 0x48 ; ret
0x10016147 pop edi ; pop esi ; pop ebp ; pop ebx ; add esp, 0x48 ; ret
0x10016146 lds ebx, ptr [edi + 0x5e] ; pop ebp ; pop ebx ; add esp, 0x48 ; ret
0x10016145 mov eax, ebp ; pop edi ; pop esi ; pop ebp ; pop ebx ; add esp, 0x48 ; ret
0x10016144 mov ax, bp ; pop edi ; pop esi ; pop ebp ; pop ebx ; add esp, 0x48 ; ret
0x100161e7 ret
0x100161e6 pop edi ; ret
0x100161e5 pop esi ; pop edi ; ret
0x100161e4 pop ebx ; pop esi ; pop edi ; ret
0x100161e3 lodsd eax, dword ptr [esi] ; pop ebx ; pop esi ; pop edi ; ret
0x100161e2 jne 0xffffffaf ; pop ebx ; pop esi ; pop edi ; ret
0x100161e1 dec edi ; jne 0xffffffb0 ; pop ebx ; pop esi ; pop edi ; ret
0x100161e0 add cl, byte ptr [edi + 0x75] ; lodsd eax, dword ptr [esi] ; pop ebx ; pop esi ; pop edi ; ret
0x100161df mov byte ptr [edx], 0x4f ; jne 0xffffffb2 ; pop ebx ; pop esi ; pop edi ; ret
0x100161de add esi, 2 ; dec edi ; jne 0xffffffb3 ; pop ebx ; pop esi ; pop edi ; ret
0x100161dd adc byte ptr [ebx + 0x754f02c6], al ; lodsd eax, dword ptr [esi] ; pop ebx ; pop esi ; pop edi ; ret
0x100162c4 ret
0x100163b6 ret
0x100163b3 add esp, 0x24 ; ret
0x100163b2 pop ebx ; add esp, 0x24 ; ret
0x100163b1 pop ebp ; pop ebx ; add esp, 0x24 ; ret
0x100163b0 pop esi ; pop ebp ; pop ebx ; add esp, 0x24 ; ret
0x100163af pop edi ; pop esi ; pop ebp ; pop ebx ; add esp, 0x24 ; ret
0x100163ae mov ebx, dword ptr [edi + 0x5e] ; pop ebp ; pop ebx ; add esp, 0x24 ; ret
0x100163ad jle 0xffffff8d ; pop edi ; pop esi ; pop ebp ; pop ebx ; add esp, 0x24 ; ret
0x100163ac sar dword ptr [esi - 0x75], 0x5f ; pop esi ; pop ebp ; pop ebx ; add esp, 0x24 ; ret
0x1001641e ret
0x1001641c sub eax, ecx ; ret
0x1001641a add byte ptr [eax], al ; sub eax, ecx ; ret
0x10016418 inc dword ptr [eax] ; add byte ptr [eax], al ; sub eax, ecx ; ret
0x10016416 and ecx, 0xff ; sub eax, ecx ; ret
0x10016414 add byte ptr [eax], al ; and ecx, 0xff ; sub eax, ecx ; ret
0x10016580 ret
0x1001657e add byte ptr [eax], al ; ret
0x1001657c loopne 5 ; add byte ptr [eax], al ; ret
0x1001657a add esp, 0x3e0 ; ret
0x10016579 pop ebx ; add esp, 0x3e0 ; ret
0x10016578 pop ebp ; pop ebx ; add esp, 0x3e0 ; ret
0x10016577 pop esi ; pop ebp ; pop ebx ; add esp, 0x3e0 ; ret
0x10016576 pop edi ; pop esi ; pop ebp ; pop ebx ; add esp, 0x3e0 ; ret
0x100168b7 ret
0x100168b5 add byte ptr [eax], al ; ret
0x100168b3 loopne 5 ; add byte ptr [eax], al ; ret
0x100168b1 add esp, 0x3e0 ; ret
0x100168b0 pop ebx ; add esp, 0x3e0 ; ret
0x100168ae add byte ptr [eax], al ; pop ebx ; add esp, 0x3e0 ; ret
0x1001691c ret
0x1001691a add byte ptr [eax], al ; ret
0x10016916 add esp, 0x80 ; ret
0x10016915 pop ebx ; add esp, 0x80 ; ret
0x10016914 pop esi ; pop ebx ; add esp, 0x80 ; ret
0x10016912 xor eax, eax ; pop esi ; pop ebx ; add esp, 0x80 ; ret
0x100169a7 ret
0x100169a5 add byte ptr [eax], al ; ret
0x100169a1 add esp, 0x80 ; ret
0x100169a0 pop ebx ; add esp, 0x80 ; ret
0x1001699e add byte ptr [eax], al ; pop ebx ; add esp, 0x80 ; ret
0x100169ee ret
0x100169ec adc byte ptr [ebx], bh ; ret
0x10016b02 ret
0x10016b00 fdiv st(6) ; ret
0x10016afd mov edi, 0xf6d88bc0 ; ret
0x10016afb jp 0x11 ; mov edi, 0xf6d88bc0 ; ret
0x10016b0c ret
0x10016b09 or al, byte ptr [ebx - 0xa] ; ret
0x10016b07 sub al, 0x74 ; or al, byte ptr [ebx - 0xa] ; ret
0x10016b03 add ecx, dword ptr [ecx + 0x742c245c] ; or al, byte ptr [ebx - 0xa] ; ret
0x10016b02 ret ; add ecx, dword ptr [ecx + 0x742c245c] ; or al, byte ptr [ebx - 0xa] ; ret
0x10016bb7 ret
0x10016bb6 scasd eax, dword ptr es:[edi] ; ret
0x10016bb4 add byte ptr [edi], cl ; scasd eax, dword ptr es:[edi] ; ret
0x10016bb2 add byte ptr [eax], al ; add byte ptr [edi], cl ; scasd eax, dword ptr es:[edi] ; ret
0x10016bb1 mov eax, 0xf000000 ; scasd eax, dword ptr es:[edi] ; ret
0x10016bb0 and al, 0xb8 ; add byte ptr [eax], al ; add byte ptr [edi], cl ; scasd eax, dword ptr es:[edi] ; ret
0x10016baf mov esp, 0xb824 ; add byte ptr [edi], cl ; scasd eax, dword ptr es:[edi] ; ret
0x10016dce ret
0x10016dcc add byte ptr [ebx], bh ; ret
0x10016dca add dword ptr [eax], eax ; add byte ptr [ebx], bh ; ret
0x10016e54 ret
0x10016e5d ret
0x10016e5b add byte ptr [eax], al ; ret
0x10016e59 enter 3, 0 ; ret
0x10016e57 add esp, 0x3c8 ; ret
0x10016e56 pop ebx ; add esp, 0x3c8 ; ret
0x10016e55 pop ebp ; pop ebx ; add esp, 0x3c8 ; ret
0x10016e54 ret ; pop ebp ; pop ebx ; add esp, 0x3c8 ; ret
0x10016e53 mov eax, ebx ; pop ebp ; pop ebx ; add esp, 0x3c8 ; ret
0x10016e74 ret
0x10016e72 xor eax, eax ; ret
0x10016e70 jae 5 ; xor eax, eax ; ret
0x10016e6e cmp eax, ecx ; jae 7 ; xor eax, eax ; ret
0x10016e6c and al, 4 ; cmp eax, ecx ; jae 9 ; xor eax, eax ; ret
0x10016e6b dec esp ; and al, 4 ; cmp eax, ecx ; jae 0xa ; xor eax, eax ; ret
0x10016e6a scasd eax, dword ptr es:[edi] ; dec esp ; and al, 4 ; cmp eax, ecx ; jae 0xb ; xor eax, eax ; ret
0x10016e91 ret
0x10016e8f add al, 0x10 ; ret
0x10016e8d xor al, 0xa2 ; add al, 0x10 ; ret
0x10016e8c adc eax, 0x1004a234 ; ret
0x10016e8b mov dword ptr [0x1004a234], edx ; ret
0x10016e89 add edx, ecx ; mov dword ptr [0x1004a234], edx ; ret
0x10016e88 ret 0xd103 ; mov dword ptr [0x1004a234], edx ; ret
0x10016e87 mov eax, edx ; add edx, ecx ; mov dword ptr [0x1004a234], edx ; ret
0x10016ecc ret
0x10016ecb dec esp ; ret
0x10016ec9 add esp, 0x4c ; ret
0x10016ec8 pop ebp ; add esp, 0x4c ; ret
0x10016ec7 rcr byte ptr [ebp - 0x7d], 0xc4 ; dec esp ; ret
0x10016ec6 xor eax, eax ; pop ebp ; add esp, 0x4c ; ret
0x10016ec5 xor ax, ax ; pop ebp ; add esp, 0x4c ; ret
0x10016ec4 or byte ptr [esi + 0x33], ah ; rcr byte ptr [ebp - 0x7d], 0xc4 ; dec esp ; ret
0x10016ec3 jne 0xa ; xor ax, ax ; pop ebp ; add esp, 0x4c ; ret
0x10016ec2 adc byte ptr [ebp + 8], dh ; xor ax, ax ; pop ebp ; add esp, 0x4c ; ret
0x10017160 ret
0x1001715e add al, 0x3a ; ret
0x1001715d inc esi ; add al, 0x3a ; ret
0x1001746a ret
0x10017469 dec esp ; ret
0x10017467 add esp, 0x4c ; ret
0x10017466 pop ebp ; add esp, 0x4c ; ret
0x10017465 pop edi ; pop ebp ; add esp, 0x4c ; ret
0x10017464 pop esi ; pop edi ; pop ebp ; add esp, 0x4c ; ret
0x10017463 pop ebx ; pop esi ; pop edi ; pop ebp ; add esp, 0x4c ; ret
0x10017462 add al, 0x5b ; pop esi ; pop edi ; pop ebp ; add esp, 0x4c ; ret
0x10017461 les eax, ptr [ebx + ebx*2] ; pop esi ; pop edi ; pop ebp ; add esp, 0x4c ; ret
0x10017460 add esp, 4 ; pop ebx ; pop esi ; pop edi ; pop ebp ; add esp, 0x4c ; ret
0x100174d5 ret
0x10017545 ret
0x10017543 add byte ptr [eax], al ; ret
0x10017541 add dword ptr [eax], eax ; add byte ptr [eax], al ; ret
0x10017540 mov eax, 1 ; ret
0x1001753f push es ; mov eax, 1 ; ret
0x1001753e jbe 8 ; mov eax, 1 ; ret
0x1001753d enter 0x676, -0x48 ; add dword ptr [eax], eax ; add byte ptr [eax], al ; ret
0x1001753c cmp ecx, eax ; jbe 0xa ; mov eax, 1 ; ret
0x1001753b or dword ptr [ebx], edi ; enter 0x676, -0x48 ; add dword ptr [eax], eax ; add byte ptr [eax], al ; ret
0x10017548 ret
0x10017546 sbb eax, eax ; ret
0x10017545 ret ; sbb eax, eax ; ret
0x10017544 add bl, al ; sbb eax, eax ; ret
0x10017543 add byte ptr [eax], al ; ret ; sbb eax, eax ; ret
0x10017542 add byte ptr [eax], al ; add bl, al ; sbb eax, eax ; ret
0x10017541 add dword ptr [eax], eax ; add byte ptr [eax], al ; ret ; sbb eax, eax ; ret
0x10017540 mov eax, 1 ; ret ; sbb eax, eax ; ret
0x1001753f push es ; mov eax, 1 ; ret ; sbb eax, eax ; ret
0x1001753e jbe 8 ; mov eax, 1 ; ret ; sbb eax, eax ; ret
0x100175da ret
0x100175d7 add esp, 0xc ; ret
0x100175d6 pop esi ; add esp, 0xc ; ret
0x100175d4 add byte ptr [eax], al ; pop esi ; add esp, 0xc ; ret
0x100175d2 add eax, dword ptr [eax] ; add byte ptr [eax], al ; pop esi ; add esp, 0xc ; ret
0x100175d1 mov eax, 3 ; pop esi ; add esp, 0xc ; ret
0x100175d0 fdivr dword ptr [eax + 3] ; pop esi ; add esp, 0xc ; ret
0x1001762d ret
0x1001762a add esp, 0xc ; ret
0x10017629 pop esi ; add esp, 0xc ; ret
0x10017627 mov eax, ecx ; pop esi ; add esp, 0xc ; ret
0x10017625 add byte ptr [eax], al ; mov eax, ecx ; pop esi ; add esp, 0xc ; ret
0x10017623 add eax, dword ptr [eax] ; add byte ptr [eax], al ; mov eax, ecx ; pop esi ; add esp, 0xc ; ret
0x10017636 ret
0x10017633 add esp, 0xc ; ret
0x10017632 pop esi ; add esp, 0xc ; ret
0x10017630 mov eax, ecx ; pop esi ; add esp, 0xc ; ret
0x1001762e fstp st(0) ; mov eax, ecx ; pop esi ; add esp, 0xc ; ret
0x1001762d ret ; fstp st(0) ; mov eax, ecx ; pop esi ; add esp, 0xc ; ret
0x1001762c or al, 0xc3 ; fstp st(0) ; mov eax, ecx ; pop esi ; add esp, 0xc ; ret
0x10017689 ret
0x10017688 pop esi ; ret
0x10017687 int3 ; pop esi ; ret
0x10017686 jne 0xffffffce ; pop esi ; ret
0x10017685 jmp 0x77 ; int3 ; pop esi ; ret
0x10017684 push ecx ; jmp 0x78 ; int3 ; pop esi ; ret
0x10017683 mov dword ptr [ecx - 0x15], edx ; jne 0xffffffd1 ; pop esi ; ret
0x10017682 adc cl, byte ptr [ecx - 0x338a14af] ; pop esi ; ret
0x10017681 mov edx, dword ptr [edx] ; mov dword ptr [ecx - 0x15], edx ; jne 0xffffffd3 ; pop esi ; ret
0x10017680 cld ; mov edx, dword ptr [edx] ; mov dword ptr [ecx - 0x15], edx ; jne 0xffffffd4 ; pop esi ; ret
0x1001767f push eax ; cld ; mov edx, dword ptr [edx] ; mov dword ptr [ecx - 0x15], edx ; jne 0xffffffd5 ; pop esi ; ret
0x100176b2 ret
0x100176b1 pop ebx ; ret
0x100176b0 pop ebp ; pop ebx ; ret
0x100176af pop esi ; pop ebp ; pop ebx ; ret
0x100176ae pop edi ; pop esi ; pop ebp ; pop ebx ; ret
0x100176ad add dword ptr [edi + 0x5e], ebx ; pop ebp ; pop ebx ; ret
0x100176ac mov dword ptr [ecx], eax ; pop edi ; pop esi ; pop ebp ; pop ebx ; ret
0x100176ab add byte ptr [ecx + 0x5d5e5f01], cl ; pop ebx ; ret
0x100176aa add byte ptr [eax], al ; mov dword ptr [ecx], eax ; pop edi ; pop esi ; pop ebp ; pop ebx ; ret
0x100176a9 add byte ptr [eax], al ; add byte ptr [ecx + 0x5d5e5f01], cl ; pop ebx ; ret
0x100176a8 add byte ptr [eax], al ; add byte ptr [eax], al ; mov dword ptr [ecx], eax ; pop edi ; pop esi ; pop ebp ; pop ebx ; ret
0x100176fb ret
0x100176fa pop ebx ; ret
0x100176f9 pop ebp ; pop ebx ; ret
0x100176f8 pop esi ; pop ebp ; pop ebx ; ret
0x100176f7 pop edi ; pop esi ; pop ebp ; pop ebx ; ret
0x100176f6 out 0x5f, al ; pop esi ; pop ebp ; pop ebx ; ret
0x100176f5 jne 0xffffffe8 ; pop edi ; pop esi ; pop ebp ; pop ebx ; ret
0x100176f4 leave ; jne 0xffffffe9 ; pop edi ; pop esi ; pop ebp ; pop ebx ; ret
0x100176f3 test ecx, ecx ; jne 0xffffffea ; pop edi ; pop esi ; pop ebp ; pop ebx ; ret
0x100176f2 add al, 0x85 ; leave ; jne 0xffffffeb ; pop edi ; pop esi ; pop ebp ; pop ebx ; ret
0x100176f1 call 0x75c98509 ; out 0x5f, al ; pop esi ; pop ebp ; pop ebx ; ret
0x10017713 ret
0x10017712 pop ebx ; ret
0x10017711 pop ebp ; pop ebx ; ret
0x10017710 pop esi ; pop ebp ; pop ebx ; ret
0x1001770f pop edi ; pop esi ; pop ebp ; pop ebx ; ret
0x1001770e xchg dword ptr [edi + 0x5e], ebx ; pop ebp ; pop ebx ; ret
0x1001770d xor al, 0x87 ; pop edi ; pop esi ; pop ebp ; pop ebx ; ret
0x1001770c mov dword ptr [edi + eax*4], esi ; pop edi ; pop esi ; pop ebp ; pop ebx ; ret
0x1001770b add ecx, dword ptr [ecx + 0x5e5f8734] ; pop ebp ; pop ebx ; ret
0x10017709 add dword ptr [ecx - 0x78cb76fd], ecx ; pop edi ; pop esi ; pop ebp ; pop ebx ; ret
0x10017745 ret
0x10017744 pop ebx ; ret
0x10017743 pop ebp ; pop ebx ; ret
0x10017742 pop esi ; pop ebp ; pop ebx ; ret
0x10017741 pop edi ; pop esi ; pop ebp ; pop ebx ; ret
0x10017740 out 0x5f, al ; pop esi ; pop ebp ; pop ebx ; ret
0x1001773f jge 0xffffffe8 ; pop edi ; pop esi ; pop ebp ; pop ebx ; ret
0x1001773e leave ; jge 0xffffffe9 ; pop edi ; pop esi ; pop ebp ; pop ebx ; ret
0x1001773d test ecx, ecx ; jge 0xffffffea ; pop edi ; pop esi ; pop ebp ; pop ebx ; ret
0x1001773c add al, 0x85 ; leave ; jge 0xffffffeb ; pop edi ; pop esi ; pop ebp ; pop ebx ; ret
0x1001773b call 0x7dc98509 ; out 0x5f, al ; pop esi ; pop ebp ; pop ebx ; ret
0x10017be4 ret
0x10017f63 ret
0x10017f60 add esp, 0x2c ; ret
0x10017f5f pop ebx ; add esp, 0x2c ; ret
0x10017f5e pop ebp ; pop ebx ; add esp, 0x2c ; ret
0x10017f5d pop esi ; pop ebp ; pop ebx ; add esp, 0x2c ; ret
0x10017f5c pop edi ; pop esi ; pop ebp ; pop ebx ; add esp, 0x2c ; ret
0x10017f5a mov eax, edi ; pop edi ; pop esi ; pop ebp ; pop ebx ; add esp, 0x2c ; ret
0x100180a8 ret
0x100180a5 add esp, 0x14 ; ret
0x100180a4 pop esi ; add esp, 0x14 ; ret
0x100180a3 pop edi ; pop esi ; add esp, 0x14 ; ret
0x100180a1 mov eax, edi ; pop edi ; pop esi ; add esp, 0x14 ; ret
0x1001809f add al, 0x10 ; mov eax, edi ; pop edi ; pop esi ; add esp, 0x14 ; ret
0x1001809e rol dword ptr [eax + edx], 1 ; mov eax, edi ; pop edi ; pop esi ; add esp, 0x14 ; ret
0x10018211 ret
0x1001820f xor al, 0xf6 ; ret
0x10018217 ret
0x10018262 ret
0x10018260 les esp, ptr [eax] ; ret
0x1001825f add esp, 0x20 ; ret
0x1001825e pop esi ; add esp, 0x20 ; ret
0x1001825c xor eax, eax ; pop esi ; add esp, 0x20 ; ret
0x1001825b pop edi ; xor eax, eax ; pop esi ; add esp, 0x20 ; ret
0x1001825a pop ebp ; pop edi ; xor eax, eax ; pop esi ; add esp, 0x20 ; ret
0x10018259 pop ebx ; pop ebp ; pop edi ; xor eax, eax ; pop esi ; add esp, 0x20 ; ret
0x10018258 adc byte ptr [ebx + 0x5d], bl ; pop edi ; xor eax, eax ; pop esi ; add esp, 0x20 ; ret
0x1001840f ret
0x1001840d add dh, dh ; ret
0x10018419 ret
0x10018607 ret
0x10018606 pop ecx ; ret
0x10018605 pop ebx ; pop ecx ; ret
0x10018604 pop ebp ; pop ebx ; pop ecx ; ret
0x10018603 pop esi ; pop ebp ; pop ebx ; pop ecx ; ret
0x10018602 pop edi ; pop esi ; pop ebp ; pop ebx ; pop ecx ; ret
0x10018601 adc byte ptr [edi + 0x5e], bl ; pop ebp ; pop ebx ; pop ecx ; ret
0x10018600 and al, 0x10 ; pop edi ; pop esi ; pop ebp ; pop ebx ; pop ecx ; ret
0x100185ff inc esp ; and al, 0x10 ; pop edi ; pop esi ; pop ebp ; pop ebx ; pop ecx ; ret
0x100185fe mov eax, dword ptr [esp + 0x10] ; pop edi ; pop esi ; pop ebp ; pop ebx ; pop ecx ; ret
0x100185fd add al, 0x8b ; inc esp ; and al, 0x10 ; pop edi ; pop esi ; pop ebp ; pop ebx ; pop ecx ; ret
0x1001870d ret
0x10018713 ret
0x10018712 pop ecx ; ret
0x10018711 pop ebx ; pop ecx ; ret
0x10018710 pop ebp ; pop ebx ; pop ecx ; ret
0x1001870f pop esi ; pop ebp ; pop ebx ; pop ecx ; ret
0x1001870e pop edi ; pop esi ; pop ebp ; pop ebx ; pop ecx ; ret
0x1001870d ret ; pop edi ; pop esi ; pop ebp ; pop ebx ; pop ecx ; ret
0x1001870c mov eax, ebx ; pop edi ; pop esi ; pop ebp ; pop ebx ; pop ecx ; ret
0x1001870b dec dword ptr [ebx + 0x5d5e5fc3] ; pop ebx ; pop ecx ; ret
0x1001871c ret
0x1001871b pop ecx ; ret
0x1001871a pop ebx ; pop ecx ; ret
0x10018719 pop ebp ; pop ebx ; pop ecx ; ret
0x10018718 pop esi ; pop ebp ; pop ebx ; pop ecx ; ret
0x10018717 pop edi ; pop esi ; pop ebp ; pop ebx ; pop ecx ; ret
0x10018716 lcall ptr [edi + 0x5e] ; pop ebp ; pop ebx ; pop ecx ; ret
0x10018715 enter 0x5fff, 0x5e ; pop ebp ; pop ebx ; pop ecx ; ret
0x10018714 or eax, 0xffffffff ; pop edi ; pop esi ; pop ebp ; pop ebx ; pop ecx ; ret
0x10018713 ret ; or eax, 0xffffffff ; pop edi ; pop esi ; pop ebp ; pop ebx ; pop ecx ; ret
0x10018712 pop ecx ; ret ; or eax, 0xffffffff ; pop edi ; pop esi ; pop ebp ; pop ebx ; pop ecx ; ret
0x1001878d ret
0x10018791 ret
0x10018790 pop ecx ; ret
0x1001878f pop ebx ; pop ecx ; ret
0x1001878e pop ebp ; pop ebx ; pop ecx ; ret
0x1001878d ret ; pop ebp ; pop ebx ; pop ecx ; ret
0x1001878c mov eax, ebx ; pop ebp ; pop ebx ; pop ecx ; ret
0x1001878b pop esi ; mov eax, ebx ; pop ebp ; pop ebx ; pop ecx ; ret
0x1001878a pop edi ; pop esi ; mov eax, ebx ; pop ebp ; pop ebx ; pop ecx ; ret
0x10018789 mov eax, dword ptr [0xc38b5e5f] ; pop ebp ; pop ebx ; pop ecx ; ret
0x10018788 jl 0xffffffa3 ; pop edi ; pop esi ; mov eax, ebx ; pop ebp ; pop ebx ; pop ecx ; ret
0x10018787 call 0x5e5fa181 ; mov eax, ebx ; pop ebp ; pop ebx ; pop ecx ; ret
0x1001883a ret
0x10018839 pop ebx ; ret
0x10018838 pop ebp ; pop ebx ; ret
0x10018837 pop esi ; pop ebp ; pop ebx ; ret
0x10018836 pop edi ; pop esi ; pop ebp ; pop ebx ; ret
0x10018835 adc al, 0x5f ; pop esi ; pop ebp ; pop ebx ; ret
0x10018834 and al, 0x14 ; pop edi ; pop esi ; pop ebp ; pop ebx ; ret
0x10018833 inc esp ; and al, 0x14 ; pop edi ; pop esi ; pop ebp ; pop ebx ; ret
0x10018832 mov eax, dword ptr [esp + 0x14] ; pop edi ; pop esi ; pop ebp ; pop ebx ; ret
0x10018831 adc byte ptr [ebx + 0x5f142444], cl ; pop esi ; pop ebp ; pop ebx ; ret
0x10018830 add al, 0x10 ; mov eax, dword ptr [esp + 0x14] ; pop edi ; pop esi ; pop ebp ; pop ebx ; ret
0x1001884a ret
0x10018849 pop ebx ; ret
0x10018848 pop ebp ; pop ebx ; ret
0x10018847 pop esi ; pop ebp ; pop ebx ; ret
0x10018846 pop edi ; pop esi ; pop ebp ; pop ebx ; ret
0x10018845 adc al, 0x5f ; pop esi ; pop ebp ; pop ebx ; ret
0x10018844 and al, 0x14 ; pop edi ; pop esi ; pop ebp ; pop ebx ; ret
0x10018843 inc esp ; and al, 0x14 ; pop edi ; pop esi ; pop ebp ; pop ebx ; ret
0x10018842 mov eax, dword ptr [esp + 0x14] ; pop edi ; pop esi ; pop ebp ; pop ebx ; ret
0x10018841 adc byte ptr [ebx + 0x5f142444], cl ; pop esi ; pop ebp ; pop ebx ; ret
0x10018840 add al, 0x10 ; mov eax, dword ptr [esp + 0x14] ; pop edi ; pop esi ; pop ebp ; pop ebx ; ret
0x1001885a ret
0x10018859 pop ebx ; ret
0x10018858 pop ebp ; pop ebx ; ret
0x10018857 pop esi ; pop ebp ; pop ebx ; ret
0x10018856 pop edi ; pop esi ; pop ebp ; pop ebx ; ret
0x10018855 adc al, 0x5f ; pop esi ; pop ebp ; pop ebx ; ret
0x10018854 and al, 0x14 ; pop edi ; pop esi ; pop ebp ; pop ebx ; ret
0x10018853 inc esp ; and al, 0x14 ; pop edi ; pop esi ; pop ebp ; pop ebx ; ret
0x10018852 mov eax, dword ptr [esp + 0x14] ; pop edi ; pop esi ; pop ebp ; pop ebx ; ret
0x10018851 adc byte ptr [ebx + 0x5f142444], cl ; pop esi ; pop ebp ; pop ebx ; ret
0x10018850 add al, 0x10 ; mov eax, dword ptr [esp + 0x14] ; pop edi ; pop esi ; pop ebp ; pop ebx ; ret
0x1001886f ret
0x1001886e pop ebx ; ret
0x1001886d pop ebp ; pop ebx ; ret
0x1001886c pop esi ; pop ebp ; pop ebx ; ret
0x1001886b pop edi ; pop esi ; pop ebp ; pop ebx ; ret
0x1001886a adc al, 0x5f ; pop esi ; pop ebp ; pop ebx ; ret
0x10018869 and al, 0x14 ; pop edi ; pop esi ; pop ebp ; pop ebx ; ret
0x10018868 inc esp ; and al, 0x14 ; pop edi ; pop esi ; pop ebp ; pop ebx ; ret
0x10018867 mov eax, dword ptr [esp + 0x14] ; pop edi ; pop esi ; pop ebp ; pop ebx ; ret
0x10018866 adc byte ptr [ebx + 0x5f142444], cl ; pop esi ; pop ebp ; pop ebx ; ret
0x10018865 add al, 0x10 ; mov eax, dword ptr [esp + 0x14] ; pop edi ; pop esi ; pop ebp ; pop ebx ; ret
0x10018884 ret
0x10018883 pop ebx ; ret
0x10018882 pop ebp ; pop ebx ; ret
0x10018881 pop esi ; pop ebp ; pop ebx ; ret
0x10018880 pop edi ; pop esi ; pop ebp ; pop ebx ; ret
0x1001887f adc byte ptr [edi + 0x5e], bl ; pop ebp ; pop ebx ; ret
0x1001887e add al, 0x10 ; pop edi ; pop esi ; pop ebp ; pop ebx ; ret
0x1001887d mov byte ptr [0x5e5f1004], al ; pop ebp ; pop ebx ; ret
0x1001887c adc al, 0xa2 ; add al, 0x10 ; pop edi ; pop esi ; pop ebp ; pop ebx ; ret
0x1001887b cmp eax, 0x1004a214 ; pop edi ; pop esi ; pop ebp ; pop ebx ; ret
0x1001887a mov dword ptr [0x1004a214], edi ; pop edi ; pop esi ; pop ebp ; pop ebx ; ret
0x100188a1 ret
0x100188a0 pop ebx ; ret
0x1001889f pop ebp ; pop ebx ; ret
0x1001889e pop esi ; pop ebp ; pop ebx ; ret
0x1001889d pop edi ; pop esi ; pop ebp ; pop ebx ; ret
0x1001889c ret 0x5e5f ; pop ebp ; pop ebx ; ret
0x1001889b mov eax, edx ; pop edi ; pop esi ; pop ebp ; pop ebx ; ret
0x1001889a adc byte ptr [ebx + 0x5d5e5fc2], cl ; pop ebx ; ret
0x10018899 add al, 0x10 ; mov eax, edx ; pop edi ; pop esi ; pop ebp ; pop ebx ; ret
0x10018898 mov byte ptr [0xc28b1004], al ; pop edi ; pop esi ; pop ebp ; pop ebx ; ret
0x10018897 or byte ptr [edx - 0x3d74effc], ah ; pop edi ; pop esi ; pop ebp ; pop ebx ; ret
0x100188c4 ret
0x100188c3 pop ebx ; ret
0x100188c2 pop ebp ; pop ebx ; ret
0x100188c1 pop esi ; pop ebp ; pop ebx ; ret
0x100188c0 pop edi ; pop esi ; pop ebp ; pop ebx ; ret
0x100188bf adc al, 0x5f ; pop esi ; pop ebp ; pop ebx ; ret
0x100188be and al, 0x14 ; pop edi ; pop esi ; pop ebp ; pop ebx ; ret
0x100188bd inc esp ; and al, 0x14 ; pop edi ; pop esi ; pop ebp ; pop ebx ; ret
0x100188bc mov eax, dword ptr [esp + 0x14] ; pop edi ; pop esi ; pop ebp ; pop ebx ; ret
0x100188bb adc byte ptr [ebx + 0x5f142444], cl ; pop esi ; pop ebp ; pop ebx ; ret
0x100188ba add al, 0x10 ; mov eax, dword ptr [esp + 0x14] ; pop edi ; pop esi ; pop ebp ; pop ebx ; ret
0x100188d9 ret
0x100188d8 pop ebx ; ret
0x100188d7 pop ebp ; pop ebx ; ret
0x100188d6 pop esi ; pop ebp ; pop ebx ; ret
0x100188d5 pop edi ; pop esi ; pop ebp ; pop ebx ; ret
0x100188d4 adc al, 0x5f ; pop esi ; pop ebp ; pop ebx ; ret
0x100188d3 and al, 0x14 ; pop edi ; pop esi ; pop ebp ; pop ebx ; ret
0x100188d2 inc esp ; and al, 0x14 ; pop edi ; pop esi ; pop ebp ; pop ebx ; ret
0x100188d1 mov eax, dword ptr [esp + 0x14] ; pop edi ; pop esi ; pop ebp ; pop ebx ; ret
0x100188d0 adc byte ptr [ebx + 0x5f142444], cl ; pop esi ; pop ebp ; pop ebx ; ret
0x100188cf add al, 0x10 ; mov eax, dword ptr [esp + 0x14] ; pop edi ; pop esi ; pop ebp ; pop ebx ; ret
0x100188ee ret
0x100188ed pop ebx ; ret
0x100188ec pop ebp ; pop ebx ; ret
0x100188eb pop esi ; pop ebp ; pop ebx ; ret
0x100188ea pop edi ; pop esi ; pop ebp ; pop ebx ; ret
0x100188e9 adc byte ptr [edi + 0x5e], bl ; pop ebp ; pop ebx ; ret
0x100188e8 add al, 0x10 ; pop edi ; pop esi ; pop ebp ; pop ebx ; ret
0x100188e7 mov eax, dword ptr [0x5e5f1004] ; pop ebp ; pop ebx ; ret
0x100188e6 in al, dx ; mov eax, dword ptr [0x5e5f1004] ; pop ebp ; pop ebx ; ret
0x100188e5 cmp eax, 0x1004a1ec ; pop edi ; pop esi ; pop ebp ; pop ebx ; ret
0x100188e4 mov dword ptr [0x1004a1ec], edi ; pop edi ; pop esi ; pop ebp ; pop ebx ; ret
0x100188fe ret
0x100188fd pop ebx ; ret
0x100188fc pop ebp ; pop ebx ; ret
0x100188fb pop esi ; pop ebp ; pop ebx ; ret
0x100188fa pop edi ; pop esi ; pop ebp ; pop ebx ; ret
0x100188f9 adc al, 0x5f ; pop esi ; pop ebp ; pop ebx ; ret
0x100188f8 and al, 0x14 ; pop edi ; pop esi ; pop ebp ; pop ebx ; ret
0x100188f7 inc esp ; and al, 0x14 ; pop edi ; pop esi ; pop ebp ; pop ebx ; ret
0x100188f6 mov eax, dword ptr [esp + 0x14] ; pop edi ; pop esi ; pop ebp ; pop ebx ; ret
0x100188f5 adc byte ptr [ebx + 0x5f142444], cl ; pop esi ; pop ebp ; pop ebx ; ret
0x100188f4 add al, 0x10 ; mov eax, dword ptr [esp + 0x14] ; pop edi ; pop esi ; pop ebp ; pop ebx ; ret
0x1001890e ret
0x1001890d pop ebx ; ret
0x1001890c pop ebp ; pop ebx ; ret
0x1001890b pop esi ; pop ebp ; pop ebx ; ret
0x10018909 adc al, 0x5f ; pop esi ; pop ebp ; pop ebx ; ret
0x10018908 and al, 0x14 ; pop edi ; pop esi ; pop ebp ; pop ebx ; ret
0x10018907 inc esp ; and al, 0x14 ; pop edi ; pop esi ; pop ebp ; pop ebx ; ret
0x10018906 mov eax, dword ptr [esp + 0x14] ; pop edi ; pop esi ; pop ebp ; pop ebx ; ret
0x10018905 adc byte ptr [ebx + 0x5f142444], cl ; pop esi ; pop ebp ; pop ebx ; ret
0x10018904 add al, 0x10 ; mov eax, dword ptr [esp + 0x14] ; pop edi ; pop esi ; pop ebp ; pop ebx ; ret
0x1001891e ret
0x1001891d pop ebx ; ret
0x1001891c pop ebp ; pop ebx ; ret
0x1001891b pop esi ; pop ebp ; pop ebx ; ret
0x1001891a pop edi ; pop esi ; pop ebp ; pop ebx ; ret
0x10018919 adc al, 0x5f ; pop esi ; pop ebp ; pop ebx ; ret
0x10018918 and al, 0x14 ; pop edi ; pop esi ; pop ebp ; pop ebx ; ret
0x10018917 inc esp ; and al, 0x14 ; pop edi ; pop esi ; pop ebp ; pop ebx ; ret
0x10018916 mov eax, dword ptr [esp + 0x14] ; pop edi ; pop esi ; pop ebp ; pop ebx ; ret
0x10018915 adc byte ptr [ebx + 0x5f142444], cl ; pop esi ; pop ebp ; pop ebx ; ret
0x10018914 add al, 0x10 ; mov eax, dword ptr [esp + 0x14] ; pop edi ; pop esi ; pop ebp ; pop ebx ; ret
0x1001892e ret
0x1001892d pop ebx ; ret
0x1001892c pop ebp ; pop ebx ; ret
0x1001892b pop esi ; pop ebp ; pop ebx ; ret
0x1001892a pop edi ; pop esi ; pop ebp ; pop ebx ; ret
0x10018929 adc al, 0x5f ; pop esi ; pop ebp ; pop ebx ; ret
0x10018928 and al, 0x14 ; pop edi ; pop esi ; pop ebp ; pop ebx ; ret
0x10018927 inc esp ; and al, 0x14 ; pop edi ; pop esi ; pop ebp ; pop ebx ; ret
0x10018926 mov eax, dword ptr [esp + 0x14] ; pop edi ; pop esi ; pop ebp ; pop ebx ; ret
0x10018925 adc byte ptr [ebx + 0x5f142444], cl ; pop esi ; pop ebp ; pop ebx ; ret
0x10018924 add al, 0x10 ; mov eax, dword ptr [esp + 0x14] ; pop edi ; pop esi ; pop ebp ; pop ebx ; ret
0x10018942 ret
0x10018941 pop ebx ; ret
0x10018940 pop ebp ; pop ebx ; ret
0x1001893f pop esi ; pop ebp ; pop ebx ; ret
0x1001893e pop edi ; pop esi ; pop ebp ; pop ebx ; ret
0x1001893d adc al, 0x5f ; pop esi ; pop ebp ; pop ebx ; ret
0x1001893c and al, 0x14 ; pop edi ; pop esi ; pop ebp ; pop ebx ; ret
0x1001893b inc esp ; and al, 0x14 ; pop edi ; pop esi ; pop ebp ; pop ebx ; ret
0x1001893a mov eax, dword ptr [esp + 0x14] ; pop edi ; pop esi ; pop ebp ; pop ebx ; ret
0x10018939 adc byte ptr [ebx + 0x5f142444], cl ; pop esi ; pop ebp ; pop ebx ; ret
0x10018938 add al, 0x10 ; mov eax, dword ptr [esp + 0x14] ; pop edi ; pop esi ; pop ebp ; pop ebx ; ret
0x10018a2b ret
0x10018a2a pop ebx ; ret
0x10018a29 pop ebp ; pop ebx ; ret
0x10018a28 pop esi ; pop ebp ; pop ebx ; ret
0x10018a27 pop edi ; pop esi ; pop ebp ; pop ebx ; ret
0x10018a26 adc al, 0x5f ; pop esi ; pop ebp ; pop ebx ; ret
0x10018a25 and al, 0x14 ; pop edi ; pop esi ; pop ebp ; pop ebx ; ret
0x10018a24 inc esp ; and al, 0x14 ; pop edi ; pop esi ; pop ebp ; pop ebx ; ret
0x10018a23 mov eax, dword ptr [esp + 0x14] ; pop edi ; pop esi ; pop ebp ; pop ebx ; ret
0x10018a22 ror dword ptr [ebx + 0x5f142444], cl ; pop esi ; pop ebp ; pop ebx ; ret
0x10018a21 call ebx ; mov eax, dword ptr [esp + 0x14] ; pop edi ; pop esi ; pop ebp ; pop ebx ; ret
0x10018a3b ret
0x10018a3a pop ebx ; ret
0x10018a39 pop ebp ; pop ebx ; ret
0x10018a38 pop esi ; pop ebp ; pop ebx ; ret
0x10018a37 pop edi ; pop esi ; pop ebp ; pop ebx ; ret
0x10018a36 adc al, 0x5f ; pop esi ; pop ebp ; pop ebx ; ret
0x10018a35 and al, 0x14 ; pop edi ; pop esi ; pop ebp ; pop ebx ; ret
0x10018a34 inc esp ; and al, 0x14 ; pop edi ; pop esi ; pop ebp ; pop ebx ; ret
0x10018a33 mov eax, dword ptr [esp + 0x14] ; pop edi ; pop esi ; pop ebp ; pop ebx ; ret
0x10018a32 adc byte ptr [ebx + 0x5f142444], cl ; pop esi ; pop ebp ; pop ebx ; ret
0x10018a31 add al, 0x10 ; mov eax, dword ptr [esp + 0x14] ; pop edi ; pop esi ; pop ebp ; pop ebx ; ret
0x10018bb0 ret
0x10018ba9 rol byte ptr [ebx - 0xccfb3c], 0x3b ; ret
0x10018c25 ret
0x10018c24 pop ebx ; ret
0x10018c22 xor eax, eax ; pop ebx ; ret
0x10018c21 pop esi ; xor eax, eax ; pop ebx ; ret
0x10018c20 pop edi ; pop esi ; xor eax, eax ; pop ebx ; ret
0x10018c1f adc byte ptr [edi + 0x5e], bl ; xor eax, eax ; pop ebx ; ret
0x10018c1e add al, 0x10 ; pop edi ; pop esi ; xor eax, eax ; pop ebx ; ret
0x10018c1d rol dword ptr [eax + edx], 1 ; pop edi ; pop esi ; xor eax, eax ; pop ebx ; ret
0x10018c1c push esp ; rol dword ptr [eax + edx], 1 ; pop edi ; pop esi ; xor eax, eax ; pop ebx ; ret
0x10018c1b adc eax, 0x1004d154 ; pop edi ; pop esi ; xor eax, eax ; pop ebx ; ret
0x1001916b ret
0x10019168 add esp, 0x2c ; ret
0x10019167 pop ebx ; add esp, 0x2c ; ret
0x10019165 xor eax, eax ; pop ebx ; add esp, 0x2c ; ret
0x10019164 pop ebp ; xor eax, eax ; pop ebx ; add esp, 0x2c ; ret
0x10019163 pop esi ; pop ebp ; xor eax, eax ; pop ebx ; add esp, 0x2c ; ret
0x10019162 pop edi ; pop esi ; pop ebp ; xor eax, eax ; pop ebx ; add esp, 0x2c ; ret
0x10019161 add al, 0x5f ; pop esi ; pop ebp ; xor eax, eax ; pop ebx ; add esp, 0x2c ; ret
0x100191de ret
0x100191dd pop esi ; ret
0x100191dc pop edi ; pop esi ; ret
0x100191db xlatb ; pop edi ; pop esi ; ret
0x100191da call edi ; pop edi ; pop esi ; ret
0x100191d9 push esi ; call edi ; pop edi ; pop esi ; ret
0x100191d8 push eax ; push esi ; call edi ; pop edi ; pop esi ; ret
0x100191d7 add al, 0x50 ; push esi ; call edi ; pop edi ; pop esi ; ret
0x100191d6 push 4 ; push eax ; push esi ; call edi ; pop edi ; pop esi ; ret
0x100191d5 sbb al, 0x6a ; add al, 0x50 ; push esi ; call edi ; pop edi ; pop esi ; ret
0x100191d4 and al, 0x1c ; push 4 ; push eax ; push esi ; call edi ; pop edi ; pop esi ; ret
0x10019229 ret
0x10019228 pop esi ; ret
0x10019227 pop edi ; pop esi ; ret
0x10019226 xlatb ; pop edi ; pop esi ; ret
0x10019225 call edi ; pop edi ; pop esi ; ret
0x10019224 add bh, bh ; xlatb ; pop edi ; pop esi ; ret
0x10019223 add byte ptr [eax], al ; call edi ; pop edi ; pop esi ; ret
0x10019222 add byte ptr [eax], al ; add bh, bh ; xlatb ; pop edi ; pop esi ; ret
0x10019221 add byte ptr [eax], al ; add byte ptr [eax], al ; call edi ; pop edi ; pop esi ; ret
0x10019220 sbb byte ptr [eax], al ; add byte ptr [eax], al ; add bh, bh ; xlatb ; pop edi ; pop esi ; ret
0x1001921f and al, 0x18 ; add byte ptr [eax], al ; add byte ptr [eax], al ; call edi ; pop edi ; pop esi ; ret
0x1001925e ret
0x1001925d pop ebp ; ret
0x1001925a mov eax, dword ptr [ebp + 8] ; pop ebp ; ret
0x10019259 mov ax, word ptr [ebp + 8] ; pop ebp ; ret
0x10019256 mov dword ptr [ebp + 8], eax ; mov ax, word ptr [ebp + 8] ; pop ebp ; ret
0x10019255 mov word ptr [ebp + 8], ax ; mov ax, word ptr [ebp + 8] ; pop ebp ; ret
0x10019290 ret
0x1001928f pop ebp ; ret
0x1001928c mov eax, dword ptr [ebp + 8] ; pop ebp ; ret
0x10019289 mov dword ptr [ebp + 8], eax ; mov eax, dword ptr [ebp + 8] ; pop ebp ; ret
0x10019287 xchg ah, al ; mov dword ptr [ebp + 8], eax ; mov eax, dword ptr [ebp + 8] ; pop ebp ; ret
0x10019286 adc byte ptr [esi + 0x84589c4], al ; mov eax, dword ptr [ebp + 8] ; pop ebp ; ret
0x100192ef ret
0x100192ed les ecx, ptr [eax] ; ret
0x100192ec add esp, 8 ; ret
0x100192ea add byte ptr [eax], al ; add esp, 8 ; ret
0x100192e8 xor al, 1 ; add byte ptr [eax], al ; add esp, 8 ; ret
0x100192e7 call 0x139 ; add esp, 8 ; ret
0x100192e6 adc al, ch ; xor al, 1 ; add byte ptr [eax], al ; add esp, 8 ; ret
0x100192e5 add dl, byte ptr [eax] ; call 0x13b ; add esp, 8 ; ret
0x10019301 ret
0x100192fe add esp, 0xc ; ret
0x100192fc add byte ptr [eax], al ; add esp, 0xc ; ret
0x100192f9 call 0x47 ; add esp, 0xc ; ret
0x100192f8 push eax ; call 0x48 ; add esp, 0xc ; ret
0x10019321 ret
0x1001931e add esp, 0xc ; ret
0x1001931c add byte ptr [eax], al ; add esp, 0xc ; ret
0x1001931a and al, byte ptr [eax] ; add byte ptr [eax], al ; add esp, 0xc ; ret
0x10019319 call 0x27 ; add esp, 0xc ; ret
0x10019318 push eax ; call 0x28 ; add esp, 0xc ; ret
0x10019317 add dword ptr [eax - 0x18], edx ; and al, byte ptr [eax] ; add byte ptr [eax], al ; add esp, 0xc ; ret
0x1001933e ret
0x1001933b add esp, 0xc ; ret
0x10019339 add byte ptr [eax], al ; add esp, 0xc ; ret
0x10019336 call 0xa ; add esp, 0xc ; ret
0x10019334 push 0 ; call 0xc ; add esp, 0xc ; ret
0x100193dc ret
0x100193db pop ebx ; ret
0x100193da pop ebp ; pop ebx ; ret
0x100193d9 pop esi ; pop ebp ; pop ebx ; ret
0x100193d8 add byte ptr [esi + 0x5d], bl ; pop ebx ; ret
0x100193d7 add byte ptr [eax], al ; pop esi ; pop ebp ; pop ebx ; ret
0x100193d6 add byte ptr [eax], al ; add byte ptr [esi + 0x5d], bl ; pop ebx ; ret
0x100193d5 aaa ; add byte ptr [eax], al ; add byte ptr [esi + 0x5d], bl ; pop ebx ; ret
0x100193d4 call 0x3c ; pop esi ; pop ebp ; pop ebx ; ret
0x100193d3 or eax, ebp ; aaa ; add byte ptr [eax], al ; add byte ptr [esi + 0x5d], bl ; pop ebx ; ret
0x100193d2 je 0xb ; call 0x3e ; pop esi ; pop ebp ; pop ebx ; ret
0x100193f1 ret
0x100193f0 pop ebx ; ret
0x100193ef pop ebp ; pop ebx ; ret
0x100193ee pop esi ; pop ebp ; pop ebx ; ret
0x100193ed adc byte ptr [esi + 0x5d], bl ; pop ebx ; ret
0x100193ec add al, 0x10 ; pop esi ; pop ebp ; pop ebx ; ret
0x100193eb rol dword ptr [eax + edx], 1 ; pop esi ; pop ebp ; pop ebx ; ret
0x100193ea jo 0xffffffd3 ; add al, 0x10 ; pop esi ; pop ebp ; pop ebx ; ret
0x100193e9 adc eax, 0x1004d170 ; pop esi ; pop ebp ; pop ebx ; ret
0x100193e8 call dword ptr [0x1004d170] ; pop esi ; pop ebp ; pop ebx ; ret
0x100193e7 add bh, bh ; adc eax, 0x1004d170 ; pop esi ; pop ebp ; pop ebx ; ret
0x10019407 add esp, 4 ; ret
0x10019405 add byte ptr [eax], al ; add esp, 4 ; ret
0x10019403 fstp dword ptr [eax] ; add byte ptr [eax], al ; add esp, 4 ; ret
0x10019402 call 0x18de ; add esp, 4 ; ret
0x10019400 push 0xd ; call 0x18e0 ; add esp, 4 ; ret
0x1001941a ret
0x10019417 add esp, 4 ; ret
0x10019415 add byte ptr [eax], al ; add esp, 4 ; ret
0x10019412 call 0x194e ; add esp, 4 ; ret
0x10019410 push 0xd ; call 0x1950 ; add esp, 4 ; ret
0x1001943f ret
0x1001943e pop esi ; ret
0x1001943d pop edi ; pop esi ; ret
0x1001943c int1 ; pop edi ; pop esi ; ret
0x1001943b jb 0xfffffff3 ; pop edi ; pop esi ; ret
0x1001943a div dword ptr [edx - 0xf] ; pop edi ; pop esi ; ret
0x10019439 cmp esi, edi ; jb 0xfffffff5 ; pop edi ; pop esi ; ret
0x10019438 add al, 0x3b ; div dword ptr [edx - 0xf] ; pop edi ; pop esi ; ret
0x10019437 mov byte ptr [ebx + edi], 0xf7 ; jb 0xfffffff7 ; pop edi ; pop esi ; ret
0x10019436 add esi, 4 ; cmp esi, edi ; jb 0xfffffff8 ; pop edi ; pop esi ; ret
0x10019435 rol byte ptr [ebx - 0x8c4fb3a], 1 ; jb 0xfffffff9 ; pop edi ; pop esi ; ret
0x1001945a ret
0x10019457 add eax, 0x20 ; ret
0x10019455 jg 0x6c ; add eax, 0x20 ; ret
0x10019454 pop edx ; jg 0x6d ; add eax, 0x20 ; ret
0x10019453 clc ; pop edx ; jg 0x6e ; add eax, 0x20 ; ret
0x10019452 cmp eax, 0x5a ; jg 0x6f ; add eax, 0x20 ; ret
0x10019451 outsd dx, dword ptr [esi] ; cmp eax, 0x5a ; jg 0x70 ; add eax, 0x20 ; ret
0x10019450 jl 0x71 ; cmp eax, 0x5a ; jg 0x71 ; add eax, 0x20 ; ret
0x100194b0 ret
0x100194ae add al, 0x8b ; ret
0x100194ad les eax, ptr [ebx + ecx*4] ; ret
0x100194b4 ret
0x100194b3 pop edi ; ret
0x100194b2 pop esi ; pop edi ; ret
0x100194b1 pop ebx ; pop esi ; pop edi ; ret
0x100194b0 ret ; pop ebx ; pop esi ; pop edi ; ret
0x100194af mov eax, ebx ; pop ebx ; pop esi ; pop edi ; ret
0x100194ae add al, 0x8b ; ret ; pop ebx ; pop esi ; pop edi ; ret
0x100194ad les eax, ptr [ebx + ecx*4] ; ret ; pop ebx ; pop esi ; pop edi ; ret
0x100194ac add esp, 4 ; mov eax, ebx ; pop ebx ; pop esi ; pop edi ; ret
0x100194ab add byte ptr [ebx - 0x3c74fb3c], al ; pop ebx ; pop esi ; pop edi ; ret
0x100194aa add byte ptr [eax], al ; add esp, 4 ; mov eax, ebx ; pop ebx ; pop esi ; pop edi ; ret
0x100194bd ret
0x100194c1 ret
0x100194c0 pop edi ; ret
0x100194bf pop esi ; pop edi ; ret
0x100194be pop ebx ; pop esi ; pop edi ; ret
0x100194bd ret ; pop ebx ; pop esi ; pop edi ; ret
0x100194bc mov eax, ebx ; pop ebx ; pop esi ; pop edi ; ret
0x100194bb xlatb ; mov eax, ebx ; pop ebx ; pop esi ; pop edi ; ret
0x100194ba call edi ; mov eax, ebx ; pop ebx ; pop esi ; pop edi ; ret
0x100194b9 adc bh, bh ; xlatb ; mov eax, ebx ; pop ebx ; pop esi ; pop edi ; ret
0x100194b8 add al, 0x10 ; call edi ; mov eax, ebx ; pop ebx ; pop esi ; pop edi ; ret
0x100194b7 mov bh, 4 ; adc bh, bh ; xlatb ; mov eax, ebx ; pop ebx ; pop esi ; pop edi ; ret
0x100194fa ret
0x100194f8 les ecx, ptr [eax] ; ret
0x100194f7 add esp, 8 ; ret
0x100194f6 pop ebx ; add esp, 8 ; ret
0x100194f5 and byte ptr [ebx - 0x7d], bl ; les ecx, ptr [eax] ; ret
0x100194f4 shl byte ptr [eax], 0x5b ; add esp, 8 ; ret
0x100194f3 add eax, 0x20 ; pop ebx ; add esp, 8 ; ret
0x100194f2 add byte ptr [ebx - 0x7ca4df40], al ; les ecx, ptr [eax] ; ret
0x100194f1 add byte ptr [eax], al ; add eax, 0x20 ; pop ebx ; add esp, 8 ; ret
0x100194f0 add byte ptr [eax], al ; add byte ptr [ebx - 0x7ca4df40], al ; les ecx, ptr [eax] ; ret
0x1001952d ret
0x10019529 sal byte ptr [ebp + 7], 0x8b ; ret
0x10019527 add dword ptr [ebp - 0x74f88a40], eax ; ret
0x10019532 ret
0x10019530 les ecx, ptr [eax] ; ret
0x1001952f add esp, 8 ; ret
0x1001952e pop ebx ; add esp, 8 ; ret
0x1001952d ret ; pop ebx ; add esp, 8 ; ret
0x1001952c mov eax, ebx ; pop ebx ; add esp, 8 ; ret
0x1001952b pop es ; mov eax, ebx ; pop ebx ; add esp, 8 ; ret
0x1001952a jne 9 ; mov eax, ebx ; pop ebx ; add esp, 8 ; ret
0x10019529 sal byte ptr [ebp + 7], 0x8b ; ret ; pop ebx ; add esp, 8 ; ret
0x10019528 test eax, eax ; jne 0xb ; mov eax, ebx ; pop ebx ; add esp, 8 ; ret
0x1001953a ret
0x10019596 ret
0x10019592 sal byte ptr [ebp + 7], 0x8b ; ret
0x10019590 sbb al, 0x85 ; sal byte ptr [ebp + 7], 0x8b ; ret
0x1001958f les ebx, ptr [eax*4 - 0x74f88a40] ; ret
0x1001959b ret
0x10019599 les ecx, ptr [eax] ; ret
0x10019598 add esp, 8 ; ret
0x10019597 pop ebx ; add esp, 8 ; ret
0x10019596 ret ; pop ebx ; add esp, 8 ; ret
0x10019595 mov eax, ebx ; pop ebx ; add esp, 8 ; ret
0x10019594 pop es ; mov eax, ebx ; pop ebx ; add esp, 8 ; ret
0x10019593 jne 9 ; mov eax, ebx ; pop ebx ; add esp, 8 ; ret
0x10019592 sal byte ptr [ebp + 7], 0x8b ; ret ; pop ebx ; add esp, 8 ; ret
0x10019591 test eax, eax ; jne 0xb ; mov eax, ebx ; pop ebx ; add esp, 8 ; ret
0x100195ae ret
0x100195ac les ecx, ptr [eax] ; ret
0x100195ab add esp, 8 ; ret
0x100195aa pop ebx ; add esp, 8 ; ret
0x100195a9 add byte ptr [ebx - 0x7d], bl ; les ecx, ptr [eax] ; ret
0x100195a8 add byte ptr [eax], al ; pop ebx ; add esp, 8 ; ret
0x100195a7 add byte ptr [eax], al ; add byte ptr [ebx - 0x7d], bl ; les ecx, ptr [eax] ; ret
0x100195a6 inc dword ptr [eax] ; add byte ptr [eax], al ; pop ebx ; add esp, 8 ; ret
0x100195a5 and eax, 0xff ; pop ebx ; add esp, 8 ; ret
0x100195a4 add al, 0x25 ; inc dword ptr [eax] ; add byte ptr [eax], al ; pop ebx ; add esp, 8 ; ret
0x100195cb ret
0x100195c9 les ecx, ptr [eax] ; ret
0x100195c8 add esp, 8 ; ret
0x100195c7 pop ebx ; add esp, 8 ; ret
0x100195c5 or eax, ecx ; pop ebx ; add esp, 8 ; ret
0x100195c3 loopne 0xa ; or eax, ecx ; pop ebx ; add esp, 8 ; ret
0x100195c2 shl eax, 8 ; or eax, ecx ; pop ebx ; add esp, 8 ; ret
0x100195c1 add cl, al ; loopne 0xc ; or eax, ecx ; pop ebx ; add esp, 8 ; ret
0x100195f4 ret
0x100195f3 pop ecx ; ret
0x100195f2 pop esi ; pop ecx ; ret
0x100195f0 and eax, ecx ; pop esi ; pop ecx ; ret
0x100195ee and al, 0x10 ; and eax, ecx ; pop esi ; pop ecx ; ret
0x100195ed dec esp ; and al, 0x10 ; and eax, ecx ; pop esi ; pop ecx ; ret
0x100195ec mov ecx, dword ptr [esp + 0x10] ; and eax, ecx ; pop esi ; pop ecx ; ret
0x100195eb dec edx ; mov ecx, dword ptr [esp + 0x10] ; and eax, ecx ; pop esi ; pop ecx ; ret
0x100195ea add al, 0x4a ; mov ecx, dword ptr [esp + 0x10] ; and eax, ecx ; pop esi ; pop ecx ; ret
0x10019650 ret
0x1001964f pop ecx ; ret
0x1001964e pop esi ; pop ecx ; ret
0x1001964d add ebx, dword ptr [esi + 0x59] ; ret
0x1001964c jne 5 ; pop esi ; pop ecx ; ret
0x1001964b sal byte ptr [ebp + 3], 0x5e ; pop ecx ; ret
0x1001964a test eax, eax ; jne 7 ; pop esi ; pop ecx ; ret
0x10019649 sbb byte ptr [ebp + 0x5e0375c0], al ; pop ecx ; ret
0x10019648 les ebx, ptr [eax] ; test eax, eax ; jne 9 ; pop esi ; pop ecx ; ret
0x10019647 add esp, 0x18 ; test eax, eax ; jne 0xa ; pop esi ; pop ecx ; ret
0x10019646 add byte ptr [ebx - 0x3f7ae73c], al ; jne 0xb ; pop esi ; pop ecx ; ret
0x10019662 ret
0x10019661 pop ecx ; ret
0x1001965f and eax, ecx ; pop ecx ; ret
0x1001965e pop esi ; and eax, ecx ; pop ecx ; ret
0x1001965c add byte ptr [eax], al ; pop esi ; and eax, ecx ; pop ecx ; ret
0x10019659 and eax, 0xffff ; pop esi ; and eax, ecx ; pop ecx ; ret
0x10019658 adc byte ptr [0xffff], ah ; pop esi ; and eax, ecx ; pop ecx ; ret
0x1001972b ret
0x1001972a pop esi ; ret
0x10019729 into ; pop esi ; ret
0x10019728 jl 0xffffffd0 ; pop esi ; ret
0x10019727 adc byte ptr [esi + ecx*8 + 0x5e], bh ; ret
0x10019726 add dl, byte ptr [eax] ; jl 0xffffffd2 ; pop esi ; ret
0x10019725 test byte ptr [edx], al ; adc byte ptr [esi + ecx*8 + 0x5e], bh ; ret
0x10019724 cwde ; test byte ptr [edx], al ; adc byte ptr [esi + ecx*8 + 0x5e], bh ; ret
0x10019723 cli ; cwde ; test byte ptr [edx], al ; adc byte ptr [esi + ecx*8 + 0x5e], bh ; ret
0x10019722 cmp edx, 0x10028498 ; jl 0xffffffd6 ; pop esi ; ret
0x10019721 inc ecx ; cmp edx, 0x10028498 ; jl 0xffffffd7 ; pop esi ; ret
0x10019743 ret
0x10019741 add byte ptr [eax], al ; ret
0x1001973e jmp 0x20f2 ; ret
0x1001973c je 7 ; jmp 0x20f4 ; ret
0x1001973a test al, al ; je 9 ; jmp 0x20f6 ; ret
0x1001979a ret
0x10019799 pop ecx ; ret
0x10019798 pop esi ; pop ecx ; ret
0x10019797 add al, 0x5e ; pop ecx ; ret
0x10019796 les eax, ptr [esi + ebx*2] ; pop ecx ; ret
0x10019795 add esp, 4 ; pop esi ; pop ecx ; ret
0x10019794 add byte ptr [ebx + 0x595e04c4], al ; ret
0x10019793 add byte ptr [eax], al ; add esp, 4 ; pop esi ; pop ecx ; ret
0x10019792 adc eax, 0xc4830000 ; add al, 0x5e ; pop ecx ; ret
0x10019791 retf ; adc eax, 0xc4830000 ; add al, 0x5e ; pop ecx ; ret
0x10019790 call 0x15d0 ; add esp, 4 ; pop esi ; pop ecx ; ret
0x100197b7 ret
0x100197b6 pop ecx ; ret
0x100197b5 pop esi ; pop ecx ; ret
0x100197b4 adc byte ptr [esi + 0x59], bl ; ret
0x100197b3 add al, 0x10 ; pop esi ; pop ecx ; ret
0x100197b2 rol dword ptr [eax + edx], 1 ; pop esi ; pop ecx ; ret
0x100197b1 mov cl, dl ; add al, 0x10 ; pop esi ; pop ecx ; ret
0x100197b0 adc eax, 0x1004d188 ; pop esi ; pop ecx ; ret
0x100197af call dword ptr [0x1004d188] ; pop esi ; pop ecx ; ret
0x100197ae push ecx ; call dword ptr [0x1004d188] ; pop esi ; pop ecx ; ret
0x100197ad add byte ptr [ecx - 1], dl ; adc eax, 0x1004d188 ; pop esi ; pop ecx ; ret
0x100197d3 ret
0x100197d1 les ecx, ptr [eax] ; ret
0x100197d0 add esp, 8 ; ret
0x100197ce add byte ptr [eax], al ; add esp, 8 ; ret
0x100197cc adc byte ptr [eax], al ; add byte ptr [eax], al ; add esp, 8 ; ret
0x100197cb call 0x15 ; add esp, 8 ; ret
0x100197ca push ecx ; call 0x16 ; add esp, 8 ; ret
0x100197c9 push eax ; push ecx ; call 0x17 ; add esp, 8 ; ret
0x10019823 ret
0x10019822 pop esi ; ret
0x10019821 pop edi ; pop esi ; ret
0x1001981f xor eax, eax ; pop edi ; pop esi ; ret
0x1001981d jne 0xffffffdb ; xor eax, eax ; pop edi ; pop esi ; ret
0x1001981b test eax, eax ; jne 0xffffffdd ; xor eax, eax ; pop edi ; pop esi ; ret
0x10019871 ret
0x10019870 pop esi ; ret
0x1001986f pop edi ; pop esi ; ret
0x1001986d mov eax, edi ; pop edi ; pop esi ; ret
0x1001986c add eax, 0x5e5fc78b ; ret
0x1001986b je 7 ; mov eax, edi ; pop edi ; pop esi ; ret
0x10019869 test edi, edi ; je 9 ; mov eax, edi ; pop edi ; pop esi ; ret
0x10019884 ret
0x10019883 pop esi ; ret
0x10019882 pop edi ; pop esi ; ret
0x10019881 adc byte ptr [edi + 0x5e], bl ; ret
0x10019880 add al, 0x10 ; pop edi ; pop esi ; ret
0x1001987f rol dword ptr [eax + edx], 1 ; pop edi ; pop esi ; ret
0x1001987e mov ecx, ss ; add al, 0x10 ; pop edi ; pop esi ; ret
0x1001987d adc eax, 0x1004d18c ; pop edi ; pop esi ; ret
0x1001987c call dword ptr [0x1004d18c] ; pop edi ; pop esi ; ret
0x1001987b push edx ; call dword ptr [0x1004d18c] ; pop edi ; pop esi ; ret
0x1001987a add byte ptr [edx - 1], dl ; adc eax, 0x1004d18c ; pop edi ; pop esi ; ret
0x100198a6 ret
0x100198a4 fnclex ; ret
0x100198a2 add byte ptr [eax], al ; fnclex ; ret
0x1001989f call 0x28c1 ; fnclex ; ret
0x1001989d add al, 0x10 ; call 0x28c3 ; fnclex ; ret
0x1001989c popfd ; add al, 0x10 ; call 0x28c4 ; fnclex ; ret
0x100198b0 ret
0x100198af nop ; ret
0x100198ae nop ; nop ; ret
0x100198ad nop ; nop ; nop ; ret
0x100198ac nop ; nop ; nop ; nop ; ret
0x100198ab nop ; nop ; nop ; nop ; nop ; ret
0x100198aa nop ; nop ; nop ; nop ; nop ; nop ; ret
0x100198a9 nop ; nop ; nop ; nop ; nop ; nop ; nop ; ret
0x100198a8 nop ; nop ; nop ; nop ; nop ; nop ; nop ; nop ; ret
0x100198a7 nop ; nop ; nop ; nop ; nop ; nop ; nop ; nop ; nop ; ret
0x100198a6 ret ; nop ; nop ; nop ; nop ; nop ; nop ; nop ; nop ; nop ; ret
0x100198f7 ret
0x100198f5 add dl, byte ptr [eax] ; ret
0x100198f4 stosd dword ptr es:[edi], eax ; add dl, byte ptr [eax] ; ret
0x100198f3 inc esp ; stosd dword ptr es:[edi], eax ; add dl, byte ptr [eax] ; ret
0x100198f2 mov dword ptr [0x1002ab44], eax ; ret
0x100198f1 adc byte ptr [ebx + 0x1002ab44], ah ; ret
0x100198f0 add dword ptr [eax], edx ; mov dword ptr [0x1002ab44], eax ; ret
0x100198ef ret 0x1001 ; mov dword ptr [0x1002ab44], eax ; ret
0x100198ee rol dl, 1 ; add dword ptr [eax], edx ; mov dword ptr [0x1002ab44], eax ; ret
0x100198ed adc al, dl ; ret 0x1001 ; mov dword ptr [0x1002ab44], eax ; ret
0x10019926 ret
0x10019925 leave ; ret
0x10019924 clc ; leave ; ret
0x10019923 push ebp ; clc ; leave ; ret
0x10019922 mov edx, dword ptr [ebp - 8] ; leave ; ret
0x10019921 hlt ; mov edx, dword ptr [ebp - 8] ; leave ; ret
0x10019920 inc ebp ; hlt ; mov edx, dword ptr [ebp - 8] ; leave ; ret
0x1001991f mov eax, dword ptr [ebp - 0xc] ; mov edx, dword ptr [ebp - 8] ; leave ; ret
0x1001991e dec byte ptr [ebx + 0x558bf445] ; clc ; leave ; ret
0x1001991d insd dword ptr es:[edi], dx ; dec byte ptr [ebx + 0x558bf445] ; clc ; leave ; ret
0x1001991c fldcw word ptr [ebp - 2] ; mov eax, dword ptr [ebp - 0xc] ; mov edx, dword ptr [ebp - 8] ; leave ; ret
0x10019966 ret
0x10019965 pop esi ; ret
0x10019964 pop edi ; pop esi ; ret
0x10019962 mov eax, edi ; pop edi ; pop esi ; ret
0x1001995f add esp, 4 ; mov eax, edi ; pop edi ; pop esi ; ret
0x1001995e add byte ptr [ebx - 0x3874fb3c], al ; pop edi ; pop esi ; ret
0x1001995d add byte ptr [eax], al ; add esp, 4 ; mov eax, edi ; pop edi ; pop esi ; ret
0x1001995c adc al, 0 ; add byte ptr [ebx - 0x3874fb3c], al ; pop edi ; pop esi ; ret
0x10019995 ret
0x10019994 pop ecx ; ret
0x10019993 pop ebx ; pop ecx ; ret
0x10019992 pop ebp ; pop ebx ; pop ecx ; ret
0x10019991 pop esi ; pop ebp ; pop ebx ; pop ecx ; ret
0x10019990 pop edi ; pop esi ; pop ebp ; pop ebx ; pop ecx ; ret
0x1001998f rcr byte ptr [edi + 0x5e], 0x5d ; pop ebx ; pop ecx ; ret
0x1001998e xor eax, eax ; pop edi ; pop esi ; pop ebp ; pop ebx ; pop ecx ; ret
0x1001998d or byte ptr [ebx], dh ; rcr byte ptr [edi + 0x5e], 0x5d ; pop ebx ; pop ecx ; ret
0x1001998c jne 0xa ; xor eax, eax ; pop edi ; pop esi ; pop ebp ; pop ebx ; pop ecx ; ret
0x1001998b adc byte ptr [ebp + 8], dh ; xor eax, eax ; pop edi ; pop esi ; pop ebp ; pop ebx ; pop ecx ; ret
0x10019a88 ret
0x10019a87 pop ecx ; ret
0x10019a86 pop ebx ; pop ecx ; ret
0x10019a85 pop ebp ; pop ebx ; pop ecx ; ret
0x10019a84 pop esi ; pop ebp ; pop ebx ; pop ecx ; ret
0x10019a83 pop edi ; pop esi ; pop ebp ; pop ebx ; pop ecx ; ret
0x10019a82 and byte ptr [edi + 0x5e], bl ; pop ebp ; pop ebx ; pop ecx ; ret
0x10019a81 and al, 0x20 ; pop edi ; pop esi ; pop ebp ; pop ebx ; pop ecx ; ret
0x10019a80 inc esp ; and al, 0x20 ; pop edi ; pop esi ; pop ebp ; pop ebx ; pop ecx ; ret
0x10019a7f mov eax, dword ptr [esp + 0x20] ; pop edi ; pop esi ; pop ebp ; pop ebx ; pop ecx ; ret
0x10019a7e dec dword ptr [ebx + 0x5f202444] ; pop esi ; pop ebp ; pop ebx ; pop ecx ; ret
0x10019aa3 ret
0x10019aa2 pop ecx ; ret
0x10019aa1 pop ebx ; pop ecx ; ret
0x10019aa0 pop ebp ; pop ebx ; pop ecx ; ret
0x10019a9f pop esi ; pop ebp ; pop ebx ; pop ecx ; ret
0x10019a9e pop edi ; pop esi ; pop ebp ; pop ebx ; pop ecx ; ret
0x10019a9d sbb al, 0x5f ; pop esi ; pop ebp ; pop ebx ; pop ecx ; ret
0x10019a9c and al, 0x1c ; pop edi ; pop esi ; pop ebp ; pop ebx ; pop ecx ; ret
0x10019a9b je 0x26 ; sbb al, 0x5f ; pop esi ; pop ebp ; pop ebx ; pop ecx ; ret
0x10019a9a div dword ptr [esp + 0x1c] ; pop edi ; pop esi ; pop ebp ; pop ebx ; pop ecx ; ret
0x10019a99 sal bh, cl ; je 0x28 ; sbb al, 0x5f ; pop esi ; pop ebp ; pop ebx ; pop ecx ; ret
0x10019ab5 ret
0x10019ab4 pop ecx ; ret
0x10019ab3 pop ebx ; pop ecx ; ret
0x10019ab2 pop ebp ; pop ebx ; pop ecx ; ret
0x10019ab1 pop esi ; pop ebp ; pop ebx ; pop ecx ; ret
0x10019ab0 pop edi ; pop esi ; pop ebp ; pop ebx ; pop ecx ; ret
0x10019aaf sbb al, 0x5f ; pop esi ; pop ebp ; pop ebx ; pop ecx ; ret
0x10019aae and al, 0x1c ; pop edi ; pop esi ; pop ebp ; pop ebx ; pop ecx ; ret
0x10019aad je 0x26 ; sbb al, 0x5f ; pop esi ; pop ebp ; pop ebx ; pop ecx ; ret
0x10019aac div dword ptr [esp + 0x1c] ; pop edi ; pop esi ; pop ebp ; pop ebx ; pop ecx ; ret
0x10019ad3 ret
0x10019ad2 pop esi ; ret
0x10019ad1 add al, 0x5e ; ret
0x10019ad0 les eax, ptr [esi + ebx*2] ; ret
0x10019acf add esp, 4 ; pop esi ; ret
0x10019acd add byte ptr [eax], al ; add esp, 4 ; pop esi ; ret
0x10019aca call 0xf6 ; add esp, 4 ; pop esi ; ret
0x10019ac9 push esi ; call 0xf7 ; add esp, 4 ; pop esi ; ret
0x10019af6 ret
0x10019af5 pop esi ; ret
0x10019af4 pop edi ; pop esi ; ret
0x10019af2 mov eax, edi ; pop edi ; pop esi ; ret
0x10019aef add esp, 4 ; mov eax, edi ; pop edi ; pop esi ; ret
0x10019aee add byte ptr [ebx - 0x3874fb3c], al ; pop edi ; pop esi ; ret
0x10019aed add byte ptr [eax], al ; add esp, 4 ; mov eax, edi ; pop edi ; pop esi ; ret
0x10019aec adc eax, dword ptr [eax] ; add byte ptr [ebx - 0x3874fb3c], al ; pop edi ; pop esi ; ret
0x10019b16 ret
0x10019b15 pop esi ; ret
0x10019b12 or eax, 0xffffffff ; pop esi ; ret
0x10019b11 add eax, 0x5effc883 ; ret
0x10019b10 je 7 ; or eax, 0xffffffff ; pop esi ; ret
0x10019b0e test eax, eax ; je 9 ; or eax, 0xffffffff ; pop esi ; ret
0x10019b30 ret
0x10019b2f pop esi ; ret
0x10019b2d sbb eax, eax ; pop esi ; ret
0x10019b2b neg eax ; sbb eax, eax ; pop esi ; ret
0x10019b28 add esp, 4 ; neg eax ; sbb eax, eax ; pop esi ; ret
0x10019b27 add byte ptr [ebx - 0x2708fb3c], al ; sbb eax, eax ; pop esi ; ret
0x10019b26 add byte ptr [eax], al ; add esp, 4 ; neg eax ; sbb eax, eax ; pop esi ; ret
0x10019b34 ret
0x10019b33 pop esi ; ret
0x10019b31 xor eax, eax ; pop esi ; ret
0x10019b30 ret ; xor eax, eax ; pop esi ; ret
0x10019b2f pop esi ; ret ; xor eax, eax ; pop esi ; ret
0x10019b2d sbb eax, eax ; pop esi ; ret ; xor eax, eax ; pop esi ; ret
0x10019b2b neg eax ; sbb eax, eax ; pop esi ; ret ; xor eax, eax ; pop esi ; ret
0x10019b8f ret
0x10019b93 ret
0x10019b92 pop ebx ; ret
0x10019b91 pop esi ; pop ebx ; ret
0x10019b90 pop edi ; pop esi ; pop ebx ; ret
0x10019b8f ret ; pop edi ; pop esi ; pop ebx ; ret
0x10019b8e mov eax, ebx ; pop edi ; pop esi ; pop ebx ; ret
0x10019b8d push es ; mov eax, ebx ; pop edi ; pop esi ; pop ebx ; ret
0x10019b8c mov dword ptr [esi], eax ; mov eax, ebx ; pop edi ; pop esi ; pop ebx ; ret
0x10019b8b or byte ptr [ecx + 0x5fc38b06], cl ; pop esi ; pop ebx ; ret
0x10019b8a inc esi ; or byte ptr [ecx + 0x5fc38b06], cl ; pop esi ; pop ebx ; ret
0x10019b89 mov eax, dword ptr [esi + 8] ; mov dword ptr [esi], eax ; mov eax, ebx ; pop edi ; pop esi ; pop ebx ; ret
0x10019baa ret
0x10019bad ret
0x10019bac pop ebx ; ret
0x10019bab pop esi ; pop ebx ; ret
0x10019baa ret ; pop esi ; pop ebx ; ret
0x10019ba9 mov eax, ebx ; pop esi ; pop ebx ; ret
0x10019ba8 pop edi ; mov eax, ebx ; pop esi ; pop ebx ; ret
0x10019ba7 push es ; pop edi ; mov eax, ebx ; pop esi ; pop ebx ; ret
0x10019ba6 mov dword ptr [esi], eax ; pop edi ; mov eax, ebx ; pop esi ; pop ebx ; ret
0x10019ba5 add byte ptr [ecx - 0x3c74a0fa], cl ; pop esi ; pop ebx ; ret
0x10019ba4 add byte ptr [eax], al ; mov dword ptr [esi], eax ; pop edi ; mov eax, ebx ; pop esi ; pop ebx ; ret
0x10019ba3 add byte ptr [eax], al ; add byte ptr [ecx - 0x3c74a0fa], cl ; pop esi ; pop ebx ; ret
0x10019bba ret
0x10019bb7 add esp, 4 ; ret
0x10019bb5 add byte ptr [eax], al ; add esp, 4 ; ret
0x10019bb3 or dword ptr [eax], eax ; add byte ptr [eax], al ; add esp, 4 ; ret
0x10019bb2 call 0xe ; add esp, 4 ; ret
0x10019bb1 add eax, ebp ; or dword ptr [eax], eax ; add byte ptr [eax], al ; add esp, 4 ; ret
0x10019bb0 push 1 ; call 0x10 ; add esp, 4 ; ret
0x10019c7a ret
0x10019c79 pop ecx ; ret
0x10019c78 pop ebx ; pop ecx ; ret
0x10019c77 pop ebp ; pop ebx ; pop ecx ; ret
0x10019c76 pop esi ; pop ebp ; pop ebx ; pop ecx ; ret
0x10019c75 pop edi ; pop esi ; pop ebp ; pop ebx ; pop ecx ; ret
0x10019c74 lds ebx, ptr [edi + 0x5e] ; pop ebp ; pop ebx ; pop ecx ; ret
0x10019c73 mov eax, ebp ; pop edi ; pop esi ; pop ebp ; pop ebx ; pop ecx ; ret
0x10019c72 add cl, byte ptr [ebx + 0x5d5e5fc5] ; pop ebx ; pop ecx ; ret
0x10019c71 je 4 ; mov eax, ebp ; pop edi ; pop esi ; pop ebp ; pop ebx ; pop ecx ; ret
0x10019c70 add dword ptr [edx + eax - 0x75], esi ; lds ebx, ptr [edi + 0x5e] ; pop ebp ; pop ebx ; pop ecx ; ret
0x10019cb6 ret
0x10019cb5 pop esi ; ret
0x10019cb4 pop edi ; pop esi ; ret
0x10019cb2 mov eax, edi ; pop edi ; pop esi ; ret
0x10019caf add esp, 4 ; mov eax, edi ; pop edi ; pop esi ; ret
0x10019cae add byte ptr [ebx - 0x3874fb3c], al ; pop edi ; pop esi ; ret
0x10019cad add byte ptr [eax], al ; add esp, 4 ; mov eax, edi ; pop edi ; pop esi ; ret
0x10019cac adc dword ptr [eax], eax ; add byte ptr [ebx - 0x3874fb3c], al ; pop edi ; pop esi ; ret
0x10019ce5 ret
0x10019ce4 pop ecx ; ret
0x10019ce3 pop ebx ; pop ecx ; ret
0x10019ce2 pop ebp ; pop ebx ; pop ecx ; ret
0x10019ce1 pop esi ; pop ebp ; pop ebx ; pop ecx ; ret
0x10019ce0 pop edi ; pop esi ; pop ebp ; pop ebx ; pop ecx ; ret
0x10019cdf rcr byte ptr [edi + 0x5e], 0x5d ; pop ebx ; pop ecx ; ret
0x10019cde xor eax, eax ; pop edi ; pop esi ; pop ebp ; pop ebx ; pop ecx ; ret
0x10019cdd or byte ptr [ebx], dh ; rcr byte ptr [edi + 0x5e], 0x5d ; pop ebx ; pop ecx ; ret
0x10019cdc jne 0xa ; xor eax, eax ; pop edi ; pop esi ; pop ebp ; pop ebx ; pop ecx ; ret
0x10019cdb adc byte ptr [ebp + 8], dh ; xor eax, eax ; pop edi ; pop esi ; pop ebp ; pop ebx ; pop ecx ; ret
0x10019db3 ret
0x10019db2 pop ecx ; ret
0x10019db1 pop ebx ; pop ecx ; ret
0x10019db0 pop ebp ; pop ebx ; pop ecx ; ret
0x10019daf pop esi ; pop ebp ; pop ebx ; pop ecx ; ret
0x10019dae pop edi ; pop esi ; pop ebp ; pop ebx ; pop ecx ; ret
0x10019dad and byte ptr [edi + 0x5e], bl ; pop ebp ; pop ebx ; pop ecx ; ret
0x10019dac and al, 0x20 ; pop edi ; pop esi ; pop ebp ; pop ebx ; pop ecx ; ret
0x10019dab inc esp ; and al, 0x20 ; pop edi ; pop esi ; pop ebp ; pop ebx ; pop ecx ; ret
0x10019daa mov eax, dword ptr [esp + 0x20] ; pop edi ; pop esi ; pop ebp ; pop ebx ; pop ecx ; ret
0x10019da9 dec dword ptr [ebx + 0x5f202444] ; pop esi ; pop ebp ; pop ebx ; pop ecx ; ret
0x10019dce ret
0x10019dcd pop ecx ; ret
0x10019dcc pop ebx ; pop ecx ; ret
0x10019dcb pop ebp ; pop ebx ; pop ecx ; ret
0x10019dca pop esi ; pop ebp ; pop ebx ; pop ecx ; ret
0x10019dc9 pop edi ; pop esi ; pop ebp ; pop ebx ; pop ecx ; ret
0x10019dc8 sbb al, 0x5f ; pop esi ; pop ebp ; pop ebx ; pop ecx ; ret
0x10019dc7 and al, 0x1c ; pop edi ; pop esi ; pop ebp ; pop ebx ; pop ecx ; ret
0x10019dc6 je 0x26 ; sbb al, 0x5f ; pop esi ; pop ebp ; pop ebx ; pop ecx ; ret
0x10019dc5 div dword ptr [esp + 0x1c] ; pop edi ; pop esi ; pop ebp ; pop ebx ; pop ecx ; ret
0x10019dc4 sal bh, cl ; je 0x28 ; sbb al, 0x5f ; pop esi ; pop ebp ; pop ebx ; pop ecx ; ret
0x10019de9 ret
0x10019de8 pop ecx ; ret
0x10019de7 pop ebx ; pop ecx ; ret
0x10019de6 pop ebp ; pop ebx ; pop ecx ; ret
0x10019de5 pop esi ; pop ebp ; pop ebx ; pop ecx ; ret
0x10019de4 pop edi ; pop esi ; pop ebp ; pop ebx ; pop ecx ; ret
0x10019de3 sbb al, 0x5f ; pop esi ; pop ebp ; pop ebx ; pop ecx ; ret
0x10019de2 and al, 0x1c ; pop edi ; pop esi ; pop ebp ; pop ebx ; pop ecx ; ret
0x10019de1 je 0x26 ; sbb al, 0x5f ; pop esi ; pop ebp ; pop ebx ; pop ecx ; ret
0x10019de0 div dword ptr [esp + 0x1c] ; pop edi ; pop esi ; pop ebp ; pop ebx ; pop ecx ; ret
0x10019ddf sal bh, cl ; je 0x28 ; sbb al, 0x5f ; pop esi ; pop ebp ; pop ebx ; pop ecx ; ret
0x10019dfb ret
0x10019dfa pop ecx ; ret
0x10019df9 pop ebx ; pop ecx ; ret
0x10019df8 pop ebp ; pop ebx ; pop ecx ; ret
0x10019df7 pop esi ; pop ebp ; pop ebx ; pop ecx ; ret
0x10019df6 pop edi ; pop esi ; pop ebp ; pop ebx ; pop ecx ; ret
0x10019df5 sbb al, 0x5f ; pop esi ; pop ebp ; pop ebx ; pop ecx ; ret
0x10019df4 and al, 0x1c ; pop edi ; pop esi ; pop ebp ; pop ebx ; pop ecx ; ret
0x10019df3 je 0x26 ; sbb al, 0x5f ; pop esi ; pop ebp ; pop ebx ; pop ecx ; ret
0x10019df2 div dword ptr [esp + 0x1c] ; pop edi ; pop esi ; pop ebp ; pop ebx ; pop ecx ; ret
0x10019e44 ret
0x10019e42 add al, 0x8b ; ret
0x10019e41 les eax, ptr [ebx + ecx*4] ; ret
0x10019e48 ret
0x10019e47 pop ebx ; ret
0x10019e46 pop esi ; pop ebx ; ret
0x10019e45 pop edi ; pop esi ; pop ebx ; ret
0x10019e44 ret ; pop edi ; pop esi ; pop ebx ; ret
0x10019e43 mov eax, ebx ; pop edi ; pop esi ; pop ebx ; ret
0x10019e42 add al, 0x8b ; ret ; pop edi ; pop esi ; pop ebx ; ret
0x10019e41 les eax, ptr [ebx + ecx*4] ; ret ; pop edi ; pop esi ; pop ebx ; ret
0x10019e40 add esp, 4 ; mov eax, ebx ; pop edi ; pop esi ; pop ebx ; ret
0x10019e3f add byte ptr [ebx - 0x3c74fb3c], al ; pop edi ; pop esi ; pop ebx ; ret
0x10019e3e add byte ptr [eax], al ; add esp, 4 ; mov eax, ebx ; pop edi ; pop esi ; pop ebx ; ret
0x10019ea1 ret
0x10019e9f les esp, ptr [eax] ; ret
0x10019e9e add esp, 0x20 ; ret
0x10019e9d pop esi ; add esp, 0x20 ; ret
0x10019e9b mov eax, esi ; pop esi ; add esp, 0x20 ; ret
0x10019e99 add byte ptr [eax], al ; mov eax, esi ; pop esi ; add esp, 0x20 ; ret
0x10019e98 mov byte ptr [eax], 0 ; mov eax, esi ; pop esi ; add esp, 0x20 ; ret
0x10019e97 add al, 0xc6 ; add byte ptr [eax], al ; mov eax, esi ; pop esi ; add esp, 0x20 ; ret
0x10019eb7 ret
0x10019eb5 les esp, ptr [eax] ; ret
0x10019eb4 add esp, 0x20 ; ret
0x10019eb3 pop esi ; add esp, 0x20 ; ret
0x10019eb1 mov eax, esi ; pop esi ; add esp, 0x20 ; ret
0x10019eaf les ecx, ptr [eax] ; mov eax, esi ; pop esi ; add esp, 0x20 ; ret
0x10019eae add esp, 8 ; mov eax, esi ; pop esi ; add esp, 0x20 ; ret
0x10019ead add byte ptr [ebx - 0x3974f73c], al ; pop esi ; add esp, 0x20 ; ret
0x10019f19 ret
0x10019f18 pop edi ; ret
0x10019f17 pop esi ; pop edi ; ret
0x10019f16 pop ebx ; pop esi ; pop edi ; ret
0x10019f15 adc byte ptr [ebx + 0x5e], bl ; pop edi ; ret
0x10019f14 and al, 0x10 ; pop ebx ; pop esi ; pop edi ; ret
0x10019f13 inc esp ; and al, 0x10 ; pop ebx ; pop esi ; pop edi ; ret
0x10019f12 mov eax, dword ptr [esp + 0x10] ; pop ebx ; pop esi ; pop edi ; ret
0x10019f11 mov eax, dword ptr [esp + 0x10] ; pop ebx ; pop esi ; pop edi ; ret
0x10019f10 jne 0xfffffff5 ; mov eax, dword ptr [esp + 0x10] ; pop ebx ; pop esi ; pop edi ; ret
0x10019f0f dec ebx ; jne 0xfffffff6 ; mov eax, dword ptr [esp + 0x10] ; pop ebx ; pop esi ; pop edi ; ret
0x10019f48 ret
0x10019f47 pop edi ; ret
0x10019f45 and al, 8 ; pop edi ; ret
0x10019f44 inc esp ; and al, 8 ; pop edi ; ret
0x10019f43 mov eax, dword ptr [esp + 8] ; pop edi ; ret
0x10019f42 pop esi ; mov eax, dword ptr [esp + 8] ; pop edi ; ret
0x10019f41 pop ebx ; pop esi ; mov eax, dword ptr [esp + 8] ; pop edi ; ret
0x10019f40 cli ; pop ebx ; pop esi ; mov eax, dword ptr [esp + 8] ; pop edi ; ret
0x10019f3f jne 0xfffffffc ; pop ebx ; pop esi ; mov eax, dword ptr [esp + 8] ; pop edi ; ret
0x10019f3e dec ebx ; jne 0xfffffffd ; pop ebx ; pop esi ; mov eax, dword ptr [esp + 8] ; pop edi ; ret
0x10019fbd ret
0x10019fbc pop edi ; ret
0x10019fbb pop esi ; pop edi ; ret
0x10019fba pop ebx ; pop esi ; pop edi ; ret
0x10019fb9 adc byte ptr [ebx + 0x5e], bl ; pop edi ; ret
0x10019fb8 and al, 0x10 ; pop ebx ; pop esi ; pop edi ; ret
0x10019fb7 inc esp ; and al, 0x10 ; pop ebx ; pop esi ; pop edi ; ret
0x10019fb6 mov eax, dword ptr [esp + 0x10] ; pop ebx ; pop esi ; pop edi ; ret
0x10019fb5 test dword ptr [ebx + 0x5b102444], ecx ; pop esi ; pop edi ; ret
0x10019fb4 jne 0xffffff87 ; mov eax, dword ptr [esp + 0x10] ; pop ebx ; pop esi ; pop edi ; ret
0x10019fb3 add esi, dword ptr [ebp - 0x7b] ; mov eax, dword ptr [esp + 0x10] ; pop ebx ; pop esi ; pop edi ; ret
0x1001a09e ret
0x1001a09d pop esi ; ret
0x1001a09c pop edi ; pop esi ; ret
0x1001a09a xor eax, eax ; pop edi ; pop esi ; ret
0x1001a097 add esp, 4 ; xor eax, eax ; pop edi ; pop esi ; ret
0x1001a096 add byte ptr [ebx - 0x3fccfb3c], al ; pop edi ; pop esi ; ret
0x1001a095 add byte ptr [eax], al ; add esp, 4 ; xor eax, eax ; pop edi ; pop esi ; ret
0x1001a094 or al, 0 ; add byte ptr [ebx - 0x3fccfb3c], al ; pop edi ; pop esi ; ret
0x1001a0d7 ret
0x1001a0d6 pop esi ; ret
0x1001a0d5 pop edi ; pop esi ; ret
0x1001a0d3 mov eax, edi ; pop edi ; pop esi ; ret
0x1001a0d0 add esp, 4 ; mov eax, edi ; pop edi ; pop esi ; ret
0x1001a0cf add byte ptr [ebx - 0x3874fb3c], al ; pop edi ; pop esi ; ret
0x1001a0ce add byte ptr [eax], al ; add esp, 4 ; mov eax, edi ; pop edi ; pop esi ; ret
0x1001a0cd or al, 0 ; add byte ptr [ebx - 0x3874fb3c], al ; pop edi ; pop esi ; ret
0x1001a15c ret
0x1001a15b pop ebx ; ret
0x1001a15a pop esi ; pop ebx ; ret
0x1001a159 pop edi ; pop esi ; pop ebx ; ret
0x1001a158 movsb byte ptr es:[edi], byte ptr [esi] ; pop edi ; pop esi ; pop ebx ; ret
0x1001a157 rep movsb byte ptr es:[edi], byte ptr [esi] ; pop edi ; pop esi ; pop ebx ; ret
0x1001a156 add esi, ebx ; movsb byte ptr es:[edi], byte ptr [esi] ; pop edi ; pop esi ; pop ebx ; ret
0x1001a155 loope 5 ; rep movsb byte ptr es:[edi], byte ptr [esi] ; pop edi ; pop esi ; pop ebx ; ret
0x1001a154 and ecx, 3 ; rep movsb byte ptr es:[edi], byte ptr [esi] ; pop edi ; pop esi ; pop ebx ; ret
0x1001a153 retf -0x1e7d ; add esi, ebx ; movsb byte ptr es:[edi], byte ptr [esi] ; pop edi ; pop esi ; pop ebx ; ret
0x1001a152 mov ecx, edx ; and ecx, 3 ; rep movsb byte ptr es:[edi], byte ptr [esi] ; pop edi ; pop esi ; pop ebx ; ret
0x1001a18c ret
0x1001a18b pop ebx ; ret
0x1001a188 or eax, 0xffffffff ; pop ebx ; ret
0x1001a187 add eax, 0x5bffc883 ; ret
0x1001a186 jb 7 ; or eax, 0xffffffff ; pop ebx ; ret
0x1001a185 add byte ptr [edx + 5], dh ; or eax, 0xffffffff ; pop ebx ; ret
0x1001a184 add byte ptr [eax], al ; jb 9 ; or eax, 0xffffffff ; pop ebx ; ret
0x1001a183 jg 2 ; add byte ptr [edx + 5], dh ; or eax, 0xffffffff ; pop ebx ; ret
0x1001a1c1 ret
0x1001a1c0 pop ebx ; ret
0x1001a1bf pop edi ; pop ebx ; ret
0x1001a1be pop esi ; pop edi ; pop ebx ; ret
0x1001a1bd movsb byte ptr es:[edi], byte ptr [esi] ; pop esi ; pop edi ; pop ebx ; ret
0x1001a1bc rep movsb byte ptr es:[edi], byte ptr [esi] ; pop esi ; pop edi ; pop ebx ; ret
0x1001a1bb add esi, ebx ; movsb byte ptr es:[edi], byte ptr [esi] ; pop esi ; pop edi ; pop ebx ; ret
0x1001a1ba loope 5 ; rep movsb byte ptr es:[edi], byte ptr [esi] ; pop esi ; pop edi ; pop ebx ; ret
0x1001a1b9 and ecx, 3 ; rep movsb byte ptr es:[edi], byte ptr [esi] ; pop esi ; pop edi ; pop ebx ; ret
0x1001a1b8 retf -0x1e7d ; add esi, ebx ; movsb byte ptr es:[edi], byte ptr [esi] ; pop esi ; pop edi ; pop ebx ; ret
0x1001a1b7 mov ecx, edx ; and ecx, 3 ; rep movsb byte ptr es:[edi], byte ptr [esi] ; pop esi ; pop edi ; pop ebx ; ret
0x1001a201 ret
0x1001a200 pop esi ; ret
0x1001a1ff pop edi ; pop esi ; ret
0x1001a1fd mov eax, edi ; pop edi ; pop esi ; ret
0x1001a1fa add esp, 4 ; mov eax, edi ; pop edi ; pop esi ; ret
0x1001a1f9 add byte ptr [ebx - 0x3874fb3c], al ; pop edi ; pop esi ; ret
0x1001a1f8 add byte ptr [eax], al ; add esp, 4 ; mov eax, edi ; pop edi ; pop esi ; ret
0x1001a1f7 or eax, dword ptr [eax] ; add byte ptr [ebx - 0x3874fb3c], al ; pop edi ; pop esi ; ret
0x1001a295 ret
0x1001a294 pop esi ; ret
0x1001a293 pop edi ; pop esi ; ret
0x1001a292 dec eax ; pop edi ; pop esi ; ret
0x1001a291 fmul dword ptr [eax + 0x5f] ; pop esi ; ret
0x1001a290 neg eax ; dec eax ; pop edi ; pop esi ; ret
0x1001a28f sal bh, 0xd8 ; dec eax ; pop edi ; pop esi ; ret
0x1001a28e sbb eax, eax ; neg eax ; dec eax ; pop edi ; pop esi ; ret
0x1001a28d fcomp dword ptr [ebx] ; sal bh, 0xd8 ; dec eax ; pop edi ; pop esi ; ret
0x1001a28c neg eax ; sbb eax, eax ; neg eax ; dec eax ; pop edi ; pop esi ; ret
0x1001a28b inc eax ; neg eax ; sbb eax, eax ; neg eax ; dec eax ; pop edi ; pop esi ; ret
0x1001a2a6 ret
0x1001a2a5 pop esi ; ret
0x1001a2a2 or eax, 0xffffffff ; pop esi ; ret
0x1001a2a1 pop edi ; or eax, 0xffffffff ; pop esi ; ret
0x1001a29f add byte ptr [eax], al ; pop edi ; or eax, 0xffffffff ; pop esi ; ret
0x1001a2ca ret
0x1001a2c9 pop esi ; ret
0x1001a2c8 pop edi ; pop esi ; ret
0x1001a2c6 mov eax, edi ; pop edi ; pop esi ; ret
0x1001a2c4 add byte ptr [eax], al ; mov eax, edi ; pop edi ; pop esi ; ret
0x1001a2c2 add byte ptr [eax], al ; add byte ptr [eax], al ; mov eax, edi ; pop edi ; pop esi ; ret
0x1001a2ec ret
0x1001a2eb pop esi ; ret
0x1001a2ea pop edi ; pop esi ; ret
0x1001a2e8 mov eax, edi ; pop edi ; pop esi ; ret
0x1001a2e5 add esp, 4 ; mov eax, edi ; pop edi ; pop esi ; ret
0x1001a2e4 add byte ptr [ebx - 0x3874fb3c], al ; pop edi ; pop esi ; ret
0x1001a2e3 add byte ptr [eax], al ; add esp, 4 ; mov eax, edi ; pop edi ; pop esi ; ret
0x1001a2e2 or eax, dword ptr [eax] ; add byte ptr [ebx - 0x3874fb3c], al ; pop edi ; pop esi ; ret
0x1001a331 ret
0x1001a330 pop esi ; ret
0x1001a32f pop edi ; pop esi ; ret
0x1001a32d mov eax, edi ; pop edi ; pop esi ; ret
0x1001a32b add byte ptr [eax], al ; mov eax, edi ; pop edi ; pop esi ; ret
0x1001a329 add byte ptr [eax], al ; add byte ptr [eax], al ; mov eax, edi ; pop edi ; pop esi ; ret
0x1001a354 ret
0x1001a353 pop esi ; ret
0x1001a352 pop edi ; pop esi ; ret
0x1001a351 add byte ptr [edi + 0x5e], bl ; ret
0x1001a350 add byte ptr [eax], al ; pop edi ; pop esi ; ret
0x1001a34f add byte ptr [eax], al ; add byte ptr [edi + 0x5e], bl ; ret
0x1001a34e add byte ptr [eax], al ; add byte ptr [eax], al ; pop edi ; pop esi ; ret
0x1001a34d or al, 0 ; add byte ptr [eax], al ; add byte ptr [edi + 0x5e], bl ; ret
0x1001a34c inc esi ; or al, 0 ; add byte ptr [eax], al ; add byte ptr [edi + 0x5e], bl ; ret
0x1001a34b mov dword ptr [esi + 0xc], 0 ; pop edi ; pop esi ; ret
0x1001a34a mov edi, 0xc46 ; add byte ptr [eax], al ; pop edi ; pop esi ; ret
0x1001a3a1 ret
0x1001a39f les esp, ptr [eax] ; ret
0x1001a39e add esp, 0x20 ; ret
0x1001a39d pop edi ; add esp, 0x20 ; ret
0x1001a39c or al, 0x5f ; add esp, 0x20 ; ret
0x1001a39b les ecx, ptr [edi + ebx*2] ; add esp, 0x20 ; ret
0x1001a39a add esp, 0xc ; pop edi ; add esp, 0x20 ; ret
0x1001a399 add byte ptr [ebx - 0x7ca0f33c], al ; les esp, ptr [eax] ; ret
0x1001a398 add byte ptr [eax], al ; add esp, 0xc ; pop edi ; add esp, 0x20 ; ret
0x1001a397 inc esp ; add byte ptr [eax], al ; add esp, 0xc ; pop edi ; add esp, 0x20 ; ret
0x1001a3d7 ret
0x1001a3d6 pop esi ; ret
0x1001a3d4 mov eax, esi ; pop esi ; ret
0x1001a3d1 add esp, 4 ; mov eax, esi ; pop esi ; ret
0x1001a3d0 add byte ptr [ebx - 0x3974fb3c], al ; pop esi ; ret
0x1001a3cf add byte ptr [eax], al ; add esp, 4 ; mov eax, esi ; pop esi ; ret
0x1001a3ce or dword ptr [eax], eax ; add byte ptr [ebx - 0x3974fb3c], al ; pop esi ; ret
0x1001a44f ret
0x1001a44d add al, 0x83 ; ret
0x1001a44c push ebx ; add al, 0x83 ; ret
0x1001a448 sal byte ptr [ecx + edx - 0x75], 0x53 ; add al, 0x83 ; ret
0x1001a446 or al, 0x85 ; sal byte ptr [ecx + edx - 0x75], 0x53 ; add al, 0x83 ; ret
0x1001a445 les ecx, ptr [eax*4 - 0x74ee8b40] ; push ebx ; add al, 0x83 ; ret
0x1001a45b ret
0x1001a45a pop ebx ; ret
0x1001a459 pop ebp ; pop ebx ; ret
0x1001a458 pop esi ; pop ebp ; pop ebx ; ret
0x1001a457 pop edi ; pop esi ; pop ebp ; pop ebx ; ret
0x1001a456 rcr byte ptr [edi + 0x5e], 0x5d ; pop ebx ; ret
0x1001a455 xor eax, eax ; pop edi ; pop esi ; pop ebp ; pop ebx ; ret
0x1001a454 sal dword ptr [ebx], 1 ; rcr byte ptr [edi + 0x5e], 0x5d ; pop ebx ; ret
0x1001a453 jne 0xffffffd3 ; xor eax, eax ; pop edi ; pop esi ; pop ebp ; pop ebx ; ret
0x1001a452 sal byte ptr [ebp - 0x2f], cl ; xor eax, eax ; pop edi ; pop esi ; pop ebp ; pop ebx ; ret
0x1001a451 test edx, edx ; jne 0xffffffd5 ; xor eax, eax ; pop edi ; pop esi ; pop ebp ; pop ebx ; ret
0x1001a466 ret
0x1001a465 pop ebx ; ret
0x1001a464 pop ebp ; pop ebx ; ret
0x1001a463 pop esi ; pop ebp ; pop ebx ; ret
0x1001a462 pop edi ; pop esi ; pop ebp ; pop ebx ; ret
0x1001a461 add dword ptr [edi + 0x5e], ebx ; pop ebp ; pop ebx ; ret
0x1001a460 xor byte ptr [ecx], al ; pop edi ; pop esi ; pop ebp ; pop ebx ; ret
0x1001a45f inc esp ; xor byte ptr [ecx], al ; pop edi ; pop esi ; pop ebp ; pop ebx ; ret
0x1001a45e lea eax, dword ptr [eax + esi + 1] ; pop edi ; pop esi ; pop ebp ; pop ebx ; ret
0x1001a45d add ecx, dword ptr [ebp + 0x5f013044] ; pop esi ; pop ebp ; pop ebx ; ret
0x1001a45c mov eax, dword ptr [ebx] ; lea eax, dword ptr [eax + esi + 1] ; pop edi ; pop esi ; pop ebp ; pop ebx ; ret
0x1001a46d ret
0x1001a46c pop ebx ; ret
0x1001a46a xor eax, eax ; pop ebx ; ret
0x1001a469 pop ebp ; xor eax, eax ; pop ebx ; ret
0x1001a468 pop esi ; pop ebp ; xor eax, eax ; pop ebx ; ret
0x1001a467 pop edi ; pop esi ; pop ebp ; xor eax, eax ; pop ebx ; ret
0x1001a466 ret ; pop edi ; pop esi ; pop ebp ; xor eax, eax ; pop ebx ; ret
0x1001a465 pop ebx ; ret ; pop edi ; pop esi ; pop ebp ; xor eax, eax ; pop ebx ; ret
0x1001a464 pop ebp ; pop ebx ; ret ; pop edi ; pop esi ; pop ebp ; xor eax, eax ; pop ebx ; ret
0x1001a463 pop esi ; pop ebp ; pop ebx ; ret ; pop edi ; pop esi ; pop ebp ; xor eax, eax ; pop ebx ; ret
0x1001a47d ret
0x1001a47c pop esi ; ret
0x1001a47a jne 4 ; pop esi ; ret
0x1001a479 div byte ptr [ebp + 2] ; pop esi ; ret
0x1001a478 test esi, esi ; jne 6 ; pop esi ; ret
0x1001a476 mov esi, eax ; test esi, esi ; jne 8 ; pop esi ; ret
0x1001a474 add byte ptr [eax], al ; mov esi, eax ; test esi, esi ; jne 0xa ; pop esi ; ret
0x1001a4a6 ret
0x1001a4a5 pop esi ; ret
0x1001a4a4 pop edi ; pop esi ; ret
0x1001a4a2 mov eax, edi ; pop edi ; pop esi ; ret
0x1001a49f add esp, 4 ; mov eax, edi ; pop edi ; pop esi ; ret
0x1001a49e add byte ptr [ebx - 0x3874fb3c], al ; pop edi ; pop esi ; ret
0x1001a49d add byte ptr [eax], al ; add esp, 4 ; mov eax, edi ; pop edi ; pop esi ; ret
0x1001a49c or dword ptr [eax], eax ; add byte ptr [ebx - 0x3874fb3c], al ; pop edi ; pop esi ; ret
0x1001a4c4 ret
0x1001a4c1 add esp, 0xc ; ret
0x1001a4bc call 0xffffffb4 ; add esp, 0xc ; ret
0x1001a4bb push ecx ; call 0xffffffb5 ; add esp, 0xc ; ret
0x1001a4ba push eax ; push ecx ; call 0xffffffb6 ; add esp, 0xc ; ret
0x1001a54a ret
0x1001a548 sub eax, eax ; ret
0x1001a547 pop esi ; sub eax, eax ; ret
0x1001a546 pop edi ; pop esi ; sub eax, eax ; ret
0x1001a545 movsd dword ptr es:[edi], dword ptr [esi] ; pop edi ; pop esi ; sub eax, eax ; ret
0x1001a544 rep movsd dword ptr es:[edi], dword ptr [esi] ; pop edi ; pop esi ; sub eax, eax ; ret
0x1001a543 add bl, dh ; movsd dword ptr es:[edi], dword ptr [esi] ; pop edi ; pop esi ; sub eax, eax ; ret
0x1001a542 add byte ptr [eax], al ; rep movsd dword ptr es:[edi], dword ptr [esi] ; pop edi ; pop esi ; sub eax, eax ; ret
0x1001a541 add byte ptr [eax], al ; add bl, dh ; movsd dword ptr es:[edi], dword ptr [esi] ; pop edi ; pop esi ; sub eax, eax ; ret
0x1001a540 push es ; add byte ptr [eax], al ; add bl, dh ; movsd dword ptr es:[edi], dword ptr [esi] ; pop edi ; pop esi ; sub eax, eax ; ret
0x1001a5c4 ret
0x1001a5c1 jmp dword ptr [edx + 0x14] ; ret
0x1001a5be add esp, 4 ; jmp dword ptr [edx + 0x14] ; ret
0x1001a5bc bound edx, qword ptr [eax] ; add esp, 4 ; jmp dword ptr [edx + 0x14] ; ret
0x1001a5bb mov esp, dword ptr [edx + 0x10] ; add esp, 4 ; jmp dword ptr [edx + 0x14] ; ret
0x1001a609 ret
0x1001a607 xor eax, eax ; ret
0x1001a606 pop edi ; xor eax, eax ; ret
0x1001a605 pop ebx ; pop edi ; xor eax, eax ; ret
0x1001a604 pop esi ; pop ebx ; pop edi ; xor eax, eax ; ret
0x1001a603 cmc ; pop esi ; pop ebx ; pop edi ; xor eax, eax ; ret
0x1001a602 jne 0xfffffff7 ; pop esi ; pop ebx ; pop edi ; xor eax, eax ; ret
0x1001a601 sal byte ptr [ebp - 0xb], 0x5e ; pop ebx ; pop edi ; xor eax, eax ; ret
0x1001a600 test al, al ; jne 0xfffffff9 ; pop esi ; pop ebx ; pop edi ; xor eax, eax ; ret
0x1001a5ff or al, byte ptr [eax + eax*8 + 0x5b5ef575] ; pop edi ; xor eax, eax ; ret
0x1001a649 ret
0x1001a648 pop edi ; ret
0x1001a647 pop ebx ; pop edi ; ret
0x1001a646 pop esi ; pop ebx ; pop edi ; ret
0x1001a645 lcall ptr [esi + 0x5b] ; pop edi ; ret
0x1001a644 inc edi ; lcall ptr [esi + 0x5b] ; pop edi ; ret
0x1001a643 lea eax, dword ptr [edi - 1] ; pop esi ; pop ebx ; pop edi ; ret
0x1001a642 add byte ptr [ebp + 0x5b5eff47], cl ; pop edi ; ret
0x1001a641 add byte ptr [eax], al ; lea eax, dword ptr [edi - 1] ; pop esi ; pop ebx ; pop edi ; ret
0x1001a640 push esp ; add byte ptr [eax], al ; lea eax, dword ptr [edi - 1] ; pop esi ; pop ebx ; pop edi ; ret
0x1001a63f add edx, dword ptr [eax + eax] ; lea eax, dword ptr [edi - 1] ; pop esi ; pop ebx ; pop edi ; ret
0x1001a64f ret
0x1001a64e pop edi ; ret
0x1001a64d pop ebx ; pop edi ; ret
0x1001a64c pop esi ; pop ebx ; pop edi ; ret
0x1001a64a mov eax, edi ; pop esi ; pop ebx ; pop edi ; ret
0x1001a649 ret ; mov eax, edi ; pop esi ; pop ebx ; pop edi ; ret
0x1001a648 pop edi ; ret ; mov eax, edi ; pop esi ; pop ebx ; pop edi ; ret
0x1001a647 pop ebx ; pop edi ; ret ; mov eax, edi ; pop esi ; pop ebx ; pop edi ; ret
0x1001a646 pop esi ; pop ebx ; pop edi ; ret ; mov eax, edi ; pop esi ; pop ebx ; pop edi ; ret
0x1001a645 lcall ptr [esi + 0x5b] ; pop edi ; ret ; mov eax, edi ; pop esi ; pop ebx ; pop edi ; ret
0x1001a707 ret
0x1001a705 add byte ptr [eax], al ; ret
0x1001a703 add byte ptr [ecx], al ; add byte ptr [eax], al ; ret
0x1001a701 add esp, 0x100 ; ret
0x1001a700 pop ebx ; add esp, 0x100 ; ret
0x1001a6ff pop ebp ; pop ebx ; add esp, 0x100 ; ret
0x1001a6fe pop esi ; pop ebp ; pop ebx ; add esp, 0x100 ; ret
0x1001a6fd pop edi ; pop esi ; pop ebp ; pop ebx ; add esp, 0x100 ; ret
0x1001a70c ret
0x1001a70b scasd eax, dword ptr es:[edi] ; ret
0x1001a858 ret
0x1001a857 pop ebx ; ret
0x1001a856 pop edi ; pop ebx ; ret
0x1001a855 pop esi ; pop edi ; pop ebx ; ret
0x1001a854 pop ebp ; pop esi ; pop edi ; pop ebx ; ret
0x1001a853 retf 0x5e5d ; pop edi ; pop ebx ; ret
0x1001a852 ja 0xffffffcc ; pop ebp ; pop esi ; pop edi ; pop ebx ; ret
0x1001a851 clc ; ja 0xffffffcd ; pop ebp ; pop esi ; pop edi ; pop ebx ; ret
0x1001a850 cmp edi, eax ; ja 0xffffffce ; pop ebp ; pop esi ; pop edi ; pop ebx ; ret
0x1001a84f or al, 0x3b ; clc ; ja 0xffffffcf ; pop ebp ; pop esi ; pop edi ; pop ebx ; ret
0x1001a84e les ecx, ptr [ebx + edi] ; clc ; ja 0xffffffd0 ; pop ebp ; pop esi ; pop edi ; pop ebx ; ret
0x1001a88b ret
0x1001a88a pop esi ; ret
0x1001a889 pop ebx ; pop esi ; ret
0x1001a888 pop ebx ; pop esi ; ret
0x1001a887 jne 0xfffffff5 ; pop ebx ; pop esi ; ret
0x1001a886 dec esi ; jne 0xfffffff6 ; pop ebx ; pop esi ; ret
0x1001a885 inc ecx ; dec esi ; jne 0xfffffff7 ; pop ebx ; pop esi ; ret
0x1001a884 adc dword ptr [ecx + 0x4e], eax ; jne 0xfffffff8 ; pop ebx ; pop esi ; ret
0x1001a883 mov byte ptr [ecx], dl ; inc ecx ; dec esi ; jne 0xfffffff9 ; pop ebx ; pop esi ; ret
0x1001a882 inc eax ; mov byte ptr [ecx], dl ; inc ecx ; dec esi ; jne 0xfffffffa ; pop ebx ; pop esi ; ret
0x1001a881 sbb byte ptr [eax - 0x78], al ; adc dword ptr [ecx + 0x4e], eax ; jne 0xfffffffb ; pop ebx ; pop esi ; ret
0x1001a8ea ret
0x1001a8e9 pop ebx ; ret
0x1001a8e8 pop esi ; pop ebx ; ret
0x1001a8e7 lcall ptr [esi + 0x5b] ; ret
0x1001a8e6 enter 0x5eff, 0x5b ; ret
0x1001a8e5 or eax, 0xffffffff ; pop esi ; pop ebx ; ret
0x1001a8e4 push es ; or eax, 0xffffffff ; pop esi ; pop ebx ; ret
0x1001a8e3 mov dword ptr [esi], eax ; or eax, 0xffffffff ; pop esi ; pop ebx ; ret
0x1001a8e2 inc eax ; mov dword ptr [esi], eax ; or eax, 0xffffffff ; pop esi ; pop ebx ; ret
0x1001a8e1 adc byte ptr [eax - 0x77], al ; push es ; or eax, 0xffffffff ; pop esi ; pop ebx ; ret
0x1001a8e0 je 0x12 ; inc eax ; mov dword ptr [esi], eax ; or eax, 0xffffffff ; pop esi ; pop ebx ; ret
0x1001a904 ret
0x1001a902 or al, 0x8b ; ret
0x1001a901 inc esi ; or al, 0x8b ; ret
0x1001a8ff add al, 0x89 ; inc esi ; or al, 0x8b ; ret
0x1001a8fe push esi ; add al, 0x89 ; inc esi ; or al, 0x8b ; ret
0x1001a8fc add dword ptr [ecx + 0x46890456], ecx ; or al, 0x8b ; ret
0x1001a90c ret
0x1001a90b pop ebx ; ret
0x1001a909 add byte ptr [esi + 0x5b], bl ; ret
0x1001a908 add byte ptr [eax], al ; pop esi ; pop ebx ; ret
0x1001a907 add byte ptr [eax], al ; add byte ptr [esi + 0x5b], bl ; ret
0x1001a906 inc dword ptr [eax] ; add byte ptr [eax], al ; pop esi ; pop ebx ; ret
0x1001a905 and eax, 0xff ; pop esi ; pop ebx ; ret
0x1001a904 ret ; and eax, 0xff ; pop esi ; pop ebx ; ret
0x1001a903 mov eax, ebx ; and eax, 0xff ; pop esi ; pop ebx ; ret
0x1001a902 or al, 0x8b ; ret ; and eax, 0xff ; pop esi ; pop ebx ; ret
0x1001a912 ret
0x1001a911 pop ebx ; ret
0x1001a90e or eax, 0xffffffff ; pop ebx ; ret
0x1001a90d pop esi ; or eax, 0xffffffff ; pop ebx ; ret
0x1001a90c ret ; pop esi ; or eax, 0xffffffff ; pop ebx ; ret
0x1001a90b pop ebx ; ret ; pop esi ; or eax, 0xffffffff ; pop ebx ; ret
0x1001a909 add byte ptr [esi + 0x5b], bl ; ret ; pop esi ; or eax, 0xffffffff ; pop ebx ; ret
0x1001a908 add byte ptr [eax], al ; pop esi ; pop ebx ; ret ; pop esi ; or eax, 0xffffffff ; pop ebx ; ret
0x1001a937 ret
0x1001a931 adc dword ptr [ebp - 0x7cf78925], eax ; ret
0x1001a960 ret
0x1001a9c3 ret
0x1001a9c2 pop ebx ; ret
0x1001a9c1 pop ebp ; pop ebx ; ret
0x1001a9c0 pop esi ; pop ebp ; pop ebx ; ret
0x1001a9bf pop edi ; pop esi ; pop ebp ; pop ebx ; ret
0x1001a9be mov bl, byte ptr [edi + 0x5e] ; pop ebp ; pop ebx ; ret
0x1001a9bd jne 0xffffff8c ; pop edi ; pop esi ; pop ebp ; pop ebx ; ret
0x1001a9bc sal byte ptr [ebp - 0x76], 0x5f ; pop esi ; pop ebp ; pop ebx ; ret
0x1001a9bb test eax, eax ; jne 0xffffff8e ; pop edi ; pop esi ; pop ebp ; pop ebx ; ret
0x1001a9ba add al, 0x85 ; sal byte ptr [ebp - 0x76], 0x5f ; pop esi ; pop ebp ; pop ebx ; ret
0x1001a9b9 les eax, ptr [eax*4 + 0x5f8a75c0] ; pop esi ; pop ebp ; pop ebx ; ret
0x1001a9ca ret
0x1001a9c9 pop ebx ; ret
0x1001a9c8 pop ebp ; pop ebx ; ret
0x1001a9c7 pop esi ; pop ebp ; pop ebx ; ret
0x1001a9c6 pop edi ; pop esi ; pop ebp ; pop ebx ; ret
0x1001a9c4 mov eax, esi ; pop edi ; pop esi ; pop ebp ; pop ebx ; ret
0x1001a9c3 ret ; mov eax, esi ; pop edi ; pop esi ; pop ebp ; pop ebx ; ret
0x1001a9c2 pop ebx ; ret ; mov eax, esi ; pop edi ; pop esi ; pop ebp ; pop ebx ; ret
0x1001a9c1 pop ebp ; pop ebx ; ret ; mov eax, esi ; pop edi ; pop esi ; pop ebp ; pop ebx ; ret
0x1001a9c0 pop esi ; pop ebp ; pop ebx ; ret ; mov eax, esi ; pop edi ; pop esi ; pop ebp ; pop ebx ; ret
0x1001ac27 ret
0x1001ac24 add esp, 4 ; ret
0x1001ac22 add dl, byte ptr [eax] ; add esp, 4 ; ret
0x1001ac20 rol byte ptr [esi - 0x3b7ceffe], 4 ; ret
0x1001ac1f adc eax, 0x100286c0 ; add esp, 4 ; ret
0x1001ac1e call dword ptr [0x100286c0] ; add esp, 4 ; ret
0x1001ac1d add bh, bh ; adc eax, 0x100286c0 ; add esp, 4 ; ret
0x1001ac5a ret
0x1001ac59 pop esi ; ret
0x1001ac58 salc ; pop esi ; ret
0x1001ac57 call esi ; pop esi ; ret
0x1001ac56 push eax ; call esi ; pop esi ; ret
0x1001ac55 adc byte ptr [eax - 1], dl ; salc ; pop esi ; ret
0x1001ac54 add dl, byte ptr [eax] ; push eax ; call esi ; pop esi ; ret
0x1001ac53 xchg byte ptr [edx], al ; adc byte ptr [eax - 1], dl ; salc ; pop esi ; ret
0x1001ac52 int3 ; xchg byte ptr [edx], al ; adc byte ptr [eax - 1], dl ; salc ; pop esi ; ret
0x1001ac51 mov eax, dword ptr [0x100286cc] ; push eax ; call esi ; pop esi ; ret
0x1001ac50 salc ; mov eax, dword ptr [0x100286cc] ; push eax ; call esi ; pop esi ; ret
0x1001acd1 ret
0x1001acd0 pop esi ; ret
0x1001accf pop edi ; pop esi ; ret
0x1001acce xlatb ; pop edi ; pop esi ; ret
0x1001accd call edi ; pop edi ; pop esi ; ret
0x1001accc push ecx ; call edi ; pop edi ; pop esi ; ret
0x1001accb adc byte ptr [ecx - 1], dl ; xlatb ; pop edi ; pop esi ; ret
0x1001acca add dl, byte ptr [eax] ; push ecx ; call edi ; pop edi ; pop esi ; ret
0x1001acc9 xchg byte ptr [edx], al ; adc byte ptr [ecx - 1], dl ; xlatb ; pop edi ; pop esi ; ret
0x1001acc8 int3 ; xchg byte ptr [edx], al ; adc byte ptr [ecx - 1], dl ; xlatb ; pop edi ; pop esi ; ret
0x1001acc7 or eax, 0x100286cc ; push ecx ; call edi ; pop edi ; pop esi ; ret
0x1001ad55 ret
0x1001ad54 pop ebp ; ret
0x1001ad53 pop edi ; pop ebp ; ret
0x1001ad52 adc byte ptr [edi + 0x5d], bl ; ret
0x1001ad51 add al, 0x10 ; pop edi ; pop ebp ; ret
0x1001ad50 rol dword ptr [eax + edx], 1 ; pop edi ; pop ebp ; ret
0x1001ad4f test al, 0xd1 ; add al, 0x10 ; pop edi ; pop ebp ; ret
0x1001ad4e adc eax, 0x1004d1a8 ; pop edi ; pop ebp ; ret
0x1001ad4d call dword ptr [0x1004d1a8] ; pop edi ; pop ebp ; ret
0x1001ad4c push eax ; call dword ptr [0x1004d1a8] ; pop edi ; pop ebp ; ret
0x1001ad4b adc byte ptr [eax - 1], dl ; adc eax, 0x1004d1a8 ; pop edi ; pop ebp ; ret
0x1001ad75 ret
0x1001ad74 pop ebp ; ret
0x1001ad72 add al, 0x10 ; pop ebp ; ret
0x1001ad71 rol dword ptr [eax + edx], 1 ; pop ebp ; ret
0x1001ad70 lodsb al, byte ptr [esi] ; rol dword ptr [eax + edx], 1 ; pop ebp ; ret
0x1001ad6f adc eax, 0x1004d1ac ; pop ebp ; ret
0x1001ad6e call dword ptr [0x1004d1ac] ; pop ebp ; ret
0x1001ad6d push ecx ; call dword ptr [0x1004d1ac] ; pop ebp ; ret
0x1001ad6c adc byte ptr [ecx - 1], dl ; adc eax, 0x1004d1ac ; pop ebp ; ret
0x1001ad6b add dl, byte ptr [eax] ; push ecx ; call dword ptr [0x1004d1ac] ; pop ebp ; ret
0x1001ada9 ret
0x1001ada8 pop ebp ; ret
0x1001ada7 add al, 0x5d ; ret
0x1001ada5 add esp, 4 ; pop ebp ; ret
0x1001ada0 call 0xffffff40 ; add esp, 4 ; pop ebp ; ret
0x1001ad9f push eax ; call 0xffffff41 ; add esp, 4 ; pop ebp ; ret
0x1001adb5 ret
0x1001adb4 pop ebp ; ret
0x1001adb2 add al, 0x10 ; pop ebp ; ret
0x1001adb1 rol dword ptr [eax + edx], 1 ; pop ebp ; ret
0x1001adb0 test al, 0xd1 ; add al, 0x10 ; pop ebp ; ret
0x1001adaf adc eax, 0x1004d1a8 ; pop ebp ; ret
0x1001adae call dword ptr [0x1004d1a8] ; pop ebp ; ret
0x1001adad push eax ; call dword ptr [0x1004d1a8] ; pop ebp ; ret
0x1001adac and byte ptr [eax - 1], dl ; adc eax, 0x1004d1a8 ; pop ebp ; ret
0x1001adab shl byte ptr [eax], 0x50 ; call dword ptr [0x1004d1a8] ; pop ebp ; ret
0x1001add8 ret
0x1001add7 pop ebp ; ret
0x1001add6 add al, 0x5d ; ret
0x1001add4 add esp, 4 ; pop ebp ; ret
0x1001adcf call 0xffffff11 ; add esp, 4 ; pop ebp ; ret
0x1001adce push eax ; call 0xffffff12 ; add esp, 4 ; pop ebp ; ret
0x1001ade7 ret
0x1001ade6 pop ebp ; ret
0x1001ade4 add al, 0x10 ; pop ebp ; ret
0x1001ade3 rol dword ptr [eax + edx], 1 ; pop ebp ; ret
0x1001ade2 test al, 0xd1 ; add al, 0x10 ; pop ebp ; ret
0x1001ade1 adc eax, 0x1004d1a8 ; pop ebp ; ret
0x1001ade0 call dword ptr [0x1004d1a8] ; pop ebp ; ret
0x1001addf push eax ; call dword ptr [0x1004d1a8] ; pop ebp ; ret
0x1001adde and byte ptr [eax - 1], dl ; adc eax, 0x1004d1a8 ; pop ebp ; ret
0x1001addd shl byte ptr [eax], 0x50 ; call dword ptr [0x1004d1a8] ; pop ebp ; ret
0x1001ae19 ret
0x1001ae18 pop ebp ; ret
0x1001ae17 add al, 0x5d ; ret
0x1001ae15 add esp, 4 ; pop ebp ; ret
0x1001ae10 call 0xffffff50 ; add esp, 4 ; pop ebp ; ret
0x1001ae0f push eax ; call 0xffffff51 ; add esp, 4 ; pop ebp ; ret
0x1001ae25 ret
0x1001ae24 pop ebp ; ret
0x1001ae22 add al, 0x10 ; pop ebp ; ret
0x1001ae21 rol dword ptr [eax + edx], 1 ; pop ebp ; ret
0x1001ae20 lodsb al, byte ptr [esi] ; rol dword ptr [eax + edx], 1 ; pop ebp ; ret
0x1001ae1f adc eax, 0x1004d1ac ; pop ebp ; ret
0x1001ae1e call dword ptr [0x1004d1ac] ; pop ebp ; ret
0x1001ae1d push eax ; call dword ptr [0x1004d1ac] ; pop ebp ; ret
0x1001ae1c and byte ptr [eax - 1], dl ; adc eax, 0x1004d1ac ; pop ebp ; ret
0x1001ae1b shl byte ptr [eax], 0x50 ; call dword ptr [0x1004d1ac] ; pop ebp ; ret
0x1001ae48 ret
0x1001ae47 pop ebp ; ret
0x1001ae46 add al, 0x5d ; ret
0x1001ae44 add esp, 4 ; pop ebp ; ret
0x1001ae3f call 0xffffff21 ; add esp, 4 ; pop ebp ; ret
0x1001ae3e push eax ; call 0xffffff22 ; add esp, 4 ; pop ebp ; ret
0x1001ae57 ret
0x1001ae56 pop ebp ; ret
0x1001ae54 add al, 0x10 ; pop ebp ; ret
0x1001ae53 rol dword ptr [eax + edx], 1 ; pop ebp ; ret
0x1001ae52 lodsb al, byte ptr [esi] ; rol dword ptr [eax + edx], 1 ; pop ebp ; ret
0x1001ae51 adc eax, 0x1004d1ac ; pop ebp ; ret
0x1001ae50 call dword ptr [0x1004d1ac] ; pop ebp ; ret
0x1001ae4f push eax ; call dword ptr [0x1004d1ac] ; pop ebp ; ret
0x1001ae4e and byte ptr [eax - 1], dl ; adc eax, 0x1004d1ac ; pop ebp ; ret
0x1001ae4d shl byte ptr [eax], 0x50 ; call dword ptr [0x1004d1ac] ; pop ebp ; ret
0x1001ae98 ret
0x1001ae97 pop esi ; ret
0x1001ae95 add byte ptr [eax], al ; pop esi ; ret
0x1001ae93 or eax, 0x5e000000 ; ret
0x1001ae92 add byte ptr [0x5e000000], cl ; ret
0x1001ae91 mov dword ptr [eax], 0xd ; pop esi ; ret
0x1001ae90 add bh, al ; add byte ptr [0x5e000000], cl ; ret
0x1001ae8f add byte ptr [eax], al ; mov dword ptr [eax], 0xd ; pop esi ; ret
0x1001ae8e add byte ptr [eax], al ; add bh, al ; add byte ptr [0x5e000000], cl ; ret
0x1001aeb5 ret
0x1001aeb4 pop esi ; ret
0x1001aeb2 add byte ptr [eax], al ; pop esi ; ret
0x1001aeb0 or byte ptr [eax], al ; add byte ptr [eax], al ; pop esi ; ret
0x1001aeae mov dword ptr [eax], 8 ; pop esi ; ret
0x1001aeac add byte ptr [eax], al ; mov dword ptr [eax], 8 ; pop esi ; ret
0x1001aec2 ret
0x1001aec1 pop esi ; ret
0x1001aebf add byte ptr [eax], al ; pop esi ; ret
0x1001aebb mov dword ptr [eax], 0x16 ; pop esi ; ret
0x1001aeb9 add byte ptr [eax], al ; mov dword ptr [eax], 0x16 ; pop esi ; ret
0x1001aed2 ret
0x1001aed0 mov dword ptr [eax], ecx ; ret
0x1001aecf pop esi ; mov dword ptr [eax], ecx ; ret
0x1001aecd add dl, byte ptr [eax] ; pop esi ; mov dword ptr [eax], ecx ; ret
0x1001aec8 mov ecx, dword ptr [esi*8 + 0x1002878c] ; pop esi ; mov dword ptr [eax], ecx ; ret
0x1001aee8 ret
0x1001aee5 add eax, 8 ; ret
0x1001aee3 add byte ptr [eax], al ; add eax, 8 ; ret
0x1001aee0 call 0xd0 ; add eax, 8 ; ret
0x1001aedf nop ; call 0xd1 ; add eax, 8 ; ret
0x1001aede nop ; nop ; call 0xd2 ; add eax, 8 ; ret
0x1001aef8 ret
0x1001aef5 add eax, 0xc ; ret
0x1001aef3 add byte ptr [eax], al ; add eax, 0xc ; ret
0x1001aef0 call 0xc0 ; add eax, 0xc ; ret
0x1001aeef nop ; call 0xc1 ; add eax, 0xc ; ret
0x1001aeee nop ; nop ; call 0xc2 ; add eax, 0xc ; ret
0x1001af57 ret
0x1001af56 pop esi ; ret
0x1001af54 add byte ptr [eax], al ; pop esi ; ret
0x1001af52 add dword ptr [eax], eax ; add byte ptr [eax], al ; pop esi ; ret
0x1001af51 mov eax, 1 ; pop esi ; ret
0x1001af5b ret
0x1001af5a pop esi ; ret
0x1001af58 xor eax, eax ; pop esi ; ret
0x1001af57 ret ; xor eax, eax ; pop esi ; ret
0x1001af56 pop esi ; ret ; xor eax, eax ; pop esi ; ret
0x1001af55 add byte ptr [esi - 0x3d], bl ; xor eax, eax ; pop esi ; ret
0x1001af54 add byte ptr [eax], al ; pop esi ; ret ; xor eax, eax ; pop esi ; ret
0x1001af53 add byte ptr [eax], al ; add byte ptr [esi - 0x3d], bl ; xor eax, eax ; pop esi ; ret
0x1001af52 add dword ptr [eax], eax ; add byte ptr [eax], al ; pop esi ; ret ; xor eax, eax ; pop esi ; ret
0x1001af51 mov eax, 1 ; pop esi ; ret ; xor eax, eax ; pop esi ; ret
0x1001af80 ret
0x1001af76 mov dword ptr [0x10028978], 0xffffffff ; ret
0x1001afa2 ret
0x1001afa0 add byte ptr [eax], al ; ret
0x1001af9e add dword ptr [eax], eax ; add byte ptr [eax], al ; ret
0x1001af9b mov dword ptr [eax + 0x14], 1 ; ret
0x1001af99 add dl, byte ptr [eax] ; mov dword ptr [eax + 0x14], 1 ; ret
0x1001b013 ret
0x1001b012 pop esi ; ret
0x1001b011 pop edi ; pop esi ; ret
0x1001b00f mov eax, esi ; pop edi ; pop esi ; ret
0x1001b00d add al, 0x10 ; mov eax, esi ; pop edi ; pop esi ; ret
0x1001b00c rol dword ptr [eax + edx], 1 ; mov eax, esi ; pop edi ; pop esi ; ret
0x1001b009 call dword ptr [0x1004d1c0] ; mov eax, esi ; pop edi ; pop esi ; ret
0x1001b029 ret
0x1001b028 pop esi ; ret
0x1001b027 pop edi ; pop esi ; ret
0x1001b025 mov eax, esi ; pop edi ; pop esi ; ret
0x1001b023 add al, 0x10 ; mov eax, esi ; pop edi ; pop esi ; ret
0x1001b022 rol dword ptr [eax + edx], 1 ; mov eax, esi ; pop edi ; pop esi ; ret
0x1001b020 adc eax, 0x1004d1c0 ; mov eax, esi ; pop edi ; pop esi ; ret
0x1001b01f call dword ptr [0x1004d1c0] ; mov eax, esi ; pop edi ; pop esi ; ret
0x1001b0cc ret
0x1001b0cb pop esi ; ret
0x1001b0c9 add al, 0x10 ; pop esi ; ret
0x1001b0c8 rol dword ptr [eax + edx], 1 ; pop esi ; ret
0x1001b0c7 mov ah, 0xd1 ; add al, 0x10 ; pop esi ; ret
0x1001b0c6 adc eax, 0x1004d1b4 ; pop esi ; ret
0x1001b0c5 call dword ptr [0x1004d1b4] ; pop esi ; ret
0x1001b0c4 push eax ; call dword ptr [0x1004d1b4] ; pop esi ; ret
0x1001b0c3 add byte ptr [eax - 1], dl ; adc eax, 0x1004d1b4 ; pop esi ; ret
0x1001b0c2 push 0 ; push eax ; call dword ptr [0x1004d1b4] ; pop esi ; ret
0x1001b0d2 ret
0x1001b0d0 xor eax, eax ; ret
0x1001b0cf nop ; xor eax, eax ; ret
0x1001b0ce nop ; nop ; xor eax, eax ; ret
0x1001b0cd nop ; nop ; nop ; xor eax, eax ; ret
0x1001b0cc ret ; nop ; nop ; nop ; xor eax, eax ; ret
0x1001b0cb pop esi ; ret ; nop ; nop ; nop ; xor eax, eax ; ret
0x1001b0ca adc byte ptr [esi - 0x3d], bl ; nop ; nop ; nop ; xor eax, eax ; ret
0x1001b0c9 add al, 0x10 ; pop esi ; ret ; nop ; nop ; nop ; xor eax, eax ; ret
0x1001b0c8 rol dword ptr [eax + edx], 1 ; pop esi ; ret ; nop ; nop ; nop ; xor eax, eax ; ret
0x1001b12e ret
0x1001b12b ror byte ptr [edi], 0x84 ; ret
0x1001b180 ret
0x1001b17f pop ebx ; ret
0x1001b17e pop ebp ; pop ebx ; ret
0x1001b17d pop esi ; pop ebp ; pop ebx ; ret
0x1001b17c pop edi ; pop esi ; pop ebp ; pop ebx ; ret
0x1001b17b rcr dword ptr [edi + 0x5e], cl ; pop ebp ; pop ebx ; ret
0x1001b17a call ebx ; pop edi ; pop esi ; pop ebp ; pop ebx ; ret
0x1001b179 push eax ; call ebx ; pop edi ; pop esi ; pop ebp ; pop ebx ; ret
0x1001b178 push edx ; push eax ; call ebx ; pop edi ; pop esi ; pop ebp ; pop ebx ; ret
0x1001b177 push edi ; push edx ; push eax ; call ebx ; pop edi ; pop esi ; pop ebp ; pop ebx ; ret
0x1001b176 push esi ; push edi ; push edx ; push eax ; call ebx ; pop edi ; pop esi ; pop ebp ; pop ebx ; ret
0x1001b1bf ret
0x1001b1be pop ebx ; ret
0x1001b1bd pop ebp ; pop ebx ; ret
0x1001b1bc pop esi ; pop ebp ; pop ebx ; ret
0x1001b1bb pop edi ; pop esi ; pop ebp ; pop ebx ; ret
0x1001b1ba add eax, 0x5b5d5e5f ; ret
0x1001b1b9 jne 7 ; pop edi ; pop esi ; pop ebp ; pop ebx ; ret
0x1001b1b8 push dword ptr [ebp + 5] ; pop edi ; pop esi ; pop ebp ; pop ebx ; ret
0x1001b1b7 test edi, edi ; jne 9 ; pop edi ; pop esi ; pop ebp ; pop ebx ; ret
0x1001b1b6 clc ; test edi, edi ; jne 0xa ; pop edi ; pop esi ; pop ebp ; pop ebx ; ret
0x1001b1b5 mov edi, eax ; test edi, edi ; jne 0xb ; pop edi ; pop esi ; pop ebp ; pop ebx ; ret
0x1001b1d6 ret
0x1001b1d5 pop ebx ; ret
0x1001b1d4 pop ebp ; pop ebx ; ret
0x1001b1d3 pop esi ; pop ebp ; pop ebx ; ret
0x1001b1d2 pop edi ; pop esi ; pop ebp ; pop ebx ; ret
0x1001b1d1 add eax, 0x5b5d5e5f ; ret
0x1001b1d0 jne 7 ; pop edi ; pop esi ; pop ebp ; pop ebx ; ret
0x1001b1ce test ebx, ebx ; jne 9 ; pop edi ; pop esi ; pop ebp ; pop ebx ; ret
0x1001b1cc les eax, ptr [eax*4 + 0x5f0575db] ; pop esi ; pop ebp ; pop ebx ; ret
0x1001b260 ret
0x1001b25f pop ebx ; ret
0x1001b25e pop ebp ; pop ebx ; ret
0x1001b25d pop esi ; pop ebp ; pop ebx ; ret
0x1001b25c pop edi ; pop esi ; pop ebp ; pop ebx ; ret
0x1001b25a mov eax, esi ; pop edi ; pop esi ; pop ebp ; pop ebx ; ret
0x1001b257 add esp, 4 ; mov eax, esi ; pop edi ; pop esi ; pop ebp ; pop ebx ; ret
0x1001b256 inc dword ptr [ebx - 0x3974fb3c] ; pop edi ; pop esi ; pop ebp ; pop ebx ; ret
0x1001b2fb ret
0x1001b2fa pop ebx ; ret
0x1001b2f8 xor eax, eax ; pop ebx ; ret
0x1001b2f7 pop ebp ; xor eax, eax ; pop ebx ; ret
0x1001b2f6 pop esi ; pop ebp ; xor eax, eax ; pop ebx ; ret
0x1001b2f5 pop edi ; pop esi ; pop ebp ; xor eax, eax ; pop ebx ; ret
0x1001b2f4 add al, 0x5f ; pop esi ; pop ebp ; xor eax, eax ; pop ebx ; ret
0x1001b2f3 les eax, ptr [edi + ebx*2] ; pop esi ; pop ebp ; xor eax, eax ; pop ebx ; ret
0x1001b2f2 add esp, 4 ; pop edi ; pop esi ; pop ebp ; xor eax, eax ; pop ebx ; ret
0x1001b2f1 inc dword ptr [ebx + 0x5e5f04c4] ; pop ebp ; xor eax, eax ; pop ebx ; ret
0x1001b312 ret
0x1001b310 adc byte ptr [ebx], bh ; ret
0x1001b378 ret
0x1001b377 pop ecx ; ret
0x1001b376 pop ebx ; pop ecx ; ret
0x1001b375 pop ebp ; pop ebx ; pop ecx ; ret
0x1001b374 pop esi ; pop ebp ; pop ebx ; pop ecx ; ret
0x1001b373 pop edi ; pop esi ; pop ebp ; pop ebx ; pop ecx ; ret
0x1001b372 salc ; pop edi ; pop esi ; pop ebp ; pop ebx ; pop ecx ; ret
0x1001b371 call esi ; pop edi ; pop esi ; pop ebp ; pop ebx ; pop ecx ; ret
0x1001b370 push edx ; call esi ; pop edi ; pop esi ; pop ebp ; pop ebx ; pop ecx ; ret
0x1001b36f push ecx ; push edx ; call esi ; pop edi ; pop esi ; pop ebp ; pop ebx ; pop ecx ; ret
0x1001b36e push eax ; push ecx ; push edx ; call esi ; pop edi ; pop esi ; pop ebp ; pop ebx ; pop ecx ; ret
0x1001b38b ret
0x1001b389 adc byte ptr [ebx], bh ; ret
0x1001b385 sub byte ptr [ecx + 0x3b10245c], cl ; ret
0x1001b3c2 ret
0x1001b3c1 pop ecx ; ret
0x1001b3c0 pop ebx ; pop ecx ; ret
0x1001b3bf pop ebp ; pop ebx ; pop ecx ; ret
0x1001b3be pop esi ; pop ebp ; pop ebx ; pop ecx ; ret
0x1001b3bd pop edi ; pop esi ; pop ebp ; pop ebx ; pop ecx ; ret
0x1001b3bc rcr byte ptr [edi + 0x5e], 0x5d ; pop ebx ; pop ecx ; ret
0x1001b3bb xor eax, eax ; pop edi ; pop esi ; pop ebp ; pop ebx ; pop ecx ; ret
0x1001b3ba or byte ptr [ebx], dh ; rcr byte ptr [edi + 0x5e], 0x5d ; pop ebx ; pop ecx ; ret
0x1001b3b9 jne 0xa ; xor eax, eax ; pop edi ; pop esi ; pop ebp ; pop ebx ; pop ecx ; ret
0x1001b3b8 jne 0xb ; xor eax, eax ; pop edi ; pop esi ; pop ebp ; pop ebx ; pop ecx ; ret
0x1001b3db ret
0x1001b3da pop ecx ; ret
0x1001b3d9 pop ebx ; pop ecx ; ret
0x1001b3d8 pop ebp ; pop ebx ; pop ecx ; ret
0x1001b3d7 pop esi ; pop ebp ; pop ebx ; pop ecx ; ret
0x1001b3d6 pop edi ; pop esi ; pop ebp ; pop ebx ; pop ecx ; ret
0x1001b3d5 rcr byte ptr [edi + 0x5e], 0x5d ; pop ebx ; pop ecx ; ret
0x1001b3d4 xor eax, eax ; pop edi ; pop esi ; pop ebp ; pop ebx ; pop ecx ; ret
0x1001b3d3 or byte ptr [ebx], dh ; rcr byte ptr [edi + 0x5e], 0x5d ; pop ebx ; pop ecx ; ret
0x1001b3d2 jne 0xa ; xor eax, eax ; pop edi ; pop esi ; pop ebp ; pop ebx ; pop ecx ; ret
0x1001b3d1 in eax, dx ; jne 0xb ; xor eax, eax ; pop edi ; pop esi ; pop ebp ; pop ebx ; pop ecx ; ret
0x1001b483 ret
0x1001b482 pop ecx ; ret
0x1001b481 pop ebx ; pop ecx ; ret
0x1001b480 pop ebp ; pop ebx ; pop ecx ; ret
0x1001b47f pop esi ; pop ebp ; pop ebx ; pop ecx ; ret
0x1001b47e pop edi ; pop esi ; pop ebp ; pop ebx ; pop ecx ; ret
0x1001b47d add al, 0x5f ; pop esi ; pop ebp ; pop ebx ; pop ecx ; ret
0x1001b47c les eax, ptr [edi + ebx*2] ; pop esi ; pop ebp ; pop ebx ; pop ecx ; ret
0x1001b47b add esp, 4 ; pop edi ; pop esi ; pop ebp ; pop ebx ; pop ecx ; ret
0x1001b47a adc al, 0x83 ; les eax, ptr [edi + ebx*2] ; pop esi ; pop ebp ; pop ebx ; pop ecx ; ret
0x1001b479 and al, 0x14 ; add esp, 4 ; pop edi ; pop esi ; pop ebp ; pop ebx ; pop ecx ; ret
0x1001b4f7 ret
0x1001b4f6 pop ecx ; ret
0x1001b4f5 pop ebx ; pop ecx ; ret
0x1001b4f4 pop ebp ; pop ebx ; pop ecx ; ret
0x1001b4f3 pop esi ; pop ebp ; pop ebx ; pop ecx ; ret
0x1001b4f2 pop edi ; pop esi ; pop ebp ; pop ebx ; pop ecx ; ret
0x1001b4f1 salc ; pop edi ; pop esi ; pop ebp ; pop ebx ; pop ecx ; ret
0x1001b4f0 call esi ; pop edi ; pop esi ; pop ebp ; pop ebx ; pop ecx ; ret
0x1001b4ef push eax ; call esi ; pop edi ; pop esi ; pop ebp ; pop ebx ; pop ecx ; ret
0x1001b4ee push ecx ; push eax ; call esi ; pop edi ; pop esi ; pop ebp ; pop ebx ; pop ecx ; ret
0x1001b4ed push edx ; push ecx ; push eax ; call esi ; pop edi ; pop esi ; pop ebp ; pop ebx ; pop ecx ; ret
0x1001b578 ret
0x1001b577 pop ecx ; ret
0x1001b576 pop ebx ; pop ecx ; ret
0x1001b575 pop ebp ; pop ebx ; pop ecx ; ret
0x1001b574 pop esi ; pop ebp ; pop ebx ; pop ecx ; ret
0x1001b573 pop edi ; pop esi ; pop ebp ; pop ebx ; pop ecx ; ret
0x1001b571 mov eax, esi ; pop edi ; pop esi ; pop ebp ; pop ebx ; pop ecx ; ret
0x1001b56e add esp, 4 ; mov eax, esi ; pop edi ; pop esi ; pop ebp ; pop ebx ; pop ecx ; ret
0x1001b58d ret
0x1001b58c pop ecx ; ret
0x1001b58b pop ebx ; pop ecx ; ret
0x1001b58a pop ebp ; pop ebx ; pop ecx ; ret
0x1001b589 pop esi ; pop ebp ; pop ebx ; pop ecx ; ret
0x1001b588 pop edi ; pop esi ; pop ebp ; pop ebx ; pop ecx ; ret
0x1001b586 mov eax, esi ; pop edi ; pop esi ; pop ebp ; pop ebx ; pop ecx ; ret
0x1001b583 add esp, 4 ; mov eax, esi ; pop edi ; pop esi ; pop ebp ; pop ebx ; pop ecx ; ret
0x1001b5bc ret
0x1001b5bb pop ecx ; ret
0x1001b5ba pop ebx ; pop ecx ; ret
0x1001b5b8 xor eax, eax ; pop ebx ; pop ecx ; ret
0x1001b5b7 pop ebp ; xor eax, eax ; pop ebx ; pop ecx ; ret
0x1001b5b6 pop esi ; pop ebp ; xor eax, eax ; pop ebx ; pop ecx ; ret
0x1001b5b5 pop edi ; pop esi ; pop ebp ; xor eax, eax ; pop ebx ; pop ecx ; ret
0x1001b5b4 lcall ptr [edi + 0x5e] ; pop ebp ; xor eax, eax ; pop ebx ; pop ecx ; ret
0x1001b7cb ret
0x1001b7ca dec eax ; ret
0x1001b7c8 add esp, 0x48 ; ret
0x1001b7c7 pop ebx ; add esp, 0x48 ; ret
0x1001b7c6 pop ebp ; pop ebx ; add esp, 0x48 ; ret
0x1001b7c5 pop esi ; pop ebp ; pop ebx ; add esp, 0x48 ; ret
0x1001b7c4 pop edi ; pop esi ; pop ebp ; pop ebx ; add esp, 0x48 ; ret
0x1001b7c3 adc byte ptr [edi + 0x5e], bl ; pop ebp ; pop ebx ; add esp, 0x48 ; ret
0x1001b7c2 add al, 0x10 ; pop edi ; pop esi ; pop ebp ; pop ebx ; add esp, 0x48 ; ret
0x1001b7c1 rol dword ptr [eax + edx], 1 ; pop edi ; pop esi ; pop ebp ; pop ebx ; add esp, 0x48 ; ret
0x1001b820 ret
0x1001b82e ret
0x1001b82d pop ebx ; ret
0x1001b82c pop ebp ; pop ebx ; ret
0x1001b82b pop esi ; pop ebp ; pop ebx ; ret
0x1001b82a pop edi ; pop esi ; pop ebp ; pop ebx ; ret
0x1001b829 mov ch, 0x5f ; pop esi ; pop ebp ; pop ebx ; ret
0x1001b828 jl 0xffffffb7 ; pop edi ; pop esi ; pop ebp ; pop ebx ; ret
0x1001b827 adc byte ptr [ebp + esi*4 + 0x5f], bh ; pop esi ; pop ebp ; pop ebx ; ret
0x1001b826 add al, 0x10 ; jl 0xffffffb9 ; pop edi ; pop esi ; pop ebp ; pop ebx ; ret
0x1001b825 mov bh, 4 ; adc byte ptr [ebp + esi*4 + 0x5f], bh ; pop esi ; pop ebp ; pop ebx ; ret
0x1001b824 add byte ptr [edi - 0x4a83effc], dh ; pop edi ; pop esi ; pop ebp ; pop ebx ; ret
0x1001b8c2 ret
0x1001b8c1 pop ebp ; ret
0x1001b8c0 pop esi ; pop ebp ; ret
0x1001b8bf lds ebx, ptr [esi + 0x5d] ; ret
0x1001b8be mov eax, ebp ; pop esi ; pop ebp ; ret
0x1001b8bd add al, 0x8b ; lds ebx, ptr [esi + 0x5d] ; ret
0x1001b8bc les eax, ptr [ebx + ecx*4] ; lds ebx, ptr [esi + 0x5d] ; ret
0x1001b8bb add esp, 4 ; mov eax, ebp ; pop esi ; pop ebp ; ret
0x1001b8ba inc dword ptr [ebx - 0x3a74fb3c] ; pop esi ; pop ebp ; ret
0x1001b8e8 ret
0x1001b8e6 jne 3 ; ret
0x1001b8e5 adc byte ptr [ebp + 1], dh ; ret
0x1001b8e4 add al, 0x10 ; jne 5 ; ret
0x1001b8e3 mov ch, 4 ; adc byte ptr [ebp + 1], dh ; ret
0x1001b8e2 in al, dx ; mov ch, 4 ; adc byte ptr [ebp + 1], dh ; ret
0x1001b8e1 mov dword ptr [0x1004b5ec], eax ; jne 8 ; ret
0x1001b8df test eax, eax ; mov dword ptr [0x1004b5ec], eax ; jne 0xa ; ret
0x1001b8de adc byte ptr [ebp - 0x4a135c40], al ; add al, 0x10 ; jne 0xb ; ret
0x1001b900 ret
0x1001b8fe xor eax, eax ; ret
0x1001b8fc add al, 0x10 ; xor eax, eax ; ret
0x1001b8fb rol dword ptr [eax + edx], 1 ; xor eax, eax ; ret
0x1001b8f9 adc eax, 0x1004d1f0 ; xor eax, eax ; ret
0x1001b8f8 call dword ptr [0x1004d1f0] ; xor eax, eax ; ret
0x1001b8f7 push eax ; call dword ptr [0x1004d1f0] ; xor eax, eax ; ret
0x1001b8f6 adc byte ptr [eax - 1], dl ; adc eax, 0x1004d1f0 ; xor eax, eax ; ret
0x1001b906 ret
0x1001b904 add byte ptr [eax], al ; ret
0x1001b902 add dword ptr [eax], eax ; add byte ptr [eax], al ; ret
0x1001b901 mov eax, 1 ; ret
0x1001b900 ret ; mov eax, 1 ; ret
0x1001b8ff rol bl, 0xb8 ; add dword ptr [eax], eax ; add byte ptr [eax], al ; ret
0x1001b8fe xor eax, eax ; ret ; mov eax, 1 ; ret
0x1001b8fd adc byte ptr [ebx], dh ; rol bl, 0xb8 ; add dword ptr [eax], eax ; add byte ptr [eax], al ; ret
0x1001b8fc add al, 0x10 ; xor eax, eax ; ret ; mov eax, 1 ; ret
0x1001b946 ret
0x1001b945 pop esi ; ret
0x1001b944 pop edi ; pop esi ; ret
0x1001b943 adc byte ptr [edi + 0x5e], bl ; ret
0x1001b942 add al, 0x10 ; pop edi ; pop esi ; ret
0x1001b941 rol dword ptr [eax + edx], 1 ; pop edi ; pop esi ; ret
0x1001b93f adc eax, 0x1004d1f0 ; pop edi ; pop esi ; ret
0x1001b93e call dword ptr [0x1004d1f0] ; pop edi ; pop esi ; ret
0x1001b93d push eax ; call dword ptr [0x1004d1f0] ; pop edi ; pop esi ; ret
0x1001b93c adc byte ptr [eax - 1], dl ; adc eax, 0x1004d1f0 ; pop edi ; pop esi ; ret
0x1001ba86 ret
0x1001ba85 pop ebp ; ret
0x1001ba84 pop esi ; pop ebp ; ret
0x1001ba83 pop edi ; pop esi ; pop ebp ; ret
0x1001ba82 lds ebx, ptr [edi + 0x5e] ; pop ebp ; ret
0x1001ba81 mov eax, ebp ; pop edi ; pop esi ; pop ebp ; ret
0x1001ba80 fisttp word ptr [ebx + 0x5d5e5fc5] ; ret
0x1001ba7f jb 0xffffffe1 ; mov eax, ebp ; pop edi ; pop esi ; pop ebp ; ret
0x1001ba7e jb 0xffffffe2 ; mov eax, ebp ; pop edi ; pop esi ; pop ebp ; ret
0x1001ba7d cmp esi, edx ; jb 0xffffffe3 ; mov eax, ebp ; pop edi ; pop esi ; pop ebp ; ret
0x1001ba7c add byte ptr [ebx], bh ; jb 0xffffffe4 ; mov eax, ebp ; pop edi ; pop esi ; pop ebp ; ret
0x1001bab1 ret
0x1001bab0 pop ebp ; ret
0x1001baae xor eax, eax ; pop ebp ; ret
0x1001baad pop esi ; xor eax, eax ; pop ebp ; ret
0x1001baac pop edi ; pop esi ; xor eax, eax ; pop ebp ; ret
0x1001baab adc byte ptr [edi + 0x5e], bl ; xor eax, eax ; pop ebp ; ret
0x1001baaa add al, 0x10 ; pop edi ; pop esi ; xor eax, eax ; pop ebp ; ret
0x1001baa9 rol dword ptr [eax + edx], 1 ; pop edi ; pop esi ; xor eax, eax ; pop ebp ; ret
0x1001baa8 mov cl, dl ; add al, 0x10 ; pop edi ; pop esi ; xor eax, eax ; pop ebp ; ret
0x1001baa7 adc eax, 0x1004d188 ; pop edi ; pop esi ; xor eax, eax ; pop ebp ; ret
0x1001bb0e ret
0x1001bb0d pop esi ; ret
0x1001bb0b add al, 0x10 ; pop esi ; ret
0x1001bb09 mov cl, dl ; add al, 0x10 ; pop esi ; ret
0x1001bb08 adc eax, 0x1004d188 ; pop esi ; ret
0x1001bb07 call dword ptr [0x1004d188] ; pop esi ; ret
0x1001bb06 push eax ; call dword ptr [0x1004d188] ; pop esi ; ret
0x1001bb05 adc byte ptr [eax - 1], dl ; adc eax, 0x1004d188 ; pop esi ; ret
0x1001bb04 add al, 0x10 ; push eax ; call dword ptr [0x1004d188] ; pop esi ; ret
0x1001bb1a ret
0x1001bb19 pop esi ; ret
0x1001bb52 ret
0x1001bb50 add byte ptr [ebx], al ; ret
0x1001bb4d add byte ptr [eax], al ; add byte ptr [ebx], al ; ret
0x1001bbec ret
0x1001bbeb pop ebx ; ret
0x1001bbea pop ebp ; pop ebx ; ret
0x1001bbe9 pop esi ; pop ebp ; pop ebx ; ret
0x1001bbe8 pop edi ; pop esi ; pop ebp ; pop ebx ; ret
0x1001bbe7 lcall ptr [edi + 0x5e] ; pop ebp ; pop ebx ; ret
0x1001bbe2 jg 0xffffff48 ; pop edi ; pop esi ; pop ebp ; pop ebx ; ret
0x1001bc45 ret
0x1001bc43 add dword ptr [eax], ecx ; ret
0x1001bc42 inc esp ; add dword ptr [eax], ecx ; ret
0x1001bc41 lea eax, dword ptr [ecx + eax + 8] ; ret
0x1001bc40 add al, 0x8d ; inc esp ; add dword ptr [eax], ecx ; ret
0x1001bc3f stc ; add al, 0x8d ; inc esp ; add dword ptr [eax], ecx ; ret
0x1001bc3e sar ecx, 4 ; lea eax, dword ptr [ecx + eax + 8] ; ret
0x1001bc3d add cl, al ; stc ; add al, 0x8d ; inc esp ; add dword ptr [eax], ecx ; ret
0x1001bc3c add byte ptr [eax], al ; sar ecx, 4 ; lea eax, dword ptr [ecx + eax + 8] ; ret
0x1001bc3b add dword ptr [eax], eax ; add cl, al ; stc ; add al, 0x8d ; inc esp ; add dword ptr [eax], ecx ; ret
0x1001bc48 ret
0x1001bc46 xor eax, eax ; ret
0x1001bc45 ret ; xor eax, eax ; ret
0x1001bc44 or bl, al ; xor eax, eax ; ret
0x1001bc43 add dword ptr [eax], ecx ; ret ; xor eax, eax ; ret
0x1001bc42 inc esp ; add dword ptr [eax], ecx ; ret ; xor eax, eax ; ret
0x1001bc41 lea eax, dword ptr [ecx + eax + 8] ; ret ; xor eax, eax ; ret
0x1001bc40 add al, 0x8d ; inc esp ; add dword ptr [eax], ecx ; ret ; xor eax, eax ; ret
0x1001bc3f stc ; add al, 0x8d ; inc esp ; add dword ptr [eax], ecx ; ret ; xor eax, eax ; ret
0x1001bc3e sar ecx, 4 ; lea eax, dword ptr [ecx + eax + 8] ; ret ; xor eax, eax ; ret
0x1001bca2 ret
0x1001bca1 pop esi ; ret
0x1001bca0 add al, 0x5e ; ret
0x1001bc9f les eax, ptr [esi + ebx*2] ; ret
0x1001bc9e add esp, 4 ; pop esi ; ret
0x1001bc99 call 0xfffffe87 ; add esp, 4 ; pop esi ; ret
0x1001bcee ret
0x1001bd29 ret
0x1001bd80 ret
0x1001bd7f pop ecx ; ret
0x1001bd7e pop ebx ; pop ecx ; ret
0x1001bd7d pop ebp ; pop ebx ; pop ecx ; ret
0x1001bd7c pop esi ; pop ebp ; pop ebx ; pop ecx ; ret
0x1001bd7b pop edi ; pop esi ; pop ebp ; pop ebx ; pop ecx ; ret
0x1001bd7a or byte ptr [edi + 0x5e], bl ; pop ebp ; pop ebx ; pop ecx ; ret
0x1001bd79 jns 0xa ; pop edi ; pop esi ; pop ebp ; pop ebx ; pop ecx ; ret
0x1001bd78 mov dword ptr [ecx + 8], edi ; pop edi ; pop esi ; pop ebp ; pop ebx ; pop ecx ; ret
0x1001bd77 pop ss ; mov dword ptr [ecx + 8], edi ; pop edi ; pop esi ; pop ebp ; pop ebx ; pop ecx ; ret
0x1001bd76 mov dword ptr [edi], edx ; mov dword ptr [ecx + 8], edi ; pop edi ; pop esi ; pop ebp ; pop ebx ; pop ecx ; ret
0x1001bd99 ret
0x1001bd98 pop ecx ; ret
0x1001bd97 pop ebx ; pop ecx ; ret
0x1001bd96 pop ebp ; pop ebx ; pop ecx ; ret
0x1001bd95 pop esi ; pop ebp ; pop ebx ; pop ecx ; ret
0x1001bd94 pop edi ; pop esi ; pop ebp ; pop ebx ; pop ecx ; ret
0x1001bd93 or byte ptr [edi + 0x5e], bl ; pop ebp ; pop ebx ; pop ecx ; ret
0x1001bd92 jno 0xa ; pop edi ; pop esi ; pop ebp ; pop ebx ; pop ecx ; ret
0x1001bd91 mov dword ptr [ecx + 8], esi ; pop edi ; pop esi ; pop ebp ; pop ebx ; pop ecx ; ret
0x1001bd90 push ss ; mov dword ptr [ecx + 8], esi ; pop edi ; pop esi ; pop ebp ; pop ebx ; pop ecx ; ret
0x1001bd8f mov dword ptr [esi], edx ; mov dword ptr [ecx + 8], esi ; pop edi ; pop esi ; pop ebp ; pop ebx ; pop ecx ; ret
0x1001be87 ret
0x1001be85 add al, 0x2b ; ret
0x1001be84 inc edi ; add al, 0x2b ; ret
0x1001be9c ret
0x1001be9b pop ecx ; ret
0x1001be9a pop ebx ; pop ecx ; ret
0x1001be99 pop ebp ; pop ebx ; pop ecx ; ret
0x1001be98 pop esi ; pop ebp ; pop ebx ; pop ecx ; ret
0x1001be97 pop edi ; pop esi ; pop ebp ; pop ebx ; pop ecx ; ret
0x1001be96 add byte ptr [edi + 0x5e], bl ; pop ebp ; pop ebx ; pop ecx ; ret
0x1001be95 add byte ptr [eax], al ; pop edi ; pop esi ; pop ebp ; pop ebx ; pop ecx ; ret
0x1001be94 add dword ptr [eax], eax ; add byte ptr [edi + 0x5e], bl ; pop ebp ; pop ebx ; pop ecx ; ret
0x1001be93 add byte ptr [ecx], al ; add byte ptr [eax], al ; pop edi ; pop esi ; pop ebp ; pop ebx ; pop ecx ; ret
0x1001be92 xchg dword ptr [eax], eax ; add dword ptr [eax], eax ; add byte ptr [edi + 0x5e], bl ; pop ebp ; pop ebx ; pop ecx ; ret
0x1001beda ret
0x1001bed9 pop ecx ; ret
0x1001bed8 pop ebx ; pop ecx ; ret
0x1001bed7 pop ebp ; pop ebx ; pop ecx ; ret
0x1001bed6 pop esi ; pop ebp ; pop ebx ; pop ecx ; ret
0x1001bed5 pop edi ; pop esi ; pop ebp ; pop ebx ; pop ecx ; ret
0x1001bed4 add byte ptr [edi + 0x5e], bl ; pop ebp ; pop ebx ; pop ecx ; ret
0x1001bed3 add byte ptr [eax], al ; pop edi ; pop esi ; pop ebp ; pop ebx ; pop ecx ; ret
0x1001bed2 add dword ptr [eax], eax ; add byte ptr [edi + 0x5e], bl ; pop ebp ; pop ebx ; pop ecx ; ret
0x1001bed1 add byte ptr [ecx], al ; add byte ptr [eax], al ; pop edi ; pop esi ; pop ebp ; pop ebx ; pop ecx ; ret
0x1001bed0 add dword ptr [eax], 0x5f000001 ; pop esi ; pop ebp ; pop ebx ; pop ecx ; ret
0x1001bee2 ret
0x1001bee1 pop ecx ; ret
0x1001bee0 pop ebx ; pop ecx ; ret
0x1001bede xor eax, eax ; pop ebx ; pop ecx ; ret
0x1001bedd pop ebp ; xor eax, eax ; pop ebx ; pop ecx ; ret
0x1001bedc pop esi ; pop ebp ; xor eax, eax ; pop ebx ; pop ecx ; ret
0x1001bedb pop edi ; pop esi ; pop ebp ; xor eax, eax ; pop ebx ; pop ecx ; ret
0x1001beda ret ; pop edi ; pop esi ; pop ebp ; xor eax, eax ; pop ebx ; pop ecx ; ret
0x1001bed9 pop ecx ; ret ; pop edi ; pop esi ; pop ebp ; xor eax, eax ; pop ebx ; pop ecx ; ret
0x1001bed8 pop ebx ; pop ecx ; ret ; pop edi ; pop esi ; pop ebp ; xor eax, eax ; pop ebx ; pop ecx ; ret
0x1001bf17 ret
0x1001bf15 adc dword ptr [ebx], edi ; ret
0x1001bf4a ret
0x1001bf49 pop ebx ; ret
0x1001bf48 pop ebp ; pop ebx ; ret
0x1001bf47 pop esi ; pop ebp ; pop ebx ; ret
0x1001bf46 pop edi ; pop esi ; pop ebp ; pop ebx ; ret
0x1001bf45 ret 0x5e5f ; pop ebp ; pop ebx ; ret
0x1001bf44 sub eax, edx ; pop edi ; pop esi ; pop ebp ; pop ebx ; ret
0x1001bf43 add al, 0x2b ; ret 0x5e5f ; pop ebp ; pop ebx ; ret
0x1001bf42 loopne 6 ; sub eax, edx ; pop edi ; pop esi ; pop ebp ; pop ebx ; ret
0x1001bf41 shl eax, 4 ; sub eax, edx ; pop edi ; pop esi ; pop ebp ; pop ebx ; ret
0x1001bf40 or cl, al ; loopne 8 ; sub eax, edx ; pop edi ; pop esi ; pop ebp ; pop ebx ; ret
0x1001bf58 ret
0x1001bfc1 ret
0x1001bfbf add byte ptr [ebx], bh ; ret
0x1001bfbd add byte ptr [eax], al ; add byte ptr [ebx], bh ; ret
0x1001bfbc clc ; add byte ptr [eax], al ; add byte ptr [ebx], bh ; ret
0x1001bfbb lahf ; clc ; add byte ptr [eax], al ; add byte ptr [ebx], bh ; ret
0x1001c026 ret
0x1001c025 pop ebx ; ret
0x1001c024 pop ebp ; pop ebx ; ret
0x1001c023 pop esi ; pop ebp ; pop ebx ; ret
0x1001c022 pop edi ; pop esi ; pop ebp ; pop ebx ; ret
0x1001c021 rcr byte ptr [edi + 0x5e], 0x5d ; pop ebx ; ret
0x1001c020 xor eax, eax ; pop edi ; pop esi ; pop ebp ; pop ebx ; ret
0x1001c01f mov ebp, 0x5e5fc033 ; pop ebp ; pop ebx ; ret
0x1001c01e jb 0xffffffbf ; xor eax, eax ; pop edi ; pop esi ; pop ebp ; pop ebx ; ret
0x1001c01d adc al, 0x72 ; mov ebp, 0x5e5fc033 ; pop ebp ; pop ebx ; ret
0x1001c01c and al, 0x14 ; jb 0xffffffc1 ; xor eax, eax ; pop edi ; pop esi ; pop ebp ; pop ebx ; ret
0x1001c031 ret
0x1001c02f add byte ptr [ebx], bh ; ret
0x1001c02d add byte ptr [eax], al ; add byte ptr [ebx], bh ; ret
0x1001c02c clc ; add byte ptr [eax], al ; add byte ptr [ebx], bh ; ret
0x1001c02b lahf ; clc ; add byte ptr [eax], al ; add byte ptr [ebx], bh ; ret
0x1001c05a ret
0x1001c059 pop ebx ; ret
0x1001c058 pop ebp ; pop ebx ; ret
0x1001c057 pop esi ; pop ebp ; pop ebx ; ret
0x1001c056 pop edi ; pop esi ; pop ebp ; pop ebx ; ret
0x1001c055 ret 0x5e5f ; pop ebp ; pop ebx ; ret
0x1001c054 sub eax, edx ; pop edi ; pop esi ; pop ebp ; pop ebx ; ret
0x1001c053 add al, 0x2b ; ret 0x5e5f ; pop ebp ; pop ebx ; ret
0x1001c052 loopne 6 ; sub eax, edx ; pop edi ; pop esi ; pop ebp ; pop ebx ; ret
0x1001c051 shl eax, 4 ; sub eax, edx ; pop edi ; pop esi ; pop ebp ; pop ebx ; ret
0x1001c050 or cl, al ; loopne 8 ; sub eax, edx ; pop edi ; pop esi ; pop ebp ; pop ebx ; ret
0x1001c061 ret
0x1001c060 pop ebx ; ret
0x1001c05e xor eax, eax ; pop ebx ; ret
0x1001c05d pop ebp ; xor eax, eax ; pop ebx ; ret
0x1001c05c pop esi ; pop ebp ; xor eax, eax ; pop ebx ; ret
0x1001c05b pop edi ; pop esi ; pop ebp ; xor eax, eax ; pop ebx ; ret
0x1001c05a ret ; pop edi ; pop esi ; pop ebp ; xor eax, eax ; pop ebx ; ret
0x1001c059 pop ebx ; ret ; pop edi ; pop esi ; pop ebp ; xor eax, eax ; pop ebx ; ret
0x1001c058 pop ebp ; pop ebx ; ret ; pop edi ; pop esi ; pop ebp ; xor eax, eax ; pop ebx ; ret
0x1001c057 pop esi ; pop ebp ; pop ebx ; ret ; pop edi ; pop esi ; pop ebp ; xor eax, eax ; pop ebx ; ret
0x1001c0bc ret
0x1001c0bb pop ebx ; ret
0x1001c0ba pop ebp ; pop ebx ; ret
0x1001c0b9 pop esi ; pop ebp ; pop ebx ; ret
0x1001c0b8 pop edi ; pop esi ; pop ebp ; pop ebx ; ret
0x1001c0b7 add byte ptr [edi + 0x5e], bl ; pop ebp ; pop ebx ; ret
0x1001c0b6 add byte ptr [eax], al ; pop edi ; pop esi ; pop ebp ; pop ebx ; ret
0x1001c0b5 add byte ptr [eax], al ; add byte ptr [edi + 0x5e], bl ; pop ebp ; pop ebx ; ret
0x1001c0b4 add dword ptr [eax], eax ; add byte ptr [eax], al ; pop edi ; pop esi ; pop ebp ; pop ebx ; ret
0x1001c0b3 mov eax, 1 ; pop edi ; pop esi ; pop ebp ; pop ebx ; ret
0x1001c0b2 add dword ptr [eax + 1], edi ; pop edi ; pop esi ; pop ebp ; pop ebx ; ret
0x1001c133 ret
0x1001c132 pop ebx ; ret
0x1001c131 pop ebp ; pop ebx ; ret
0x1001c130 pop esi ; pop ebp ; pop ebx ; ret
0x1001c12f pop edi ; pop esi ; pop ebp ; pop ebx ; ret
0x1001c12e add byte ptr [edi + 0x5e], bl ; pop ebp ; pop ebx ; ret
0x1001c12d add byte ptr [eax], al ; pop edi ; pop esi ; pop ebp ; pop ebx ; ret
0x1001c12c add byte ptr [eax], al ; add byte ptr [edi + 0x5e], bl ; pop ebp ; pop ebx ; ret
0x1001c12b add dword ptr [eax], eax ; add byte ptr [eax], al ; pop edi ; pop esi ; pop ebp ; pop ebx ; ret
0x1001c12a mov eax, 1 ; pop edi ; pop esi ; pop ebp ; pop ebx ; ret
0x1001c129 or byte ptr [eax + 1], bh ; pop edi ; pop esi ; pop ebp ; pop ebx ; ret
0x1001c15c ret
0x1001c15a add byte ptr [eax], al ; ret
0x1001c158 add dword ptr [eax], eax ; add byte ptr [eax], al ; ret
0x1001c157 mov eax, 1 ; ret
0x1001c156 push es ; mov eax, 1 ; ret
0x1001c155 je 8 ; mov eax, 1 ; ret
0x1001c153 test eax, eax ; je 0xa ; mov eax, 1 ; ret
0x1001c15f ret
0x1001c15d xor eax, eax ; ret
0x1001c15c ret ; xor eax, eax ; ret
0x1001c15b add bl, al ; xor eax, eax ; ret
0x1001c15a add byte ptr [eax], al ; ret ; xor eax, eax ; ret
0x1001c159 add byte ptr [eax], al ; add bl, al ; xor eax, eax ; ret
0x1001c158 add dword ptr [eax], eax ; add byte ptr [eax], al ; ret ; xor eax, eax ; ret
0x1001c157 mov eax, 1 ; ret ; xor eax, eax ; ret
0x1001c156 push es ; mov eax, 1 ; ret ; xor eax, eax ; ret
0x1001c155 je 8 ; mov eax, 1 ; ret ; xor eax, eax ; ret
0x1001c172 ret
0x1001c170 les ecx, ptr [eax] ; ret
0x1001c16f add esp, 8 ; ret
0x1001c16d add byte ptr [eax], al ; add esp, 8 ; ret
0x1001c16c push edi ; add byte ptr [eax], al ; add esp, 8 ; ret
0x1001c16b xchg eax, ecx ; push edi ; add byte ptr [eax], al ; add esp, 8 ; ret
0x1001c16a call 0x5796 ; add esp, 8 ; ret
0x1001c169 add al, ch ; xchg eax, ecx ; push edi ; add byte ptr [eax], al ; add esp, 8 ; ret
0x1001c168 add dword ptr [eax], eax ; call 0x5798 ; add esp, 8 ; ret
0x1001c1c9 ret
0x1001c1c8 pop ebp ; ret
0x1001c1c7 in eax, 0x5d ; ret
0x1001c1c6 mov esp, ebp ; pop ebp ; ret
0x1001c1c4 add byte ptr [eax], al ; mov esp, ebp ; pop ebp ; ret
0x1001c1c2 add dword ptr [eax], eax ; add byte ptr [eax], al ; mov esp, ebp ; pop ebp ; ret
0x1001c1c1 mov eax, 1 ; mov esp, ebp ; pop ebp ; ret
0x1001c1c0 or dword ptr [eax + 1], edi ; mov esp, ebp ; pop ebp ; ret
0x1001c1bf jne 0xb ; mov eax, 1 ; mov esp, ebp ; pop ebp ; ret
0x1001c1cf ret
0x1001c1ce pop ebp ; ret
0x1001c1cd in eax, 0x5d ; ret
0x1001c1cc mov esp, ebp ; pop ebp ; ret
0x1001c1ca xor eax, eax ; mov esp, ebp ; pop ebp ; ret
0x1001c1c9 ret ; xor eax, eax ; mov esp, ebp ; pop ebp ; ret
0x1001c1c8 pop ebp ; ret ; xor eax, eax ; mov esp, ebp ; pop ebp ; ret
0x1001c1c7 in eax, 0x5d ; ret ; xor eax, eax ; mov esp, ebp ; pop ebp ; ret
0x1001c1c6 mov esp, ebp ; pop ebp ; ret ; xor eax, eax ; mov esp, ebp ; pop ebp ; ret
0x1001c1f3 ret
0x1001c1f1 call eax ; ret
0x1001c1ef push 0 ; call eax ; ret
0x1001c1ee add eax, 0xd0ff006a ; ret
0x1001c1ed je 7 ; push 0 ; call eax ; ret
0x1001c1ec sal byte ptr [ebp + eax + 0x6a], 0 ; call eax ; ret
0x1001c1eb test eax, eax ; je 9 ; push 0 ; call eax ; ret
0x1001c1e9 add al, 0x10 ; test eax, eax ; je 0xb ; push 0 ; call eax ; ret
0x1001c25c ret
0x1001c25b pop esi ; ret
0x1001c25a pop esi ; ret
0x1001c259 jne 0xfffffff5 ; pop esi ; ret
0x1001c258 sal dword ptr [ebp - 0xd], 0x5e ; ret
0x1001c257 mov al, cl ; jne 0xfffffff7 ; pop esi ; ret
0x1001c256 ror byte ptr [edx + 0x5ef375c1], cl ; ret
0x1001c255 test dl, dl ; mov al, cl ; jne 0xfffffff9 ; pop esi ; ret
0x1001c254 inc esi ; test dl, dl ; mov al, cl ; jne 0xfffffffa ; pop esi ; ret
0x1001c253 push ss ; inc esi ; test dl, dl ; mov al, cl ; jne 0xfffffffb ; pop esi ; ret
0x1001c252 mov dl, byte ptr [esi] ; inc esi ; test dl, dl ; mov al, cl ; jne 0xfffffffc ; pop esi ; ret
0x1001c2ca ret
0x1001c2c9 pop ebx ; ret
0x1001c2c7 jne 0xfffffff8 ; pop ebx ; ret
0x1001c2c6 or byte ptr [ebp - 0xa], dh ; pop ebx ; ret
0x1001c2c5 mov byte ptr [eax], cl ; jne 0xfffffffa ; pop ebx ; ret
0x1001c2c4 leave ; mov byte ptr [eax], cl ; jne 0xfffffffb ; pop ebx ; ret
0x1001c2c3 test cl, cl ; mov byte ptr [eax], cl ; jne 0xfffffffc ; pop ebx ; ret
0x1001c2c2 inc edx ; test cl, cl ; mov byte ptr [eax], cl ; jne 0xfffffffd ; pop ebx ; ret
0x1001c2c1 inc eax ; inc edx ; test cl, cl ; mov byte ptr [eax], cl ; jne 0xfffffffe ; pop ebx ; ret
0x1001c2c0 or al, byte ptr [eax + 0x42] ; test cl, cl ; mov byte ptr [eax], cl ; jne 0xffffffff ; pop ebx ; ret
0x1001c2e8 ret
0x1001c2e6 add byte ptr [eax], al ; ret
0x1001c2e4 add dword ptr [eax], eax ; add byte ptr [eax], al ; ret
0x1001c2e3 mov eax, 1 ; ret
0x1001c2e2 push es ; mov eax, 1 ; ret
0x1001c2e1 jne 8 ; mov eax, 1 ; ret
0x1001c2e0 add dword ptr [ebp + 6], esi ; mov eax, 1 ; ret
0x1001c2df les eax, ptr [ecx] ; jne 0xa ; mov eax, 1 ; ret
0x1001c2de test ah, 1 ; jne 0xb ; mov eax, 1 ; ret
0x1001c2eb ret
0x1001c2e9 xor eax, eax ; ret
0x1001c2e8 ret ; xor eax, eax ; ret
0x1001c2e7 add bl, al ; xor eax, eax ; ret
0x1001c2e6 add byte ptr [eax], al ; ret ; xor eax, eax ; ret
0x1001c2e5 add byte ptr [eax], al ; add bl, al ; xor eax, eax ; ret
0x1001c2e4 add dword ptr [eax], eax ; add byte ptr [eax], al ; ret ; xor eax, eax ; ret
0x1001c2e3 mov eax, 1 ; ret ; xor eax, eax ; ret
0x1001c2e2 push es ; mov eax, 1 ; ret ; xor eax, eax ; ret
0x1001c2e1 jne 8 ; mov eax, 1 ; ret ; xor eax, eax ; ret
0x1001c321 ret
0x1001c31f les ecx, ptr [eax] ; ret
0x1001c31e add esp, 8 ; ret
0x1001c31d add al, 0x83 ; les ecx, ptr [eax] ; ret
0x1001c31c dec eax ; add al, 0x83 ; les ecx, ptr [eax] ; ret
0x1001c31b mov dword ptr [eax + 4], ecx ; add esp, 8 ; ret
0x1001c319 mov dword ptr [eax], edx ; mov dword ptr [eax + 4], ecx ; add esp, 8 ; ret
0x1001c318 or byte ptr [ecx + 0x4488910], cl ; add esp, 8 ; ret
0x1001c317 les ecx, ptr [eax] ; mov dword ptr [eax], edx ; mov dword ptr [eax + 4], ecx ; add esp, 8 ; ret
0x1001c341 ret
0x1001c33f les ecx, ptr [eax] ; ret
0x1001c33e add esp, 8 ; ret
0x1001c33c mov dword ptr [ecx], edx ; add esp, 8 ; ret
0x1001c33b or byte ptr [ecx + 0x8c48311], cl ; ret
0x1001c33a les ecx, ptr [eax] ; mov dword ptr [ecx], edx ; add esp, 8 ; ret
0x1001c339 add esp, 8 ; mov dword ptr [ecx], edx ; add esp, 8 ; ret
0x1001c338 sbb al, 0x83 ; les ecx, ptr [eax] ; mov dword ptr [ecx], edx ; add esp, 8 ; ret
0x1001c337 and al, 0x1c ; add esp, 8 ; mov dword ptr [ecx], edx ; add esp, 8 ; ret
0x1001c3c2 ret
0x1001c3c0 les ebp, ptr [eax] ; ret
0x1001c3bf add esp, 0x28 ; ret
0x1001c3be pop esi ; add esp, 0x28 ; ret
0x1001c3bd pop edi ; pop esi ; add esp, 0x28 ; ret
0x1001c3bb mov eax, edi ; pop edi ; pop esi ; add esp, 0x28 ; ret
0x1001c3b8 add esp, 0x14 ; mov eax, edi ; pop edi ; pop esi ; add esp, 0x28 ; ret
0x1001c4c1 ret
0x1001c4c0 pop ebx ; ret
0x1001c4bf pop ebp ; pop ebx ; ret
0x1001c4be pop esi ; pop ebp ; pop ebx ; ret
0x1001c4bd lds ebx, ptr [esi + 0x5d] ; pop ebx ; ret
0x1001c4bc mov eax, ebp ; pop esi ; pop ebp ; pop ebx ; ret
0x1001c4bb pop edi ; mov eax, ebp ; pop esi ; pop ebp ; pop ebx ; ret
0x1001c4ba add dword ptr [edi - 0x75], ebx ; lds ebx, ptr [esi + 0x5d] ; pop ebx ; ret
0x1001c4b9 dec esi ; add dword ptr [edi - 0x75], ebx ; lds ebx, ptr [esi + 0x5d] ; pop ebx ; ret
0x1001c4b8 add byte ptr [esi + 1], cl ; pop edi ; mov eax, ebp ; pop esi ; pop ebp ; pop ebx ; ret
0x1001c4b7 retf 0x4e00 ; add dword ptr [edi - 0x75], ebx ; lds ebx, ptr [esi + 0x5d] ; pop ebx ; ret
0x1001c535 ret
0x1001c533 les ebp, ptr [eax] ; ret
0x1001c532 add esp, 0x28 ; ret
0x1001c531 pop esi ; add esp, 0x28 ; ret
0x1001c530 pop edi ; pop esi ; add esp, 0x28 ; ret
0x1001c52e mov eax, esi ; pop edi ; pop esi ; add esp, 0x28 ; ret
0x1001c52d adc byte ptr [ebx - 0x7ca1a03a], cl ; les ebp, ptr [eax] ; ret
0x1001c52c les edx, ptr [eax] ; mov eax, esi ; pop edi ; pop esi ; add esp, 0x28 ; ret
0x1001c52b add esp, 0x10 ; mov eax, esi ; pop edi ; pop esi ; add esp, 0x28 ; ret
0x1001c5f2 ret
0x1001c5f5 ret
0x1001c5f4 pop ebx ; ret
0x1001c5f3 pop ebp ; pop ebx ; ret
0x1001c5f2 ret ; pop ebp ; pop ebx ; ret
0x1001c5f1 mov eax, ebx ; pop ebp ; pop ebx ; ret
0x1001c5f0 pop esi ; mov eax, ebx ; pop ebp ; pop ebx ; ret
0x1001c5ef pop edi ; pop esi ; mov eax, ebx ; pop ebp ; pop ebx ; ret
0x1001c5ee stosb byte ptr es:[edi], al ; pop edi ; pop esi ; mov eax, ebx ; pop ebp ; pop ebx ; ret
0x1001c5ed rep stosb byte ptr es:[edi], al ; pop edi ; pop esi ; mov eax, ebx ; pop ebp ; pop ebx ; ret
0x1001c5ec add esi, ebx ; stosb byte ptr es:[edi], al ; pop edi ; pop esi ; mov eax, ebx ; pop ebp ; pop ebx ; ret
0x1001c5eb loope 5 ; rep stosb byte ptr es:[edi], al ; pop edi ; pop esi ; mov eax, ebx ; pop ebp ; pop ebx ; ret
0x1001c666 ret
0x1001c664 xor edi, dword ptr [ebx] ; ret
0x1001c65f rol dword ptr [ebx + 0x337cfcf8], 0x3b ; ret
0x1001c65e pushfd ; rol dword ptr [ebx + 0x337cfcf8], 0x3b ; ret
0x1001c697 ret
0x1001c695 les ebp, ptr [eax] ; ret
0x1001c694 add esp, 0x28 ; ret
0x1001c693 pop ebx ; add esp, 0x28 ; ret
0x1001c692 pop ebp ; pop ebx ; add esp, 0x28 ; ret
0x1001c691 pop esi ; pop ebp ; pop ebx ; add esp, 0x28 ; ret
0x1001c690 pop edi ; pop esi ; pop ebp ; pop ebx ; add esp, 0x28 ; ret
0x1001c68f adc byte ptr [edi + 0x5e], bl ; pop ebp ; pop ebx ; add esp, 0x28 ; ret
0x1001c68e les edx, ptr [eax] ; pop edi ; pop esi ; pop ebp ; pop ebx ; add esp, 0x28 ; ret
0x1001c68d add esp, 0x10 ; pop edi ; pop esi ; pop ebp ; pop ebx ; add esp, 0x28 ; ret
0x1001c6b5 ret
0x1001c6b3 les ebp, ptr [eax] ; ret
0x1001c6b2 add esp, 0x28 ; ret
0x1001c6b1 pop ebx ; add esp, 0x28 ; ret
0x1001c6b0 pop ebp ; pop ebx ; add esp, 0x28 ; ret
0x1001c6af pop esi ; pop ebp ; pop ebx ; add esp, 0x28 ; ret
0x1001c6ae pop edi ; pop esi ; pop ebp ; pop ebx ; add esp, 0x28 ; ret
0x1001c6ad adc al, 0x5f ; pop esi ; pop ebp ; pop ebx ; add esp, 0x28 ; ret
0x1001c6ac les edx, ptr [edi + ebx*2] ; pop esi ; pop ebp ; pop ebx ; add esp, 0x28 ; ret
0x1001c6ab add esp, 0x14 ; pop edi ; pop esi ; pop ebp ; pop ebx ; add esp, 0x28 ; ret
0x1001c6ea ret
0x1001c6e7 add esp, 0xc ; ret
0x1001c6e2 call 0xfffffdee ; add esp, 0xc ; ret
0x1001c6e1 push edx ; call 0xfffffdef ; add esp, 0xc ; ret
0x1001c6e0 push ecx ; push edx ; call 0xfffffdf0 ; add esp, 0xc ; ret
0x1001c707 ret
0x1001c705 les edx, ptr [eax] ; ret
0x1001c704 add esp, 0x10 ; ret
0x1001c6ff call 0xffffff01 ; add esp, 0x10 ; ret
0x1001c6fe push eax ; call 0xffffff02 ; add esp, 0x10 ; ret
0x1001c6fd push edx ; push eax ; call 0xffffff03 ; add esp, 0x10 ; ret
0x1001c724 ret
0x1001c722 les edx, ptr [eax] ; ret
0x1001c721 add esp, 0x10 ; ret
0x1001c71c call 0xfffffc34 ; add esp, 0x10 ; ret
0x1001c71b push ecx ; call 0xfffffc35 ; add esp, 0x10 ; ret
0x1001c71a push eax ; push ecx ; call 0xfffffc36 ; add esp, 0x10 ; ret
0x1001c758 ret
0x1001c757 pop esi ; ret
0x1001c756 pop edi ; pop esi ; ret
0x1001c755 or al, 0x5f ; pop esi ; ret
0x1001c754 les ecx, ptr [edi + ebx*2] ; pop esi ; ret
0x1001c753 add esp, 0xc ; pop edi ; pop esi ; ret
0x1001c752 add byte ptr [ebx + 0x5e5f0cc4], al ; ret
0x1001c751 add byte ptr [eax], al ; add esp, 0xc ; pop edi ; pop esi ; ret
0x1001c750 dec esi ; add byte ptr [eax], al ; add esp, 0xc ; pop edi ; pop esi ; ret
0x1001c74f sub eax, 0x8300004e ; les ecx, ptr [edi + ebx*2] ; pop esi ; ret
0x1001c74e call 0x4e32 ; add esp, 0xc ; pop edi ; pop esi ; ret
0x1001c874 ret
0x1001c873 pop ebx ; ret
0x1001c872 pop ebp ; pop ebx ; ret
0x1001c871 pop esi ; pop ebp ; pop ebx ; ret
0x1001c870 pop edi ; pop esi ; pop ebp ; pop ebx ; ret
0x1001c86f lcall ptr [edi + 0x5e] ; pop ebp ; pop ebx ; ret
0x1001c86e enter 0x5fff, 0x5e ; pop ebp ; pop ebx ; ret
0x1001c86d or eax, 0xffffffff ; pop edi ; pop esi ; pop ebp ; pop ebx ; ret
0x1001c86c or al, 0x83 ; enter 0x5fff, 0x5e ; pop ebp ; pop ebx ; ret
0x1001c86b inc esi ; or al, 0x83 ; enter 0x5fff, 0x5e ; pop ebp ; pop ebx ; ret
0x1001c86a mov dword ptr [esi + 0xc], eax ; or eax, 0xffffffff ; pop edi ; pop esi ; pop ebp ; pop ebx ; ret
0x1001c882 ret
0x1001c881 pop ebx ; ret
0x1001c880 pop ebp ; pop ebx ; ret
0x1001c87f pop esi ; pop ebp ; pop ebx ; ret
0x1001c87e pop edi ; pop esi ; pop ebp ; pop ebx ; ret
0x1001c87d add byte ptr [edi + 0x5e], bl ; pop ebp ; pop ebx ; ret
0x1001c87c add byte ptr [eax], al ; pop edi ; pop esi ; pop ebp ; pop ebx ; ret
0x1001c87b add byte ptr [eax], al ; add byte ptr [edi + 0x5e], bl ; pop ebp ; pop ebx ; ret
0x1001c87a inc dword ptr [eax] ; add byte ptr [eax], al ; pop edi ; pop esi ; pop ebp ; pop ebx ; ret
0x1001c879 and eax, 0xff ; pop edi ; pop esi ; pop ebp ; pop ebx ; ret
0x1001c878 adc al, 0x25 ; inc dword ptr [eax] ; add byte ptr [eax], al ; pop edi ; pop esi ; pop ebp ; pop ebx ; ret
0x1001c88f ret
0x1001c88e pop ebx ; ret
0x1001c88b or eax, 0xffffffff ; pop ebx ; ret
0x1001c88a pop ebp ; or eax, 0xffffffff ; pop ebx ; ret
0x1001c889 pop esi ; pop ebp ; or eax, 0xffffffff ; pop ebx ; ret
0x1001c888 or al, 0x5e ; pop ebp ; or eax, 0xffffffff ; pop ebx ; ret
0x1001c887 inc esi ; or al, 0x5e ; pop ebp ; or eax, 0xffffffff ; pop ebx ; ret
0x1001c886 mov dword ptr [esi + 0xc], eax ; pop esi ; pop ebp ; or eax, 0xffffffff ; pop ebx ; ret
0x1001c885 pop edi ; mov dword ptr [esi + 0xc], eax ; pop esi ; pop ebp ; or eax, 0xffffffff ; pop ebx ; ret
0x1001c8e5 ret
0x1001c8e4 pop esi ; ret
0x1001c8e3 pop edi ; pop esi ; ret
0x1001c8e1 mov eax, edi ; pop edi ; pop esi ; ret
0x1001c8de add esp, 4 ; mov eax, edi ; pop edi ; pop esi ; ret
0x1001c8dd add byte ptr [ebx - 0x3874fb3c], al ; pop edi ; pop esi ; ret
0x1001c8dc add byte ptr [eax], al ; add esp, 4 ; mov eax, edi ; pop edi ; pop esi ; ret
0x1001c8db pop esp ; add byte ptr [eax], al ; add esp, 4 ; mov eax, edi ; pop edi ; pop esi ; ret
0x1001c901 ret
0x1001c900 pop esi ; ret
0x1001c8fd or eax, 0xffffffff ; pop esi ; ret
0x1001c8fc pop edi ; or eax, 0xffffffff ; pop esi ; ret
0x1001c8fa add byte ptr [eax], al ; pop edi ; or eax, 0xffffffff ; pop esi ; ret
0x1001c8f8 add byte ptr [eax], al ; add byte ptr [eax], al ; pop edi ; or eax, 0xffffffff ; pop esi ; ret
0x1001c93b ret
0x1001c939 add byte ptr [eax], al ; ret
0x1001c937 sbb al, 4 ; add byte ptr [eax], al ; ret
0x1001c936 les ebx, ptr [esp + eax] ; add byte ptr [eax], al ; ret
0x1001c935 add esp, 0x41c ; ret
0x1001c934 pop ebx ; add esp, 0x41c ; ret
0x1001c933 pop ebp ; pop ebx ; add esp, 0x41c ; ret
0x1001c932 pop esi ; pop ebp ; pop ebx ; add esp, 0x41c ; ret
0x1001c931 pop edi ; pop esi ; pop ebp ; pop ebx ; add esp, 0x41c ; ret
0x1001ca1a ret
0x1001ca18 lds edi, ptr [ebx] ; ret
0x1001ca14 or byte ptr [ebx + 0x3bc52bc7], cl ; ret
0x1001ca5d ret
0x1001ca5b add byte ptr [eax], al ; ret
0x1001ca59 sbb al, 4 ; add byte ptr [eax], al ; ret
0x1001ca58 les ebx, ptr [esp + eax] ; add byte ptr [eax], al ; ret
0x1001ca57 add esp, 0x41c ; ret
0x1001ca56 pop ebx ; add esp, 0x41c ; ret
0x1001ca55 pop ebp ; pop ebx ; add esp, 0x41c ; ret
0x1001ca54 pop esi ; pop ebp ; pop ebx ; add esp, 0x41c ; ret
0x1001ca53 pop edi ; pop esi ; pop ebp ; pop ebx ; add esp, 0x41c ; ret
0x1001ca74 ret
0x1001ca72 add byte ptr [eax], al ; ret
0x1001ca70 sbb al, 4 ; add byte ptr [eax], al ; ret
0x1001ca6f les ebx, ptr [esp + eax] ; add byte ptr [eax], al ; ret
0x1001ca6e add esp, 0x41c ; ret
0x1001ca6d pop ebx ; add esp, 0x41c ; ret
0x1001ca6c pop ebp ; pop ebx ; add esp, 0x41c ; ret
0x1001ca6b pop esi ; pop ebp ; pop ebx ; add esp, 0x41c ; ret
0x1001ca6a pop edi ; pop esi ; pop ebp ; pop ebx ; add esp, 0x41c ; ret
0x1001ca94 ret
0x1001ca92 add byte ptr [eax], al ; ret
0x1001ca90 sbb al, 4 ; add byte ptr [eax], al ; ret
0x1001ca8f les ebx, ptr [esp + eax] ; add byte ptr [eax], al ; ret
0x1001ca8e add esp, 0x41c ; ret
0x1001ca8d pop ebx ; add esp, 0x41c ; ret
0x1001ca8c pop ebp ; pop ebx ; add esp, 0x41c ; ret
0x1001ca8b pop esi ; pop ebp ; pop ebx ; add esp, 0x41c ; ret
0x1001ca8a pop edi ; pop esi ; pop ebp ; pop ebx ; add esp, 0x41c ; ret
0x1001cab8 ret
0x1001cab6 add byte ptr [eax], al ; ret
0x1001cab4 sbb al, 4 ; add byte ptr [eax], al ; ret
0x1001cab3 les ebx, ptr [esp + eax] ; add byte ptr [eax], al ; ret
0x1001cab2 add esp, 0x41c ; ret
0x1001cab1 pop ebx ; add esp, 0x41c ; ret
0x1001cab0 pop ebp ; pop ebx ; add esp, 0x41c ; ret
0x1001caaf pop esi ; pop ebp ; pop ebx ; add esp, 0x41c ; ret
0x1001caae pop edi ; pop esi ; pop ebp ; pop ebx ; add esp, 0x41c ; ret
0x1001cac9 ret
0x1001cac7 add byte ptr [eax], al ; ret
0x1001cac5 sbb al, 4 ; add byte ptr [eax], al ; ret
0x1001cac4 les ebx, ptr [esp + eax] ; add byte ptr [eax], al ; ret
0x1001cac3 add esp, 0x41c ; ret
0x1001cac2 pop ebx ; add esp, 0x41c ; ret
0x1001cac1 rcr dword ptr [ebx - 0x7f], -0x3c ; sbb al, 4 ; add byte ptr [eax], al ; ret
0x1001cac0 sub eax, ecx ; pop ebx ; add esp, 0x41c ; ret
0x1001cabf pop ebp ; sub eax, ecx ; pop ebx ; add esp, 0x41c ; ret
0x1001cbab ret
0x1001cbaa pop ebp ; ret
0x1001cba9 pop esi ; pop ebp ; ret
0x1001cba8 pop edi ; pop esi ; pop ebp ; ret
0x1001cba6 mov eax, esi ; pop edi ; pop esi ; pop ebp ; ret
0x1001cba3 add esp, 4 ; mov eax, esi ; pop edi ; pop esi ; pop ebp ; ret
0x1001cba2 add byte ptr [ebx - 0x3974fb3c], al ; pop edi ; pop esi ; pop ebp ; ret
0x1001cba1 add byte ptr [eax], al ; add esp, 4 ; mov eax, esi ; pop edi ; pop esi ; pop ebp ; ret
0x1001cbbd ret
0x1001cbbc pop ebp ; ret
0x1001cbb9 or eax, 0xffffffff ; pop ebp ; ret
0x1001cbb8 pop esi ; or eax, 0xffffffff ; pop ebp ; ret
0x1001cbb6 add byte ptr [eax], al ; pop esi ; or eax, 0xffffffff ; pop ebp ; ret
0x1001cbb4 or dword ptr [eax], eax ; add byte ptr [eax], al ; pop esi ; or eax, 0xffffffff ; pop ebp ; ret
0x1001cbe7 ret
0x1001cbe6 pop esi ; ret
0x1001cbe5 pop edi ; pop esi ; ret
0x1001cbe4 lcall ptr [edi + 0x5e] ; ret
0x1001cbe3 enter 0x5fff, 0x5e ; ret
0x1001cbe2 or eax, 0xffffffff ; pop edi ; pop esi ; ret
0x1001cbe1 or al, 0x83 ; enter 0x5fff, 0x5e ; ret
0x1001cbe0 inc esi ; or al, 0x83 ; enter 0x5fff, 0x5e ; ret
0x1001cbdf mov dword ptr [esi + 0xc], eax ; or eax, 0xffffffff ; pop edi ; pop esi ; ret
0x1001cbde and byte ptr [ecx - 0x377cf3ba], cl ; lcall ptr [edi + 0x5e] ; ret
0x1001cbdd or al, 0x20 ; mov dword ptr [esi + 0xc], eax ; or eax, 0xffffffff ; pop edi ; pop esi ; ret
0x1001cc8f ret
0x1001cc8e pop esi ; ret
0x1001cc8d pop edi ; pop esi ; ret
0x1001cc8c ret 0x5e5f ; ret
0x1001cc8b mov eax, edx ; pop edi ; pop esi ; ret
0x1001cc8a push es ; mov eax, edx ; pop edi ; pop esi ; ret
0x1001cc89 mov dword ptr [esi], eax ; mov eax, edx ; pop edi ; pop esi ; ret
0x1001cc88 inc eax ; mov dword ptr [esi], eax ; mov eax, edx ; pop edi ; pop esi ; ret
0x1001cc87 adc byte ptr [eax - 0x77], al ; push es ; mov eax, edx ; pop edi ; pop esi ; ret
0x1001cc86 mov dl, byte ptr [eax] ; inc eax ; mov dword ptr [esi], eax ; mov eax, edx ; pop edi ; pop esi ; ret
0x1001cc85 push es ; mov dl, byte ptr [eax] ; inc eax ; mov dword ptr [esi], eax ; mov eax, edx ; pop edi ; pop esi ; ret
0x1001ccae ret
0x1001ccad pop esi ; ret
0x1001ccaa or eax, 0xffffffff ; pop esi ; ret
0x1001cca9 pop edi ; or eax, 0xffffffff ; pop esi ; ret
0x1001cca8 or al, 0x5f ; or eax, 0xffffffff ; pop esi ; ret
0x1001cca7 dec esi ; or al, 0x5f ; or eax, 0xffffffff ; pop esi ; ret
0x1001cca6 mov dword ptr [esi + 0xc], ecx ; pop edi ; or eax, 0xffffffff ; pop esi ; ret
0x1001cca5 enter 0x4e89, 0xc ; pop edi ; or eax, 0xffffffff ; pop esi ; ret
0x1001cca4 or ecx, eax ; mov dword ptr [esi + 0xc], ecx ; pop edi ; or eax, 0xffffffff ; pop esi ; ret
0x1001cd05 ret
0x1001cd04 pop esi ; ret
0x1001cd03 pop edi ; pop esi ; ret
0x1001cd01 mov eax, edi ; pop edi ; pop esi ; ret
0x1001ccfe add esp, 4 ; mov eax, edi ; pop edi ; pop esi ; ret
0x1001ccfd add byte ptr [ebx - 0x3874fb3c], al ; pop edi ; pop esi ; ret
0x1001ccfc add byte ptr [eax], al ; add esp, 4 ; mov eax, edi ; pop edi ; pop esi ; ret
0x1001ccfb pop eax ; add byte ptr [eax], al ; add esp, 4 ; mov eax, edi ; pop edi ; pop esi ; ret
0x1001cd21 ret
0x1001cd20 pop esi ; ret
0x1001cd1d or eax, 0xffffffff ; pop esi ; ret
0x1001cd1c pop edi ; or eax, 0xffffffff ; pop esi ; ret
0x1001cd1a add byte ptr [eax], al ; pop edi ; or eax, 0xffffffff ; pop esi ; ret
0x1001cd18 add byte ptr [eax], al ; add byte ptr [eax], al ; pop edi ; or eax, 0xffffffff ; pop esi ; ret
0x1001cdeb ret
0x1001cde8 add esp, 0xc ; ret
0x1001cde7 pop ebx ; add esp, 0xc ; ret
0x1001cde6 pop ebp ; pop ebx ; add esp, 0xc ; ret
0x1001cde5 pop esi ; pop ebp ; pop ebx ; add esp, 0xc ; ret
0x1001cde4 pop edi ; pop esi ; pop ebp ; pop ebx ; add esp, 0xc ; ret
0x1001cde3 lcall ptr [edi + 0x5e] ; pop ebp ; pop ebx ; add esp, 0xc ; ret
0x1001cde2 enter 0x5fff, 0x5e ; pop ebp ; pop ebx ; add esp, 0xc ; ret
0x1001cde1 or eax, 0xffffffff ; pop edi ; pop esi ; pop ebp ; pop ebx ; add esp, 0xc ; ret
0x1001ce08 ret
0x1001ce05 add esp, 0xc ; ret
0x1001ce04 pop ebx ; add esp, 0xc ; ret
0x1001ce03 pop ebp ; pop ebx ; add esp, 0xc ; ret
0x1001ce02 pop esi ; pop ebp ; pop ebx ; add esp, 0xc ; ret
0x1001ce01 pop edi ; pop esi ; pop ebp ; pop ebx ; add esp, 0xc ; ret
0x1001ce00 lcall ptr [edi + 0x5e] ; pop ebp ; pop ebx ; add esp, 0xc ; ret
0x1001cdff enter 0x5fff, 0x5e ; pop ebp ; pop ebx ; add esp, 0xc ; ret
0x1001cdfe or eax, 0xffffffff ; pop edi ; pop esi ; pop ebp ; pop ebx ; add esp, 0xc ; ret
0x1001cf24 ret
0x1001cf21 add esp, 0xc ; ret
0x1001cf20 pop ebx ; add esp, 0xc ; ret
0x1001cf1f pop ebp ; pop ebx ; add esp, 0xc ; ret
0x1001cf1e pop esi ; pop ebp ; pop ebx ; add esp, 0xc ; ret
0x1001cf1d pop edi ; pop esi ; pop ebp ; pop ebx ; add esp, 0xc ; ret
0x1001cf1c lds ebx, ptr [edi + 0x5e] ; pop ebp ; pop ebx ; add esp, 0xc ; ret
0x1001cf1b mov eax, ebp ; pop edi ; pop esi ; pop ebp ; pop ebx ; add esp, 0xc ; ret
0x1001cf1a out dx, al ; mov eax, ebp ; pop edi ; pop esi ; pop ebp ; pop ebx ; add esp, 0xc ; ret
0x1001cf4a ret
0x1001cf47 add esp, 0xc ; ret
0x1001cf46 pop ebx ; add esp, 0xc ; ret
0x1001cf45 pop ebp ; pop ebx ; add esp, 0xc ; ret
0x1001cf44 pop esi ; pop ebp ; pop ebx ; add esp, 0xc ; ret
0x1001cf43 pop edi ; pop esi ; pop ebp ; pop ebx ; add esp, 0xc ; ret
0x1001cf42 lds ebx, ptr [edi + 0x5e] ; pop ebp ; pop ebx ; add esp, 0xc ; ret
0x1001cf41 mov eax, ebp ; pop edi ; pop esi ; pop ebp ; pop ebx ; add esp, 0xc ; ret
0x1001cf40 out dx, al ; mov eax, ebp ; pop edi ; pop esi ; pop ebp ; pop ebx ; add esp, 0xc ; ret
0x1001cf54 ret
0x1001cf51 add esp, 0xc ; ret
0x1001cf50 pop ebx ; add esp, 0xc ; ret
0x1001cf4e xor eax, eax ; pop ebx ; add esp, 0xc ; ret
0x1001cf4d pop ebp ; xor eax, eax ; pop ebx ; add esp, 0xc ; ret
0x1001cf4c pop esi ; pop ebp ; xor eax, eax ; pop ebx ; add esp, 0xc ; ret
0x1001cf4b pop edi ; pop esi ; pop ebp ; xor eax, eax ; pop ebx ; add esp, 0xc ; ret
0x1001cf4a ret ; pop edi ; pop esi ; pop ebp ; xor eax, eax ; pop ebx ; add esp, 0xc ; ret
0x1001cff9 ret
0x1001cff8 pop esi ; ret
0x1001cff7 pop edi ; pop esi ; ret
0x1001cff6 add byte ptr [edi + 0x5e], bl ; ret
0x1001cff5 add byte ptr [eax], al ; pop edi ; pop esi ; ret
0x1001cff4 add byte ptr [eax], al ; add byte ptr [edi + 0x5e], bl ; ret
0x1001cff3 add dword ptr [eax], eax ; add byte ptr [eax], al ; pop edi ; pop esi ; ret
0x1001cff2 mov eax, 1 ; pop edi ; pop esi ; ret
0x1001cff1 or al, 0xb8 ; add dword ptr [eax], eax ; add byte ptr [eax], al ; pop edi ; pop esi ; ret
0x1001cff0 inc esi ; or al, 0xb8 ; add dword ptr [eax], eax ; add byte ptr [eax], al ; pop edi ; pop esi ; ret
0x1001cfef mov dword ptr [esi + 0xc], eax ; mov eax, 1 ; pop edi ; pop esi ; ret
0x1001cffe ret
0x1001cffd pop esi ; ret
0x1001cffb xor eax, eax ; pop esi ; ret
0x1001cffa pop edi ; xor eax, eax ; pop esi ; ret
0x1001cff9 ret ; pop edi ; xor eax, eax ; pop esi ; ret
0x1001cff8 pop esi ; ret ; pop edi ; xor eax, eax ; pop esi ; ret
0x1001cff7 pop edi ; pop esi ; ret ; pop edi ; xor eax, eax ; pop esi ; ret
0x1001cff6 add byte ptr [edi + 0x5e], bl ; ret ; pop edi ; xor eax, eax ; pop esi ; ret
0x1001cff5 add byte ptr [eax], al ; pop edi ; pop esi ; ret ; pop edi ; xor eax, eax ; pop esi ; ret
0x1001cff4 add byte ptr [eax], al ; add byte ptr [edi + 0x5e], bl ; ret ; pop edi ; xor eax, eax ; pop esi ; ret
0x1001d03c ret
0x1001d03b pop esi ; ret
0x1001d039 add byte ptr [eax], al ; pop esi ; ret
0x1001d037 add byte ptr [eax], al ; add byte ptr [eax], al ; pop esi ; ret
0x1001d034 mov dword ptr [esi + 8], 0 ; pop esi ; ret
0x1001d032 add byte ptr [eax], al ; mov dword ptr [esi + 8], 0 ; pop esi ; ret
0x1001d097 ret
0x1001d0eb ret
0x1001d1ec ret
0x1001d267 ret
0x1001d28a ret
0x1001d2bc ret
0x1001d2b7 add eax, 0xbe0f0000 ; ret
0x1001d4b0 ret
0x1001d623 ret
0x1001d628 ret
0x1001d626 xor esi, esi ; ret
0x1001d624 and byte ptr [ebx + esi - 0xa], dh ; ret
0x1001d623 ret ; and byte ptr [ebx + esi - 0xa], dh ; ret
0x1001d65b ret
0x1001d659 sub dh, dh ; ret
0x1001d685 ret
0x1001d683 sal dh, cl ; ret
0x1001d681 add al, 0x33 ; sal dh, cl ; ret
0x1001d680 les eax, ptr [ebx + esi] ; sal dh, cl ; ret
0x1001d712 ret
0x1001d771 ret
0x1001d76f adc dh, dh ; ret
0x1001d76b add byte ptr [ebx - 0x9efdba4], cl ; ret
0x1001d769 add dword ptr [eax], eax ; add byte ptr [ebx - 0x9efdba4], cl ; ret
0x1001d768 push cs ; add dword ptr [eax], eax ; add byte ptr [ebx - 0x9efdba4], cl ; ret
0x1001d767 test dword ptr [esi], ecx ; add dword ptr [eax], eax ; add byte ptr [ebx - 0x9efdba4], cl ; ret
0x1001d782 ret
0x1001d78e ret
0x1001d78c or dh, dh ; ret
0x1001d78a sub ebp, ebx ; or dh, dh ; ret
0x1001d788 and al, 0x22 ; sub ebp, ebx ; or dh, dh ; ret
0x1001d787 inc esp ; and al, 0x22 ; sub ebp, ebx ; or dh, dh ; ret
0x1001d7ac ret
0x1001d7ea ret
0x1001d7e8 adc dh, dh ; ret
0x1001d7ef ret
0x1001d7eb or byte ptr [esi + edx - 0xa], dh ; ret
0x1001d7ea ret ; or byte ptr [esi + edx - 0xa], dh ; ret
0x1001d7e8 adc dh, dh ; ret ; or byte ptr [esi + edx - 0xa], dh ; ret
0x1001d7e5 add byte ptr [ebx - 0x3c09ef3c], al ; or byte ptr [esi + edx - 0xa], dh ; ret
0x1001d85e ret
0x1001d85c adc dh, dh ; ret
0x1001d8a5 ret
0x1001d8a3 add byte ptr [eax], al ; ret
0x1001d89f add esp, 0x24c ; ret
0x1001d89e pop ebx ; add esp, 0x24c ; ret
0x1001d89d pop ebp ; pop ebx ; add esp, 0x24c ; ret
0x1001d89c pop esi ; pop ebp ; pop ebx ; add esp, 0x24c ; ret
0x1001d89b pop edi ; pop esi ; pop ebp ; pop ebx ; add esp, 0x24c ; ret
0x1001da08 mov dword ptr [ecx], eax ; ret
0x1001da06 and al, 0xc ; mov dword ptr [ecx], eax ; ret
0x1001da05 dec esp ; and al, 0xc ; mov dword ptr [ecx], eax ; ret
0x1001da04 mov ecx, dword ptr [esp + 0xc] ; mov dword ptr [ecx], eax ; ret
0x1001da03 pop es ; mov ecx, dword ptr [esp + 0xc] ; mov dword ptr [ecx], eax ; ret
0x1001da02 jne 9 ; mov ecx, dword ptr [esp + 0xc] ; mov dword ptr [ecx], eax ; ret
0x1001da01 push dword ptr [ebp + 7] ; mov ecx, dword ptr [esp + 0xc] ; mov dword ptr [ecx], eax ; ret
0x1001da00 clc ; push dword ptr [ebp + 7] ; mov ecx, dword ptr [esp + 0xc] ; mov dword ptr [ecx], eax ; ret
0x1001da11 ret
0x1001da0f inc dword ptr [eax] ; ret
0x1001da0d and al, 0xc ; inc dword ptr [eax] ; ret
0x1001da0c inc esp ; and al, 0xc ; inc dword ptr [eax] ; ret
0x1001da0b mov eax, dword ptr [esp + 0xc] ; inc dword ptr [eax] ; ret
0x1001da09 add ebx, eax ; mov eax, dword ptr [esp + 0xc] ; inc dword ptr [eax] ; ret
0x1001da08 mov dword ptr [ecx], eax ; ret ; mov eax, dword ptr [esp + 0xc] ; inc dword ptr [eax] ; ret
0x1001da07 or al, 0x89 ; add ebx, eax ; mov eax, dword ptr [esp + 0xc] ; inc dword ptr [eax] ; ret
0x1001da58 ret
0x1001da57 pop ebx ; ret
0x1001da56 pop ebp ; pop ebx ; ret
0x1001da55 pop esi ; pop ebp ; pop ebx ; ret
0x1001da54 pop edi ; pop esi ; pop ebp ; pop ebx ; ret
0x1001da53 out 0x5f, eax ; pop esi ; pop ebp ; pop ebx ; ret
0x1001da52 jg 0xffffffe9 ; pop edi ; pop esi ; pop ebp ; pop ebx ; ret
0x1001da51 leave ; jg 0xffffffea ; pop edi ; pop esi ; pop ebp ; pop ebx ; ret
0x1001da50 test ecx, ecx ; jg 0xffffffeb ; pop edi ; pop esi ; pop ebp ; pop ebx ; ret
0x1001da4f dec ebp ; test ecx, ecx ; jg 0xffffffec ; pop edi ; pop esi ; pop ebp ; pop ebx ; ret
0x1001da4e int 0x4d ; test ecx, ecx ; jg 0xffffffed ; pop edi ; pop esi ; pop ebp ; pop ebx ; ret
0x1001da9c ret
0x1001da9b pop ebx ; ret
0x1001da9a pop ebp ; pop ebx ; ret
0x1001da99 pop esi ; pop ebp ; pop ebx ; ret
0x1001da98 pop edi ; pop esi ; pop ebp ; pop ebx ; ret
0x1001da97 jecxz 0x61 ; pop esi ; pop ebp ; pop ebx ; ret
0x1001da96 jg 0xffffffe5 ; pop edi ; pop esi ; pop ebp ; pop ebx ; ret
0x1001da95 leave ; jg 0xffffffe6 ; pop edi ; pop esi ; pop ebp ; pop ebx ; ret
0x1001da94 test ecx, ecx ; jg 0xffffffe7 ; pop edi ; pop esi ; pop ebp ; pop ebx ; ret
0x1001da93 dec ebp ; test ecx, ecx ; jg 0xffffffe8 ; pop edi ; pop esi ; pop ebp ; pop ebx ; ret
0x1001da92 int 0x4d ; test ecx, ecx ; jg 0xffffffe9 ; pop edi ; pop esi ; pop ebp ; pop ebx ; ret
0x1001dab0 ret
0x1001daaf cld ; ret
0x1001daae inc eax ; cld ; ret
0x1001daad mov eax, dword ptr [eax - 4] ; ret
0x1001daab mov eax, ecx ; mov eax, dword ptr [eax - 4] ; ret
0x1001daaa or byte ptr [ebx - 0x3bf743f], cl ; ret
0x1001daa9 mov dword ptr [eax], ecx ; mov eax, ecx ; mov eax, dword ptr [eax - 4] ; ret
0x1001daa8 add al, 0x89 ; or byte ptr [ebx - 0x3bf743f], cl ; ret
0x1001daa7 rol dword ptr [ecx + ecx*4], 8 ; mov eax, ecx ; mov eax, dword ptr [eax - 4] ; ret
0x1001daa6 add ecx, 4 ; mov dword ptr [eax], ecx ; mov eax, ecx ; mov eax, dword ptr [eax - 4] ; ret
0x1001dad1 ret
0x1001dad0 cld ; ret
0x1001dacf push ecx ; cld ; ret
0x1001dace mov edx, dword ptr [ecx - 4] ; ret
0x1001dacd clc ; mov edx, dword ptr [ecx - 4] ; ret
0x1001dacc inc ecx ; clc ; mov edx, dword ptr [ecx - 4] ; ret
0x1001dacb mov eax, dword ptr [ecx - 8] ; mov edx, dword ptr [ecx - 4] ; ret
0x1001daca or byte ptr [ebx + 0x518bf841], cl ; cld ; ret
0x1001dac9 mov dword ptr [eax], ecx ; mov eax, dword ptr [ecx - 8] ; mov edx, dword ptr [ecx - 4] ; ret
0x1001dac8 or byte ptr [ecx - 0x7be74f8], cl ; mov edx, dword ptr [ecx - 4] ; ret
0x1001dac7 ror dword ptr [eax], -0x77 ; or byte ptr [ebx + 0x518bf841], cl ; cld ; ret
0x1001daf1 ret
0x1001daf0 cld ; ret
0x1001daef inc eax ; cld ; ret
0x1001daee mov eax, dword ptr [eax - 4] ; ret
0x1001daed mov ax, word ptr [eax - 4] ; ret
0x1001daec shl dword ptr [esi - 0x75], 0x40 ; cld ; ret
0x1001daeb mov eax, ecx ; mov ax, word ptr [eax - 4] ; ret
0x1001daea or byte ptr [ebx + 0x408b66c1], cl ; cld ; ret
0x1001dae9 mov dword ptr [eax], ecx ; mov eax, ecx ; mov ax, word ptr [eax - 4] ; ret
0x1001dae8 add al, 0x89 ; or byte ptr [ebx + 0x408b66c1], cl ; cld ; ret
0x1001dae7 rol dword ptr [ecx + ecx*4], 8 ; mov eax, ecx ; mov ax, word ptr [eax - 4] ; ret
0x1001db4b ret
0x1001db4a pop esi ; ret
0x1001db49 pop edi ; pop esi ; ret
0x1001db47 mov eax, edi ; pop edi ; pop esi ; ret
0x1001db44 add esp, 4 ; mov eax, edi ; pop edi ; pop esi ; ret
0x1001db43 add byte ptr [ebx - 0x3874fb3c], al ; pop edi ; pop esi ; ret
0x1001db42 add byte ptr [eax], al ; add esp, 4 ; mov eax, edi ; pop edi ; pop esi ; ret
0x1001db41 dec ecx ; add byte ptr [eax], al ; add esp, 4 ; mov eax, edi ; pop edi ; pop esi ; ret
0x1001db67 ret
0x1001db66 pop esi ; ret
0x1001db63 or eax, 0xffffffff ; pop esi ; ret
0x1001db62 pop edi ; or eax, 0xffffffff ; pop esi ; ret
0x1001db60 add byte ptr [eax], al ; pop edi ; or eax, 0xffffffff ; pop esi ; ret
0x1001db5e add byte ptr [eax], al ; add byte ptr [eax], al ; pop edi ; or eax, 0xffffffff ; pop esi ; ret
0x1001dbfa ret
0x1001dbf9 pop esi ; ret
0x1001dbf8 pop edi ; pop esi ; ret
0x1001dbf7 lcall ptr [edi + 0x5e] ; ret
0x1001dbf6 enter 0x5fff, 0x5e ; ret
0x1001dbf5 or eax, 0xffffffff ; pop edi ; pop esi ; ret
0x1001dbf4 add al, 0x83 ; enter 0x5fff, 0x5e ; ret
0x1001dbf3 les eax, ptr [ebx + eax*4] ; enter 0x5fff, 0x5e ; ret
0x1001dbf2 add esp, 4 ; or eax, 0xffffffff ; pop edi ; pop esi ; ret
0x1001dbf1 inc dword ptr [ebx - 0x377cfb3c] ; lcall ptr [edi + 0x5e] ; ret
0x1001dbff ret
0x1001dbfe pop esi ; ret
0x1001dbfc xor eax, eax ; pop esi ; ret
0x1001dbfb pop edi ; xor eax, eax ; pop esi ; ret
0x1001dbfa ret ; pop edi ; xor eax, eax ; pop esi ; ret
0x1001dbf9 pop esi ; ret ; pop edi ; xor eax, eax ; pop esi ; ret
0x1001dbf8 pop edi ; pop esi ; ret ; pop edi ; xor eax, eax ; pop esi ; ret
0x1001dbf7 lcall ptr [edi + 0x5e] ; ret ; pop edi ; xor eax, eax ; pop esi ; ret
0x1001dbf6 enter 0x5fff, 0x5e ; ret ; pop edi ; xor eax, eax ; pop esi ; ret
0x1001dbf5 or eax, 0xffffffff ; pop edi ; pop esi ; ret ; pop edi ; xor eax, eax ; pop esi ; ret
0x1001dc49 ret
0x1001dc48 pop ebx ; ret
0x1001dc47 pop esi ; pop ebx ; ret
0x1001dc46 pop edi ; pop esi ; pop ebx ; ret
0x1001dc45 movsb byte ptr es:[edi], byte ptr [esi] ; pop edi ; pop esi ; pop ebx ; ret
0x1001dc44 rep movsb byte ptr es:[edi], byte ptr [esi] ; pop edi ; pop esi ; pop ebx ; ret
0x1001dc43 add esi, ebx ; movsb byte ptr es:[edi], byte ptr [esi] ; pop edi ; pop esi ; pop ebx ; ret
0x1001dc42 loope 5 ; rep movsb byte ptr es:[edi], byte ptr [esi] ; pop edi ; pop esi ; pop ebx ; ret
0x1001dc41 and ecx, 3 ; rep movsb byte ptr es:[edi], byte ptr [esi] ; pop edi ; pop esi ; pop ebx ; ret
0x1001dc40 retf ; and ecx, 3 ; rep movsb byte ptr es:[edi], byte ptr [esi] ; pop edi ; pop esi ; pop ebx ; ret
0x1001dc3f mov ecx, ebx ; and ecx, 3 ; rep movsb byte ptr es:[edi], byte ptr [esi] ; pop edi ; pop esi ; pop ebx ; ret
0x1001dc4f ret
0x1001dc4e pop ebx ; ret
0x1001dc4c xor eax, eax ; pop ebx ; ret
0x1001dc4b pop esi ; xor eax, eax ; pop ebx ; ret
0x1001dc4a pop edi ; pop esi ; xor eax, eax ; pop ebx ; ret
0x1001dc49 ret ; pop edi ; pop esi ; xor eax, eax ; pop ebx ; ret
0x1001dc48 pop ebx ; ret ; pop edi ; pop esi ; xor eax, eax ; pop ebx ; ret
0x1001dc47 pop esi ; pop ebx ; ret ; pop edi ; pop esi ; xor eax, eax ; pop ebx ; ret
0x1001dc46 pop edi ; pop esi ; pop ebx ; ret ; pop edi ; pop esi ; xor eax, eax ; pop ebx ; ret
0x1001dc45 movsb byte ptr es:[edi], byte ptr [esi] ; pop edi ; pop esi ; pop ebx ; ret ; pop edi ; pop esi ; xor eax, eax ; pop ebx ; ret
0x1001de02 ret
0x1001ddff add esp, 0x14 ; ret
0x1001ddfe pop ebx ; add esp, 0x14 ; ret
0x1001ddfd pop ebp ; pop ebx ; add esp, 0x14 ; ret
0x1001ddfc pop esi ; pop ebp ; pop ebx ; add esp, 0x14 ; ret
0x1001ddfb pop edi ; pop esi ; pop ebp ; pop ebx ; add esp, 0x14 ; ret
0x1001ddf9 or eax, esi ; pop edi ; pop esi ; pop ebp ; pop ebx ; add esp, 0x14 ; ret
0x1001de58 ret
0x1001de55 add esp, 0x14 ; ret
0x1001de54 pop ebx ; add esp, 0x14 ; ret
0x1001de53 pop ebp ; pop ebx ; add esp, 0x14 ; ret
0x1001de52 pop esi ; pop ebp ; pop ebx ; add esp, 0x14 ; ret
0x1001de51 pop edi ; pop esi ; pop ebp ; pop ebx ; add esp, 0x14 ; ret
0x1001de50 lcall ptr [edi + 0x5e] ; pop ebp ; pop ebx ; add esp, 0x14 ; ret
0x1001de4f enter 0x5fff, 0x5e ; pop ebp ; pop ebx ; add esp, 0x14 ; ret
0x1001de4e or eax, 0xffffffff ; pop edi ; pop esi ; pop ebp ; pop ebx ; add esp, 0x14 ; ret
0x1001df52 ret
0x1001df4f add esp, 0x14 ; ret
0x1001df4e pop ebx ; add esp, 0x14 ; ret
0x1001df4d pop ebp ; pop ebx ; add esp, 0x14 ; ret
0x1001df4c pop esi ; pop ebp ; pop ebx ; add esp, 0x14 ; ret
0x1001df4b pop edi ; pop esi ; pop ebp ; pop ebx ; add esp, 0x14 ; ret
0x1001df4a lcall ptr [edi + 0x5e] ; pop ebp ; pop ebx ; add esp, 0x14 ; ret
0x1001df49 enter 0x5fff, 0x5e ; pop ebp ; pop ebx ; add esp, 0x14 ; ret
0x1001df48 or eax, 0xffffffff ; pop edi ; pop esi ; pop ebp ; pop ebx ; add esp, 0x14 ; ret
0x1001df83 ret
0x1001df80 add esp, 0x14 ; ret
0x1001df7f pop ebx ; add esp, 0x14 ; ret
0x1001df7e pop ebp ; pop ebx ; add esp, 0x14 ; ret
0x1001df7d pop esi ; pop ebp ; pop ebx ; add esp, 0x14 ; ret
0x1001df7c pop edi ; pop esi ; pop ebp ; pop ebx ; add esp, 0x14 ; ret
0x1001df7a mov eax, esi ; pop edi ; pop esi ; pop ebp ; pop ebx ; add esp, 0x14 ; ret
0x1001dfa0 ret
0x1001df9d add esp, 0x14 ; ret
0x1001df9c pop ebx ; add esp, 0x14 ; ret
0x1001df99 or eax, 0xffffffff ; pop ebx ; add esp, 0x14 ; ret
0x1001df98 pop ebp ; or eax, 0xffffffff ; pop ebx ; add esp, 0x14 ; ret
0x1001df97 pop esi ; pop ebp ; or eax, 0xffffffff ; pop ebx ; add esp, 0x14 ; ret
0x1001df96 pop edi ; pop esi ; pop ebp ; or eax, 0xffffffff ; pop ebx ; add esp, 0x14 ; ret
0x1001e04f ret
0x1001e048 mov dword ptr [eax + edx], 0x7cf03b46 ; ret
0x1001e0c8 ret
0x1001e0c7 pop ebx ; ret
0x1001e0c6 pop ebp ; pop ebx ; ret
0x1001e0c5 pop esi ; pop ebp ; pop ebx ; ret
0x1001e0c4 pop edi ; pop esi ; pop ebp ; pop ebx ; ret
0x1001e0c2 mov eax, edi ; pop edi ; pop esi ; pop ebp ; pop ebx ; ret
0x1001e0bf add esp, 4 ; mov eax, edi ; pop edi ; pop esi ; pop ebp ; pop ebx ; ret
0x1001e0be inc dword ptr [ebx - 0x3874fb3c] ; pop edi ; pop esi ; pop ebp ; pop ebx ; ret
0x1001e130 ret
0x1001e12f pop ebx ; ret
0x1001e12e pop ebp ; pop ebx ; ret
0x1001e12d pop esi ; pop ebp ; pop ebx ; ret
0x1001e12c pop edi ; pop esi ; pop ebp ; pop ebx ; ret
0x1001e12b pop edi ; pop esi ; pop ebp ; pop ebx ; ret
0x1001e12a jb 0xfffffff4 ; pop edi ; pop esi ; pop ebp ; pop ebx ; ret
0x1001e129 fidiv word ptr [edx - 0xe] ; pop edi ; pop esi ; pop ebp ; pop ebx ; ret
0x1001e128 cmp ebx, esi ; jb 0xfffffff6 ; pop edi ; pop esi ; pop ebp ; pop ebx ; ret
0x1001e127 inc ebx ; cmp ebx, esi ; jb 0xfffffff7 ; pop edi ; pop esi ; pop ebp ; pop ebx ; ret
0x1001e126 dec esi ; inc ebx ; cmp ebx, esi ; jb 0xfffffff8 ; pop edi ; pop esi ; pop ebp ; pop ebx ; ret
0x1001e15d ret
0x1001e15c pop esi ; ret
0x1001e15a mov eax, esi ; pop esi ; ret
0x1001e158 les edx, ptr [eax] ; mov eax, esi ; pop esi ; ret
0x1001e157 add esp, 0x10 ; mov eax, esi ; pop esi ; ret
0x1001e156 inc dword ptr [ebx - 0x3974ef3c] ; pop esi ; ret
0x1001e3d8 ret
0x1001e3d5 add esp, 0xc ; ret
0x1001e3d4 pop ebx ; add esp, 0xc ; ret
0x1001e3d3 pop ebp ; pop ebx ; add esp, 0xc ; ret
0x1001e3d2 pop esi ; pop ebp ; pop ebx ; add esp, 0xc ; ret
0x1001e3d1 pop edi ; pop esi ; pop ebp ; pop ebx ; add esp, 0xc ; ret
0x1001e3d0 sbb byte ptr [edi + 0x5e], bl ; pop ebp ; pop ebx ; add esp, 0xc ; ret
0x1001e3cf and al, 0x18 ; pop edi ; pop esi ; pop ebp ; pop ebx ; add esp, 0xc ; ret
0x1001e3ce inc esp ; and al, 0x18 ; pop edi ; pop esi ; pop ebp ; pop ebx ; add esp, 0xc ; ret
0x1001e3f0 ret
0x1001e3ed add esp, 0xc ; ret
0x1001e3ec pop ebx ; add esp, 0xc ; ret
0x1001e3ea xor eax, eax ; pop ebx ; add esp, 0xc ; ret
0x1001e3e9 pop ebp ; xor eax, eax ; pop ebx ; add esp, 0xc ; ret
0x1001e3e8 pop esi ; pop ebp ; xor eax, eax ; pop ebx ; add esp, 0xc ; ret
0x1001e3e7 pop edi ; pop esi ; pop ebp ; xor eax, eax ; pop ebx ; add esp, 0xc ; ret
0x1001e3e6 or byte ptr [edi + 0x5e], bl ; pop ebp ; xor eax, eax ; pop ebx ; add esp, 0xc ; ret
0x1001e419 ret
0x1001e417 les edx, ptr [eax] ; ret
0x1001e416 add esp, 0x10 ; ret
0x1001e411 call 0xfffffd5f ; add esp, 0x10 ; ret
0x1001e410 push edx ; call 0xfffffd60 ; add esp, 0x10 ; ret
0x1001e40f push ecx ; push edx ; call 0xfffffd61 ; add esp, 0x10 ; ret
0x1001e43f ret
0x1001e43e pop esi ; ret
0x1001e43c les ecx, ptr [eax] ; pop esi ; ret
0x1001e43b add esp, 8 ; pop esi ; ret
0x1001e439 add byte ptr [eax], al ; add esp, 8 ; pop esi ; ret
0x1001e438 inc ebp ; add byte ptr [eax], al ; add esp, 8 ; pop esi ; ret
0x1001e437 aad 0x45 ; add byte ptr [eax], al ; add esp, 8 ; pop esi ; ret
0x1001e436 call 0x45da ; add esp, 8 ; pop esi ; ret
0x1001e435 push ecx ; call 0x45db ; add esp, 8 ; pop esi ; ret
0x1001e4af ret
0x1001e4ae pop esi ; ret
0x1001e4ad pop edi ; pop esi ; ret
0x1001e4ac pop ebp ; pop edi ; pop esi ; ret
0x1001e4ab pop ebx ; pop ebp ; pop edi ; pop esi ; ret
0x1001e4a9 mov eax, esi ; pop ebx ; pop ebp ; pop edi ; pop esi ; ret
0x1001e4a6 add esp, 4 ; mov eax, esi ; pop ebx ; pop ebp ; pop edi ; pop esi ; ret
0x1001e4a5 inc dword ptr [ebx - 0x3974fb3c] ; pop ebx ; pop ebp ; pop edi ; pop esi ; ret
0x1001e52d ret
0x1001e52c pop esi ; ret
0x1001e52b pop edi ; pop esi ; ret
0x1001e529 mov eax, edi ; pop edi ; pop esi ; ret
0x1001e526 add esp, 4 ; mov eax, edi ; pop edi ; pop esi ; ret
0x1001e525 inc dword ptr [ebx - 0x3874fb3c] ; pop edi ; pop esi ; ret
0x1001e585 ret
0x1001e584 pop esi ; ret
0x1001e583 pop edi ; pop esi ; ret
0x1001e581 mov eax, edi ; pop edi ; pop esi ; ret
0x1001e57e add esp, 4 ; mov eax, edi ; pop edi ; pop esi ; ret
0x1001e57d add byte ptr [ebx - 0x3874fb3c], al ; pop edi ; pop esi ; ret
0x1001e57c add byte ptr [eax], al ; add esp, 4 ; mov eax, edi ; pop edi ; pop esi ; ret
0x1001e57b aas ; add byte ptr [eax], al ; add esp, 4 ; mov eax, edi ; pop edi ; pop esi ; ret
0x1001e5a1 ret
0x1001e5a0 pop esi ; ret
0x1001e59d or eax, 0xffffffff ; pop esi ; ret
0x1001e59c pop edi ; or eax, 0xffffffff ; pop esi ; ret
0x1001e59a add byte ptr [eax], al ; pop edi ; or eax, 0xffffffff ; pop esi ; ret
0x1001e598 add byte ptr [eax], al ; add byte ptr [eax], al ; pop edi ; or eax, 0xffffffff ; pop esi ; ret
0x1001e5d4 ret
0x1001e5d3 pop esi ; ret
0x1001e5d2 pop edi ; pop esi ; ret
0x1001e5d1 lcall ptr [edi + 0x5e] ; ret
0x1001e5d0 enter 0x5fff, 0x5e ; ret
0x1001e5cf or eax, 0xffffffff ; pop edi ; pop esi ; ret
0x1001e5ce add byte ptr [ebx + 0x5e5fffc8], al ; ret
0x1001e5cd add byte ptr [eax], al ; or eax, 0xffffffff ; pop edi ; pop esi ; ret
0x1001e5cc add byte ptr [eax], al ; add byte ptr [ebx + 0x5e5fffc8], al ; ret
0x1001e5cb or dword ptr [eax], eax ; add byte ptr [eax], al ; or eax, 0xffffffff ; pop edi ; pop esi ; ret
0x1001e5ca add byte ptr [ecx], cl ; add byte ptr [eax], al ; add byte ptr [ebx + 0x5e5fffc8], al ; ret
0x1001e60b ret
0x1001e609 pop edi ; pop esi ; ret
0x1001e608 lcall ptr [edi + 0x5e] ; ret
0x1001e607 enter 0x5fff, 0x5e ; ret
0x1001e606 or eax, 0xffffffff ; pop edi ; pop esi ; ret
0x1001e605 add al, 0x83 ; enter 0x5fff, 0x5e ; ret
0x1001e604 les eax, ptr [ebx + eax*4] ; enter 0x5fff, 0x5e ; ret
0x1001e603 add esp, 4 ; or eax, 0xffffffff ; pop edi ; pop esi ; ret
0x1001e602 inc dword ptr [ebx - 0x377cfb3c] ; lcall ptr [edi + 0x5e] ; ret
0x1001e62f ret
0x1001e62e pop esi ; ret
0x1001e62d pop edi ; pop esi ; ret
0x1001e62b mov eax, edi ; pop edi ; pop esi ; ret
0x1001e629 mov byte ptr [eax], cl ; mov eax, edi ; pop edi ; pop esi ; ret
0x1001e628 std ; mov byte ptr [eax], cl ; mov eax, edi ; pop edi ; pop esi ; ret
0x1001e627 loope 0xffffffff ; mov byte ptr [eax], cl ; mov eax, edi ; pop edi ; pop esi ; ret
0x1001e626 and cl, 0xfd ; mov byte ptr [eax], cl ; mov eax, edi ; pop edi ; pop esi ; ret
0x1001e625 add al, 0x80 ; loope 1 ; mov byte ptr [eax], cl ; mov eax, edi ; pop edi ; pop esi ; ret
0x1001e66d ret
0x1001e66b les ecx, ptr [eax] ; ret
0x1001e66a add esp, 8 ; ret
0x1001e669 pop ebx ; add esp, 8 ; ret
0x1001e668 pop ebp ; pop ebx ; add esp, 8 ; ret
0x1001e667 pop esi ; pop ebp ; pop ebx ; add esp, 8 ; ret
0x1001e666 pop edi ; pop esi ; pop ebp ; pop ebx ; add esp, 8 ; ret
0x1001e665 lcall ptr [edi + 0x5e] ; pop ebp ; pop ebx ; add esp, 8 ; ret
0x1001e664 enter 0x5fff, 0x5e ; pop ebp ; pop ebx ; add esp, 8 ; ret
0x1001e663 or eax, 0xffffffff ; pop edi ; pop esi ; pop ebp ; pop ebx ; add esp, 8 ; ret
0x1001e686 ret
0x1001e684 les ecx, ptr [eax] ; ret
0x1001e683 add esp, 8 ; ret
0x1001e682 pop ebx ; add esp, 8 ; ret
0x1001e681 pop ebp ; pop ebx ; add esp, 8 ; ret
0x1001e680 pop esi ; pop ebp ; pop ebx ; add esp, 8 ; ret
0x1001e67f pop edi ; pop esi ; pop ebp ; pop ebx ; add esp, 8 ; ret
0x1001e67e rcr dword ptr [edi + 0x5e], 0x5d ; pop ebx ; add esp, 8 ; ret
0x1001e67d sub eax, ecx ; pop edi ; pop esi ; pop ebp ; pop ebx ; add esp, 8 ; ret
0x1001e67c add al, 0x2b ; rcr dword ptr [edi + 0x5e], 0x5d ; pop ebx ; add esp, 8 ; ret
0x1001e69f ret
0x1001e69d jmp 0xffffff8d ; ret
0x1001e6dd ret
0x1001e6db les ecx, ptr [eax] ; ret
0x1001e6da add esp, 8 ; ret
0x1001e6d9 pop ebx ; add esp, 8 ; ret
0x1001e6d8 pop ebp ; pop ebx ; add esp, 8 ; ret
0x1001e6d7 pop esi ; pop ebp ; pop ebx ; add esp, 8 ; ret
0x1001e6d6 pop edi ; pop esi ; pop ebp ; pop ebx ; add esp, 8 ; ret
0x1001e6d5 ret 0x5e5f ; pop ebp ; pop ebx ; add esp, 8 ; ret
0x1001e6d4 mov eax, edx ; pop edi ; pop esi ; pop ebp ; pop ebx ; add esp, 8 ; ret
0x1001e6d3 or cl, byte ptr [ebx + 0x5d5e5fc2] ; pop ebx ; add esp, 8 ; ret
0x1001e703 ret
0x1001e701 les ecx, ptr [eax] ; ret
0x1001e700 add esp, 8 ; ret
0x1001e6ff pop ebx ; add esp, 8 ; ret
0x1001e6fe pop ebp ; pop ebx ; add esp, 8 ; ret
0x1001e6fd pop esi ; pop ebp ; pop ebx ; add esp, 8 ; ret
0x1001e6fc pop edi ; pop esi ; pop ebp ; pop ebx ; add esp, 8 ; ret
0x1001e6fb adc dword ptr [edi + 0x5e], ebx ; pop ebp ; pop ebx ; add esp, 8 ; ret
0x1001e6fa add al, 0x11 ; pop edi ; pop esi ; pop ebp ; pop ebx ; add esp, 8 ; ret
0x1001e6f9 lea eax, dword ptr [ecx + edx] ; pop edi ; pop esi ; pop ebp ; pop ebx ; add esp, 8 ; ret
0x1001e7b5 ret
0x1001e7b3 les ecx, ptr [eax] ; ret
0x1001e7b2 add esp, 8 ; ret
0x1001e7b1 pop ebx ; add esp, 8 ; ret
0x1001e7b0 pop ebp ; pop ebx ; add esp, 8 ; ret
0x1001e7af pop esi ; pop ebp ; pop ebx ; add esp, 8 ; ret
0x1001e7ae pop edi ; pop esi ; pop ebp ; pop ebx ; add esp, 8 ; ret
0x1001e7ad adc dword ptr [edi + 0x5e], ebx ; pop ebp ; pop ebx ; add esp, 8 ; ret
0x1001e7ac add al, 0x11 ; pop edi ; pop esi ; pop ebp ; pop ebx ; add esp, 8 ; ret
0x1001e7ab lea eax, dword ptr [ecx + edx] ; pop edi ; pop esi ; pop ebp ; pop ebx ; add esp, 8 ; ret
0x1001e7d3 ret
0x1001e7d1 les ecx, ptr [eax] ; ret
0x1001e7d0 add esp, 8 ; ret
0x1001e7cf pop ebx ; add esp, 8 ; ret
0x1001e7ce lcall ptr [ebx - 0x7d] ; les ecx, ptr [eax] ; ret
0x1001e7cd enter 0x5bff, -0x7d ; les ecx, ptr [eax] ; ret
0x1001e7cc or eax, 0xffffffff ; pop ebx ; add esp, 8 ; ret
0x1001e7cb pop ebp ; or eax, 0xffffffff ; pop ebx ; add esp, 8 ; ret
0x1001e7ca add byte ptr [ebp - 0x7d], bl ; enter 0x5bff, -0x7d ; les ecx, ptr [eax] ; ret
0x1001e7c9 add byte ptr [eax], al ; pop ebp ; or eax, 0xffffffff ; pop ebx ; add esp, 8 ; ret
0x1001e812 ret
0x1001e811 pop esi ; ret
0x1001e810 add al, 0x5e ; ret
0x1001e80f inc esi ; add al, 0x5e ; ret
0x1001e80e mov dword ptr [esi + 4], eax ; pop esi ; ret
0x1001e80b mov dword ptr [esi + 8], eax ; mov dword ptr [esi + 4], eax ; pop esi ; ret
0x1001e809 mov dword ptr [esi], eax ; mov dword ptr [esi + 8], eax ; mov dword ptr [esi + 4], eax ; pop esi ; ret
0x1001e808 ror byte ptr [ecx + 0x8468906], 0x89 ; inc esi ; add al, 0x5e ; ret
0x1001f498 ret
0x1001f496 add byte ptr [eax], al ; ret
0x1001f494 rol byte ptr [ecx], 1 ; add byte ptr [eax], al ; ret
0x1001f492 add esp, 0x1d0 ; ret
0x1001f491 pop ebx ; add esp, 0x1d0 ; ret
0x1001f490 pop ebp ; pop ebx ; add esp, 0x1d0 ; ret
0x1001f48f pop esi ; pop ebp ; pop ebx ; add esp, 0x1d0 ; ret
0x1001f48e pop edi ; pop esi ; pop ebp ; pop ebx ; add esp, 0x1d0 ; ret
0x1001f598 ret
0x1001f597 pop esi ; ret
0x1001f595 mov eax, esi ; pop esi ; ret
0x1001f594 pop es ; mov eax, esi ; pop esi ; ret
0x1001f593 out dx, al ; pop es ; mov eax, esi ; pop esi ; ret
0x1001f592 sub esi, 7 ; mov eax, esi ; pop esi ; ret
0x1001f591 fild word ptr [ebx - 0x3974f812] ; pop esi ; ret
0x1001f590 out 0xdf, al ; sub esi, 7 ; mov eax, esi ; pop esi ; ret
0x1001f58f and esi, 0xffffffdf ; sub esi, 7 ; mov eax, esi ; pop esi ; ret
0x1001f58e push es ; and esi, 0xffffffdf ; sub esi, 7 ; mov eax, esi ; pop esi ; ret
0x1001f5b6 ret
0x1001f5b4 mov dword ptr [ecx], edx ; ret
0x1001f5b3 inc edx ; mov dword ptr [ecx], edx ; ret
0x1001f5b1 mov al, byte ptr [edx] ; inc edx ; mov dword ptr [ecx], edx ; ret
0x1001f5af xor eax, eax ; mov al, byte ptr [edx] ; inc edx ; mov dword ptr [ecx], edx ; ret
0x1001f5ad mov edx, dword ptr [ecx] ; xor eax, eax ; mov al, byte ptr [edx] ; inc edx ; mov dword ptr [ecx], edx ; ret
0x1001f5c0 ret
0x1001f5bd add esp, 4 ; ret
0x1001f5b8 call 0xffffd608 ; add esp, 4 ; ret
0x1001f5b7 push ecx ; call 0xffffd609 ; add esp, 4 ; ret
0x1001f5b6 ret ; push ecx ; call 0xffffd60a ; add esp, 4 ; ret
0x1001f5e7 ret
0x1001f5e5 les ecx, ptr [eax] ; ret
0x1001f5e4 add esp, 8 ; ret
0x1001f5df call 0xffffb2b1 ; add esp, 8 ; ret
0x1001f5de push eax ; call 0xffffb2b2 ; add esp, 8 ; ret
0x1001f5dd push ecx ; push eax ; call 0xffffb2b3 ; add esp, 8 ; ret
0x1001f637 ret
0x1001f636 pop ebx ; ret
0x1001f635 pop esi ; pop ebx ; ret
0x1001f634 pop edi ; pop esi ; pop ebx ; ret
0x1001f632 mov eax, esi ; pop edi ; pop esi ; pop ebx ; ret
0x1001f630 jne 0xffffffe5 ; mov eax, esi ; pop edi ; pop esi ; pop ebx ; ret
0x1001f62e test eax, eax ; jne 0xffffffe7 ; mov eax, esi ; pop edi ; pop esi ; pop ebx ; ret
0x1001f648 ret
0x1001f646 jne 3 ; ret
0x1001f644 test eax, eax ; jne 5 ; ret
0x1001f642 and al, 0xc ; test eax, eax ; jne 7 ; ret
0x1001f641 inc esp ; and al, 0xc ; test eax, eax ; jne 8 ; ret
0x1001f640 mov eax, dword ptr [esp + 0xc] ; test eax, eax ; jne 9 ; ret
0x1001f63f nop ; mov eax, dword ptr [esp + 0xc] ; test eax, eax ; jne 0xa ; ret
0x1001f63e nop ; nop ; mov eax, dword ptr [esp + 0xc] ; test eax, eax ; jne 0xb ; ret
0x1001f676 ret
0x1001f671 mov eax, 0x7fffffff ; ret
0x1001f670 push es ; mov eax, 0x7fffffff ; ret
0x1001f66f jne 8 ; mov eax, 0x7fffffff ; ret
0x1001f66d test eax, eax ; jne 0xa ; mov eax, 0x7fffffff ; ret
0x1001f67a ret
0x1001f677 add eax, -2 ; ret
0x1001f676 ret ; add eax, -2 ; ret
0x1001f675 jg 0xffffffc5 ; add eax, -2 ; ret
0x1001f671 mov eax, 0x7fffffff ; ret ; add eax, -2 ; ret
0x1001f670 push es ; mov eax, 0x7fffffff ; ret ; add eax, -2 ; ret
0x1001f6dd ret
0x1001f6db add al, 0x83 ; ret
0x1001f6da inc ebx ; add al, 0x83 ; ret
0x1001f6ea ret
0x1001f6e9 pop ebx ; ret
0x1001f6e8 pop ebp ; pop ebx ; ret
0x1001f6e7 pop esi ; pop ebp ; pop ebx ; ret
0x1001f6e6 pop edi ; pop esi ; pop ebp ; pop ebx ; ret
0x1001f6e5 mov al, 0x5f ; pop esi ; pop ebp ; pop ebx ; ret
0x1001f6e4 jne 0xffffffb2 ; pop edi ; pop esi ; pop ebp ; pop ebx ; ret
0x1001f6e3 sal byte ptr [ebp - 0x50], 0x5f ; pop esi ; pop ebp ; pop ebx ; ret
0x1001f6e2 test eax, eax ; jne 0xffffffb4 ; pop edi ; pop esi ; pop ebp ; pop ebx ; ret
0x1001f6e1 or byte ptr [ebp + 0x5fb075c0], al ; pop esi ; pop ebp ; pop ebx ; ret
0x1001f6e0 les ecx, ptr [eax] ; test eax, eax ; jne 0xffffffb6 ; pop edi ; pop esi ; pop ebp ; pop ebx ; ret
0x1001f6f2 ret
0x1001f6f1 pop ebx ; ret
0x1001f6f0 pop ebp ; pop ebx ; ret
0x1001f6ef pop esi ; pop ebp ; pop ebx ; ret
0x1001f6ee pop edi ; pop esi ; pop ebp ; pop ebx ; ret
0x1001f6ed lcall ptr [edi + 0x5e] ; pop ebp ; pop ebx ; ret
0x1001f6ec enter 0x5fff, 0x5e ; pop ebp ; pop ebx ; ret
0x1001f6eb or eax, 0xffffffff ; pop edi ; pop esi ; pop ebp ; pop ebx ; ret
0x1001f6ea ret ; or eax, 0xffffffff ; pop edi ; pop esi ; pop ebp ; pop ebx ; ret
0x1001f6e9 pop ebx ; ret ; or eax, 0xffffffff ; pop edi ; pop esi ; pop ebp ; pop ebx ; ret
0x1001f6e8 pop ebp ; pop ebx ; ret ; or eax, 0xffffffff ; pop edi ; pop esi ; pop ebp ; pop ebx ; ret
0x1001f6f9 ret
0x1001f6f8 pop ebx ; ret
0x1001f6f6 xor eax, eax ; pop ebx ; ret
0x1001f6f5 pop ebp ; xor eax, eax ; pop ebx ; ret
0x1001f6f4 pop esi ; pop ebp ; xor eax, eax ; pop ebx ; ret
0x1001f6f3 pop edi ; pop esi ; pop ebp ; xor eax, eax ; pop ebx ; ret
0x1001f6f2 ret ; pop edi ; pop esi ; pop ebp ; xor eax, eax ; pop ebx ; ret
0x1001f6f1 pop ebx ; ret ; pop edi ; pop esi ; pop ebp ; xor eax, eax ; pop ebx ; ret
0x1001f6f0 pop ebp ; pop ebx ; ret ; pop edi ; pop esi ; pop ebp ; xor eax, eax ; pop ebx ; ret
0x1001f6ef pop esi ; pop ebp ; pop ebx ; ret ; pop edi ; pop esi ; pop ebp ; xor eax, eax ; pop ebx ; ret
0x1001f726 ret
0x1001f725 pop ebx ; ret
0x1001f724 pop ebp ; pop ebx ; ret
0x1001f723 pop esi ; pop ebp ; pop ebx ; ret
0x1001f722 pop edi ; pop esi ; pop ebp ; pop ebx ; ret
0x1001f721 rcr byte ptr [edi + 0x5e], 0x5d ; pop ebx ; ret
0x1001f720 xor eax, eax ; pop edi ; pop esi ; pop ebp ; pop ebx ; ret
0x1001f71f pop es ; xor eax, eax ; pop edi ; pop esi ; pop ebp ; pop ebx ; ret
0x1001f71e je 9 ; xor eax, eax ; pop edi ; pop esi ; pop ebp ; pop ebx ; ret
0x1001f71d ja 0x76 ; pop es ; xor eax, eax ; pop edi ; pop esi ; pop ebp ; pop ebx ; ret
0x1001f71c cmp al, 0x77 ; je 0xb ; xor eax, eax ; pop edi ; pop esi ; pop ebp ; pop ebx ; ret
0x1001f825 ret
0x1001f824 pop ebx ; ret
0x1001f823 pop ebp ; pop ebx ; ret
0x1001f822 pop esi ; pop ebp ; pop ebx ; ret
0x1001f821 pop edi ; pop esi ; pop ebp ; pop ebx ; ret
0x1001f820 rcr byte ptr [edi + 0x5e], 0x5d ; pop ebx ; ret
0x1001f81f xor eax, eax ; pop edi ; pop esi ; pop ebp ; pop ebx ; ret
0x1001f81e pop es ; xor eax, eax ; pop edi ; pop esi ; pop ebp ; pop ebx ; ret
0x1001f81d jge 9 ; xor eax, eax ; pop edi ; pop esi ; pop ebp ; pop ebx ; ret
0x1001f81c leave ; jge 0xa ; xor eax, eax ; pop edi ; pop esi ; pop ebp ; pop ebx ; ret
0x1001f81b test ecx, ecx ; jge 0xb ; xor eax, eax ; pop edi ; pop esi ; pop ebp ; pop ebx ; ret
0x1001f85a ret
0x1001f859 pop ebx ; ret
0x1001f856 mov dword ptr [eax + 0x10], ecx ; pop ebx ; ret
0x1001f854 add byte ptr [eax], al ; mov dword ptr [eax + 0x10], ecx ; pop ebx ; ret
0x1001f852 add byte ptr [eax], al ; add byte ptr [eax], al ; mov dword ptr [eax + 0x10], ecx ; pop ebx ; ret
0x1001f8ef ret
0x1001f8ee pop ebp ; ret
0x1001f8ed in eax, 0x5d ; ret
0x1001f8ec mov esp, ebp ; pop ebp ; ret
0x1001f8eb pop ebx ; mov esp, ebp ; pop ebp ; ret
0x1001f8ea pop esi ; pop ebx ; mov esp, ebp ; pop ebp ; ret
0x1001f8e9 pop edi ; pop esi ; pop ebx ; mov esp, ebp ; pop ebp ; ret
0x1001f8e8 pop ebp ; pop edi ; pop esi ; pop ebx ; mov esp, ebp ; pop ebp ; ret
0x1001f8e7 add byte ptr [ebp + 0x5f], bl ; pop esi ; pop ebx ; mov esp, ebp ; pop ebp ; ret
0x1001f8e6 add byte ptr [eax], al ; pop ebp ; pop edi ; pop esi ; pop ebx ; mov esp, ebp ; pop ebp ; ret
0x1001f8e5 push ebx ; add byte ptr [eax], al ; pop ebp ; pop edi ; pop esi ; pop ebx ; mov esp, ebp ; pop ebp ; ret
0x1001f911 ret
0x1001f90f add byte ptr [eax], al ; ret
0x1001f90d add eax, dword ptr [eax] ; add byte ptr [eax], al ; ret
0x1001f90c mov eax, 3 ; ret
0x1001f90b add bh, byte ptr [eax + 3] ; ret
0x1001f909 adc byte ptr [ecx + 0x3b802], cl ; add byte ptr [eax], al ; ret
0x1001f908 and al, 0x10 ; mov dword ptr [edx], eax ; mov eax, 3 ; ret
0x1001f907 push esp ; and al, 0x10 ; mov dword ptr [edx], eax ; mov eax, 3 ; ret
0x1001f96b ret
0x1001f969 or bl, ch ; ret
0x1001f979 ret
0x1001f978 pop ebx ; ret
0x1001f977 pop esi ; pop ebx ; ret
0x1001f976 pop edi ; pop esi ; pop ebx ; ret
0x1001f975 or al, 0x5f ; pop esi ; pop ebx ; ret
0x1001f974 les ecx, ptr [edi + ebx*2] ; pop esi ; pop ebx ; ret
0x1001f973 add esp, 0xc ; pop edi ; pop esi ; pop ebx ; ret
0x1001f972 add byte ptr [ebx + 0x5e5f0cc4], al ; pop ebx ; ret
0x1001f971 add byte ptr [eax], al ; add esp, 0xc ; pop edi ; pop esi ; pop ebx ; ret
0x1001f970 add byte ptr [eax], al ; add byte ptr [ebx + 0x5e5f0cc4], al ; pop ebx ; ret
0x1001f96f add byte ptr [eax], al ; add byte ptr [eax], al ; add esp, 0xc ; pop edi ; pop esi ; pop ebx ; ret
0x1001f99c ret
0x1001f99a add byte ptr [eax], al ; ret
0x1001f998 add dword ptr [eax], eax ; add byte ptr [eax], al ; ret
0x1001f997 mov eax, 1 ; ret
0x1001f995 jne 7 ; mov eax, 1 ; ret
0x1001f994 or byte ptr [ebp + 5], dh ; mov eax, 1 ; ret
0x1001f993 push ecx ; or byte ptr [ebp + 5], dh ; mov eax, 1 ; ret
0x1001f992 cmp dword ptr [ecx + 8], edx ; jne 0xa ; mov eax, 1 ; ret
0x1001fa0f ret
0x1001fa0d mov eax, ecx ; ret
0x1001fa08 add al, al ; sete cl ; mov eax, ecx ; ret
0x1001fa05 cmp eax, 0xc0000005 ; sete cl ; mov eax, ecx ; ret
0x1001fa34 ret
0x1001fa33 pop ebx ; ret
0x1001fa30 lea eax, dword ptr [edx - 1] ; pop ebx ; ret
0x1001fa2f nop ; lea eax, dword ptr [edx - 1] ; pop ebx ; ret
0x1001fa2e add byte ptr [eax + 0x5bff428d], dl ; ret
0x1001fa2d add al, 0 ; nop ; lea eax, dword ptr [edx - 1] ; pop ebx ; ret
0x1001fa2c ret 4 ; nop ; lea eax, dword ptr [edx - 1] ; pop ebx ; ret
0x1001fa2b pop ebp ; ret 4 ; nop ; lea eax, dword ptr [edx - 1] ; pop ebx ; ret
0x1001fa2a in eax, 0x5d ; ret 4 ; nop ; lea eax, dword ptr [edx - 1] ; pop ebx ; ret
0x1001fa6f ret
0x1001fa6c fcom dword ptr [edi - 0x75] ; ret
0x1001fab7 ret
0x1001fab5 xor eax, eax ; ret
0x1001fab4 pop ebx ; xor eax, eax ; ret
0x1001fab3 pop edi ; pop ebx ; xor eax, eax ; ret
0x1001fab2 pop esi ; pop edi ; pop ebx ; xor eax, eax ; ret
0x1001fab1 les ebx, ptr [esi + 0x5f] ; pop ebx ; xor eax, eax ; ret
0x1001fab0 jne 0xffffffc6 ; pop esi ; pop edi ; pop ebx ; xor eax, eax ; ret
0x1001faaf xor byte ptr [ebp - 0x3c], 0x5e ; pop edi ; pop ebx ; xor eax, eax ; ret
0x1001faae add byte ptr [eax + 0x5f5ec475], al ; pop ebx ; xor eax, eax ; ret
0x1001faad add byte ptr [eax], al ; xor byte ptr [ebp - 0x3c], 0x5e ; pop edi ; pop ebx ; xor eax, eax ; ret
0x1001fae6 ret
0x1001fae5 pop ebx ; ret
0x1001fae2 lea eax, dword ptr [edx - 1] ; pop ebx ; ret
0x1001fae1 pop edi ; lea eax, dword ptr [edx - 1] ; pop ebx ; ret
0x1001fae0 pop esi ; pop edi ; lea eax, dword ptr [edx - 1] ; pop ebx ; ret
0x1001fadf xchg eax, esi ; pop esi ; pop edi ; lea eax, dword ptr [edx - 1] ; pop ebx ; ret
0x1001fade jmp 0xffffff98 ; pop esi ; pop edi ; lea eax, dword ptr [edx - 1] ; pop ebx ; ret
0x1001fadd aam 0xeb ; xchg eax, esi ; pop esi ; pop edi ; lea eax, dword ptr [edx - 1] ; pop ebx ; ret
0x1001fadc je 0xffffffd6 ; jmp 0xffffff9a ; pop esi ; pop edi ; lea eax, dword ptr [edx - 1] ; pop ebx ; ret
0x1001faed ret
0x1001faec pop ebx ; ret
0x1001faeb pop edi ; pop ebx ; ret
0x1001faea pop esi ; pop edi ; pop ebx ; ret
0x1001fae7 lea eax, dword ptr [edx - 2] ; pop esi ; pop edi ; pop ebx ; ret
0x1001fae6 ret ; lea eax, dword ptr [edx - 2] ; pop esi ; pop edi ; pop ebx ; ret
0x1001fae5 pop ebx ; ret ; lea eax, dword ptr [edx - 2] ; pop esi ; pop edi ; pop ebx ; ret
0x1001fae4 lcall ptr [ebx - 0x3d] ; lea eax, dword ptr [edx - 2] ; pop esi ; pop edi ; pop ebx ; ret
0x1001fae3 inc edx ; lcall ptr [ebx - 0x3d] ; lea eax, dword ptr [edx - 2] ; pop esi ; pop edi ; pop ebx ; ret
0x1001faf4 ret
0x1001faf3 pop ebx ; ret
0x1001faf2 pop edi ; pop ebx ; ret
0x1001faf1 pop esi ; pop edi ; pop ebx ; ret
0x1001faf0 std ; pop esi ; pop edi ; pop ebx ; ret
0x1001faef inc edx ; std ; pop esi ; pop edi ; pop ebx ; ret
0x1001faee lea eax, dword ptr [edx - 3] ; pop esi ; pop edi ; pop ebx ; ret
0x1001faed ret ; lea eax, dword ptr [edx - 3] ; pop esi ; pop edi ; pop ebx ; ret
0x1001faec pop ebx ; ret ; lea eax, dword ptr [edx - 3] ; pop esi ; pop edi ; pop ebx ; ret
0x1001faeb pop edi ; pop ebx ; ret ; lea eax, dword ptr [edx - 3] ; pop esi ; pop edi ; pop ebx ; ret
0x1001faea pop esi ; pop edi ; pop ebx ; ret ; lea eax, dword ptr [edx - 3] ; pop esi ; pop edi ; pop ebx ; ret
0x1001fafb ret
0x1001fafa pop ebx ; ret
0x1001faf9 pop edi ; pop ebx ; ret
0x1001faf8 pop esi ; pop edi ; pop ebx ; ret
0x1001faf7 cld ; pop esi ; pop edi ; pop ebx ; ret
0x1001faf6 inc edx ; cld ; pop esi ; pop edi ; pop ebx ; ret
0x1001faf5 lea eax, dword ptr [edx - 4] ; pop esi ; pop edi ; pop ebx ; ret
0x1001faf4 ret ; lea eax, dword ptr [edx - 4] ; pop esi ; pop edi ; pop ebx ; ret
0x1001faf3 pop ebx ; ret ; lea eax, dword ptr [edx - 4] ; pop esi ; pop edi ; pop ebx ; ret
0x1001faf2 pop edi ; pop ebx ; ret ; lea eax, dword ptr [edx - 4] ; pop esi ; pop edi ; pop ebx ; ret
0x1001faf1 pop esi ; pop edi ; pop ebx ; ret ; lea eax, dword ptr [edx - 4] ; pop esi ; pop edi ; pop ebx ; ret
0x1001fb3e ret
0x1001fb3c add byte ptr [eax], al ; ret
0x1001fb3a add byte ptr [eax], al ; add byte ptr [eax], al ; ret
0x1001fb37 mov dword ptr [ecx + 4], 0 ; ret
0x1001fb35 mov dword ptr [ecx], edx ; mov dword ptr [ecx + 4], 0 ; ret
0x1001fb34 add byte ptr [ecx + 0x441c711], cl ; add byte ptr [eax], al ; add byte ptr [eax], al ; ret
0x1001fb5c ret
0x1001fb5a add byte ptr [eax], al ; ret
0x1001fb58 add byte ptr [eax], al ; add byte ptr [eax], al ; ret
0x1001fb55 mov dword ptr [ecx + 4], 0 ; ret
0x1001fb53 mov dword ptr [ecx], edx ; mov dword ptr [ecx + 4], 0 ; ret
0x1001fb52 or byte ptr [ecx + 0x441c711], cl ; add byte ptr [eax], al ; add byte ptr [eax], al ; ret
0x1001fc4d ret
0x1001fc4c pop ecx ; ret
0x1001fc4b pop ebx ; pop ecx ; ret
0x1001fc4a pop ebp ; pop ebx ; pop ecx ; ret
0x1001fc49 pop esi ; pop ebp ; pop ebx ; pop ecx ; ret
0x1001fc48 pop edi ; pop esi ; pop ebp ; pop ebx ; pop ecx ; ret
0x1001fc47 add byte ptr [edi + 0x5e], bl ; pop ebp ; pop ebx ; pop ecx ; ret
0x1001fc46 add byte ptr [eax], al ; pop edi ; pop esi ; pop ebp ; pop ebx ; pop ecx ; ret
0x1001fc45 add byte ptr [eax], al ; add byte ptr [edi + 0x5e], bl ; pop ebp ; pop ebx ; pop ecx ; ret
0x1001fc44 add byte ptr [eax], al ; add byte ptr [eax], al ; pop edi ; pop esi ; pop ebp ; pop ebx ; pop ecx ; ret
0x1001fc43 push es ; add byte ptr [eax], al ; add byte ptr [eax], al ; pop edi ; pop esi ; pop ebp ; pop ebx ; pop ecx ; ret
0x1001fced ret
0x1001fceb les ecx, ptr [eax] ; ret
0x1001fcea add esp, 8 ; ret
0x1001fce9 pop esi ; add esp, 8 ; ret
0x1001fce8 adc byte ptr [esi - 0x7d], bl ; les ecx, ptr [eax] ; ret
0x1001fce7 add al, 0x10 ; pop esi ; add esp, 8 ; ret
0x1001fce6 popfd ; add al, 0x10 ; pop esi ; add esp, 8 ; ret
0x1001fce5 cmp al, 0x9d ; add al, 0x10 ; pop esi ; add esp, 8 ; ret
0x1001fce4 mov dword ptr [0x10049d3c], eax ; pop esi ; add esp, 8 ; ret
0x1001fce3 pop edi ; mov dword ptr [0x10049d3c], eax ; pop esi ; add esp, 8 ; ret
0x1001fefe ret
0x1001fefc mov dword ptr [eax], ecx ; ret
0x1001fefb inc ecx ; mov dword ptr [eax], ecx ; ret
0x1001fefa pop ebx ; inc ecx ; mov dword ptr [eax], ecx ; ret
0x1001fef9 or byte ptr [ebx + 0x41], bl ; mov dword ptr [eax], ecx ; ret
0x1001fef8 mov ecx, dword ptr [eax] ; pop ebx ; inc ecx ; mov dword ptr [eax], ecx ; ret
0x1001fef7 pop ebp ; mov ecx, dword ptr [eax] ; pop ebx ; inc ecx ; mov dword ptr [eax], ecx ; ret
0x1001fef6 pop esi ; pop ebp ; mov ecx, dword ptr [eax] ; pop ebx ; inc ecx ; mov dword ptr [eax], ecx ; ret
0x1001fef5 pop edi ; pop esi ; pop ebp ; mov ecx, dword ptr [eax] ; pop ebx ; inc ecx ; mov dword ptr [eax], ecx ; ret
0x1001fef4 and byte ptr [edi + 0x5e], bl ; pop ebp ; mov ecx, dword ptr [eax] ; pop ebx ; inc ecx ; mov dword ptr [eax], ecx ; ret
0x1001ff40 ret
0x1001ff3d add esp, 0x14 ; ret
0x1001ff3c pop ebx ; add esp, 0x14 ; ret
0x1001ff3b pop ebp ; pop ebx ; add esp, 0x14 ; ret
0x1001ff3a pop esi ; pop ebp ; pop ebx ; add esp, 0x14 ; ret
0x1001ff39 pop edi ; pop esi ; pop ebp ; pop ebx ; add esp, 0x14 ; ret
0x1001ff38 rcr byte ptr [edi + 0x5e], 0x5d ; pop ebx ; add esp, 0x14 ; ret
0x1001ff37 xor eax, eax ; pop edi ; pop esi ; pop ebp ; pop ebx ; add esp, 0x14 ; ret
0x1001ff36 add al, 0x33 ; rcr byte ptr [edi + 0x5e], 0x5d ; pop ebx ; add esp, 0x14 ; ret
0x10020034 ret
0x10020031 add esp, 0x14 ; ret
0x10020030 pop ebx ; add esp, 0x14 ; ret
0x1002002f pop ebp ; pop ebx ; add esp, 0x14 ; ret
0x1002002e pop esi ; pop ebp ; pop ebx ; add esp, 0x14 ; ret
0x1002002d pop edi ; pop esi ; pop ebp ; pop ebx ; add esp, 0x14 ; ret
0x1002002c rcr byte ptr [edi + 0x5e], 0x5d ; pop ebx ; add esp, 0x14 ; ret
0x1002002b xor eax, eax ; pop edi ; pop esi ; pop ebp ; pop ebx ; add esp, 0x14 ; ret
0x1002002a add al, 0x33 ; rcr byte ptr [edi + 0x5e], 0x5d ; pop ebx ; add esp, 0x14 ; ret
0x10020055 ret
0x10020052 add esp, 0x14 ; ret
0x10020051 pop ebx ; add esp, 0x14 ; ret
0x10020050 pop ebp ; pop ebx ; add esp, 0x14 ; ret
0x1002004f pop esi ; pop ebp ; pop ebx ; add esp, 0x14 ; ret
0x1002004e pop edi ; pop esi ; pop ebp ; pop ebx ; add esp, 0x14 ; ret
0x1002004d rcr byte ptr [edi + 0x5e], 0x5d ; pop ebx ; add esp, 0x14 ; ret
0x1002004c xor eax, eax ; pop edi ; pop esi ; pop ebp ; pop ebx ; add esp, 0x14 ; ret
0x1002004b add al, 0x33 ; rcr byte ptr [edi + 0x5e], 0x5d ; pop ebx ; add esp, 0x14 ; ret
0x1002006a ret
0x10020067 add esp, 0x14 ; ret
0x10020066 pop ebx ; add esp, 0x14 ; ret
0x10020065 pop ebp ; pop ebx ; add esp, 0x14 ; ret
0x10020064 pop esi ; pop ebp ; pop ebx ; add esp, 0x14 ; ret
0x10020063 pop edi ; pop esi ; pop ebp ; pop ebx ; add esp, 0x14 ; ret
0x10020062 lcall ptr [edi + 0x5e] ; pop ebp ; pop ebx ; add esp, 0x14 ; ret
0x10020061 enter 0x5fff, 0x5e ; pop ebp ; pop ebx ; add esp, 0x14 ; ret
0x10020060 or eax, 0xffffffff ; pop edi ; pop esi ; pop ebp ; pop ebx ; add esp, 0x14 ; ret
0x1002011a ret
0x10020117 add esp, 0x14 ; ret
0x10020116 pop ebx ; add esp, 0x14 ; ret
0x10020115 pop ebp ; pop ebx ; add esp, 0x14 ; ret
0x10020114 pop esi ; pop ebp ; pop ebx ; add esp, 0x14 ; ret
0x10020113 pop edi ; pop esi ; pop ebp ; pop ebx ; add esp, 0x14 ; ret
0x10020112 rcr byte ptr [edi + 0x5e], 0x5d ; pop ebx ; add esp, 0x14 ; ret
0x10020111 xor eax, eax ; pop edi ; pop esi ; pop ebp ; pop ebx ; add esp, 0x14 ; ret
0x10020110 add al, 0x33 ; rcr byte ptr [edi + 0x5e], 0x5d ; pop ebx ; add esp, 0x14 ; ret
0x1002016c ret
0x1002016a add byte ptr [eax], al ; ret
0x10020168 add dword ptr [eax], eax ; add byte ptr [eax], al ; ret
0x10020166 add al, 0x10 ; add dword ptr [eax], eax ; add byte ptr [eax], al ; ret
0x10020165 mov al, byte ptr [0x11004] ; add byte ptr [eax], al ; ret
0x10020164 movsb byte ptr es:[edi], byte ptr [esi] ; mov al, byte ptr [0x11004] ; add byte ptr [eax], al ; ret
0x10020163 add eax, 0x1004a0a4 ; add dword ptr [eax], eax ; add byte ptr [eax], al ; ret
0x10020162 mov dword ptr [0x1004a0a4], 1 ; ret
0x10020192 ret
0x10020190 add byte ptr [eax], al ; ret
0x1002018d mov eax, 0x411 ; ret
0x1002018c adc byte ptr [eax + 0x411], bh ; ret
0x1002018b add dl, byte ptr [eax] ; mov eax, 0x411 ; ret
0x1002018a add dword ptr [edx], eax ; adc byte ptr [eax + 0x411], bh ; ret
0x10020189 test al, 1 ; add dl, byte ptr [eax] ; mov eax, 0x411 ; ret
0x10020198 ret
0x10020196 add byte ptr [eax], al ; ret
0x10020194 add al, 8 ; add byte ptr [eax], al ; ret
0x10020193 mov eax, 0x804 ; ret
0x10020192 ret ; mov eax, 0x804 ; ret
0x10020191 add bl, al ; mov eax, 0x804 ; ret
0x10020190 add byte ptr [eax], al ; ret ; mov eax, 0x804 ; ret
0x1002018f add al, 0 ; add bl, al ; mov eax, 0x804 ; ret
0x1002018e adc dword ptr [eax + eax], eax ; add bl, al ; mov eax, 0x804 ; ret
0x1002019e ret
0x1002019c add byte ptr [eax], al ; ret
0x10020199 mov eax, 0x412 ; ret
0x10020198 ret ; mov eax, 0x412 ; ret
0x10020197 add bl, al ; mov eax, 0x412 ; ret
0x10020196 add byte ptr [eax], al ; ret ; mov eax, 0x412 ; ret
0x10020195 or byte ptr [eax], al ; add bl, al ; mov eax, 0x412 ; ret
0x10020194 add al, 8 ; add byte ptr [eax], al ; ret ; mov eax, 0x412 ; ret
0x100201a4 ret
0x100201a2 add byte ptr [eax], al ; ret
0x100201a0 add al, 4 ; add byte ptr [eax], al ; ret
0x1002019f mov eax, 0x404 ; ret
0x1002019e ret ; mov eax, 0x404 ; ret
0x1002019d add bl, al ; mov eax, 0x404 ; ret
0x1002019c add byte ptr [eax], al ; ret ; mov eax, 0x404 ; ret
0x1002019b add al, 0 ; add bl, al ; mov eax, 0x404 ; ret
0x1002019a adc al, byte ptr [eax + eax] ; add bl, al ; mov eax, 0x404 ; ret
0x100201a7 ret
0x100201a5 xor eax, eax ; ret
0x100201a4 ret ; xor eax, eax ; ret
0x100201a3 add bl, al ; xor eax, eax ; ret
0x100201a2 add byte ptr [eax], al ; ret ; xor eax, eax ; ret
0x100201a1 add al, 0 ; add bl, al ; xor eax, eax ; ret
0x100201a0 add al, 4 ; add byte ptr [eax], al ; ret ; xor eax, eax ; ret
0x1002019f mov eax, 0x404 ; ret ; xor eax, eax ; ret
0x1002019e ret ; mov eax, 0x404 ; ret ; xor eax, eax ; ret
0x1002019d add bl, al ; mov eax, 0x404 ; ret ; xor eax, eax ; ret
0x100201fc ret
0x100201fa add al, 0x10 ; ret
0x100201f7 mov dword ptr [0x1004a0a0], eax ; ret
0x100201f6 adc byte ptr [ebx + 0x1004a0a0], ah ; ret
0x100201f5 add al, 0x10 ; mov dword ptr [0x1004a0a0], eax ; ret
0x100201f2 mov dword ptr [0x1004a09c], eax ; mov dword ptr [0x1004a0a0], eax ; ret
0x10020207 add esp, 4 ; ret
0x10020202 call 0xfffffcfe ; add esp, 4 ; ret
0x10020201 std ; call 0xfffffcff ; add esp, 4 ; ret
0x10020200 push -3 ; call 0xfffffd00 ; add esp, 4 ; ret
0x100202de ret
0x100202e3 ret
0x100202e2 pop ebx ; ret
0x100202e1 pop ebp ; pop ebx ; ret
0x100202e0 pop esi ; pop ebp ; pop ebx ; ret
0x100202df pop edi ; pop esi ; pop ebp ; pop ebx ; ret
0x100202de ret ; pop edi ; pop esi ; pop ebp ; pop ebx ; ret
0x100202dd mov eax, ebx ; pop edi ; pop esi ; pop ebp ; pop ebx ; ret
0x100202dc adc byte ptr [ebx + 0x5d5e5fc3], cl ; pop ebx ; ret
0x100202db add al, 0x10 ; mov eax, ebx ; pop edi ; pop esi ; pop ebp ; pop ebx ; ret
0x100202da rol byte ptr [eax + edx], cl ; mov eax, ebx ; pop edi ; pop esi ; pop ebp ; pop ebx ; ret
0x100202d9 xor al, 0xd2 ; add al, 0x10 ; mov eax, ebx ; pop edi ; pop esi ; pop ebp ; pop ebx ; ret
0x100202f1 ret
0x100202f0 pop ebx ; ret
0x100202ef pop ebp ; pop ebx ; ret
0x100202ee pop esi ; pop ebp ; pop ebx ; ret
0x100202ed pop edi ; pop esi ; pop ebp ; pop ebx ; ret
0x100202ec rcr byte ptr [edi + 0x5e], 0x5d ; pop ebx ; ret
0x100202eb xor eax, eax ; pop edi ; pop esi ; pop ebp ; pop ebx ; ret
0x100202ea adc byte ptr [ebx], dh ; rcr byte ptr [edi + 0x5e], 0x5d ; pop ebx ; ret
0x100202e9 add al, 0x10 ; xor eax, eax ; pop edi ; pop esi ; pop ebp ; pop ebx ; ret
0x100202e8 rol byte ptr [eax + edx], cl ; xor eax, eax ; pop edi ; pop esi ; pop ebp ; pop ebx ; ret
0x100202e7 xor al, 0xd2 ; add al, 0x10 ; xor eax, eax ; pop edi ; pop esi ; pop ebp ; pop ebx ; ret
0x10020306 ret
0x1002031c ret
0x1002033c ret
0x1002033b pop ebx ; ret
0x1002033a pop ebp ; pop ebx ; ret
0x10020339 pop esi ; pop ebp ; pop ebx ; ret
0x10020338 pop edi ; pop esi ; pop ebp ; pop ebx ; ret
0x10020337 rcr byte ptr [edi + 0x5e], 0x5d ; pop ebx ; ret
0x10020336 xor eax, eax ; pop edi ; pop esi ; pop ebp ; pop ebx ; ret
0x10020335 adc byte ptr [ebx], dh ; rcr byte ptr [edi + 0x5e], 0x5d ; pop ebx ; ret
0x10020334 add al, 0x10 ; xor eax, eax ; pop edi ; pop esi ; pop ebp ; pop ebx ; ret
0x10020333 rol byte ptr [eax + edx], cl ; xor eax, eax ; pop edi ; pop esi ; pop ebp ; pop ebx ; ret
0x10020332 xor dl, dl ; add al, 0x10 ; xor eax, eax ; pop edi ; pop esi ; pop ebp ; pop ebx ; ret
0x1002035e ret
0x1002035d pop ebx ; ret
0x1002035c pop ebp ; pop ebx ; ret
0x1002035b pop esi ; pop ebp ; pop ebx ; ret
0x1002035a pop edi ; pop esi ; pop ebp ; pop ebx ; ret
0x10020359 lds ebx, ptr [edi + 0x5e] ; pop ebp ; pop ebx ; ret
0x10020358 mov eax, ebp ; pop edi ; pop esi ; pop ebp ; pop ebx ; ret
0x10020357 adc byte ptr [ebx + 0x5d5e5fc5], cl ; pop ebx ; ret
0x10020356 add al, 0x10 ; mov eax, ebp ; pop edi ; pop esi ; pop ebp ; pop ebx ; ret
0x10020355 rol byte ptr [eax + edx], cl ; mov eax, ebp ; pop edi ; pop esi ; pop ebp ; pop ebx ; ret
0x10020354 xor dl, dl ; add al, 0x10 ; mov eax, ebp ; pop edi ; pop esi ; pop ebp ; pop ebx ; ret
0x10020365 ret
0x10020364 pop ebx ; ret
0x10020362 xor eax, eax ; pop ebx ; ret
0x10020361 pop ebp ; xor eax, eax ; pop ebx ; ret
0x10020360 pop esi ; pop ebp ; xor eax, eax ; pop ebx ; ret
0x1002035f pop edi ; pop esi ; pop ebp ; xor eax, eax ; pop ebx ; ret
0x1002035e ret ; pop edi ; pop esi ; pop ebp ; xor eax, eax ; pop ebx ; ret
0x1002035d pop ebx ; ret ; pop edi ; pop esi ; pop ebp ; xor eax, eax ; pop ebx ; ret
0x1002035c pop ebp ; pop ebx ; ret ; pop edi ; pop esi ; pop ebp ; xor eax, eax ; pop ebx ; ret
0x1002035b pop esi ; pop ebp ; pop ebx ; ret ; pop edi ; pop esi ; pop ebp ; xor eax, eax ; pop ebx ; ret
0x10020379 ret
0x10020377 add al, 0x10 ; ret
0x10020376 popfd ; add al, 0x10 ; ret
0x10020374 mov dword ptr [0x10049dc0], eax ; ret
0x10020372 and al, 4 ; mov dword ptr [0x10049dc0], eax ; ret
0x10020371 inc esp ; and al, 4 ; mov dword ptr [0x10049dc0], eax ; ret
0x10020370 mov eax, dword ptr [esp + 4] ; mov dword ptr [0x10049dc0], eax ; ret
0x1002036f nop ; mov eax, dword ptr [esp + 4] ; mov dword ptr [0x10049dc0], eax ; ret
0x100203bc ret
0x100203b9 add esp, 4 ; ret
0x100203b7 add byte ptr [eax], al ; add esp, 4 ; ret
0x100203b4 call 0xc ; add esp, 4 ; ret
0x100203b2 add byte ptr [eax], al ; call 0xe ; add esp, 4 ; ret
0x1002054c ret
0x1002054a add byte ptr [eax], al ; ret
0x10020548 test al, 1 ; add byte ptr [eax], al ; ret
0x10020546 add esp, 0x1a8 ; ret
0x10020545 pop ebx ; add esp, 0x1a8 ; ret
0x10020544 pop ebp ; pop ebx ; add esp, 0x1a8 ; ret
0x10020543 pop esi ; pop ebp ; pop ebx ; add esp, 0x1a8 ; ret
0x10020542 pop edi ; pop esi ; pop ebp ; pop ebx ; add esp, 0x1a8 ; ret
0x10020595 ret
0x10020593 add byte ptr [eax], al ; ret
0x10020591 test al, 1 ; add byte ptr [eax], al ; ret
0x1002058f add esp, 0x1a8 ; ret
0x1002058e pop ebx ; add esp, 0x1a8 ; ret
0x1002058d pop ebp ; pop ebx ; add esp, 0x1a8 ; ret
0x1002058c pop esi ; pop ebp ; pop ebx ; add esp, 0x1a8 ; ret
0x1002058b pop edi ; pop esi ; pop ebp ; pop ebx ; add esp, 0x1a8 ; ret
0x100205c5 ret
0x100205c4 pop esi ; ret
0x100205c2 add byte ptr [eax], al ; pop esi ; ret
0x100205c0 add dword ptr [eax], eax ; add byte ptr [eax], al ; pop esi ; ret
0x100205bf mov eax, 1 ; pop esi ; ret
0x100205be pop es ; mov eax, 1 ; pop esi ; ret
0x100205bd jne 9 ; mov eax, 1 ; pop esi ; ret
0x100205bc div byte ptr [ebp + 7] ; mov eax, 1 ; pop esi ; ret
0x100205bb test esi, esi ; jne 0xb ; mov eax, 1 ; pop esi ; ret
0x100205eb ret
0x100205ea pop esi ; ret
0x100205e8 add byte ptr [eax], al ; pop esi ; ret
0x100205e6 add dword ptr [eax], eax ; add byte ptr [eax], al ; pop esi ; ret
0x100205e5 mov eax, 1 ; pop esi ; ret
0x100205e4 add al, 0xb8 ; add dword ptr [eax], eax ; add byte ptr [eax], al ; pop esi ; ret
0x100205e3 les eax, ptr [eax + edi*4] ; add dword ptr [eax], eax ; add byte ptr [eax], al ; pop esi ; ret
0x100205e2 add esp, 4 ; mov eax, 1 ; pop esi ; ret
0x10020618 ret
0x10020617 pop esi ; ret
0x10020615 xor eax, eax ; pop esi ; ret
0x10020613 add al, 0x10 ; xor eax, eax ; pop esi ; ret
0x10020612 mov al, byte ptr [0xc0331004] ; pop esi ; ret
0x10020611 mov ah, 0xa0 ; add al, 0x10 ; xor eax, eax ; pop esi ; ret
0x10020610 xor eax, 0x1004a0b4 ; xor eax, eax ; pop esi ; ret
0x1002060f mov dword ptr [0x1004a0b4], esi ; xor eax, eax ; pop esi ; ret
0x1002060e add al, 0x89 ; xor eax, 0x1004a0b4 ; xor eax, eax ; pop esi ; ret
0x1002064d ret
0x1002064c pop esi ; ret
0x1002064a xor eax, eax ; pop esi ; ret
0x10020648 add byte ptr [eax], al ; xor eax, eax ; pop esi ; ret
0x10020646 add byte ptr [eax], al ; add byte ptr [eax], al ; xor eax, eax ; pop esi ; ret
0x10020644 add al, 0x10 ; add byte ptr [eax], al ; add byte ptr [eax], al ; xor eax, eax ; pop esi ; ret
0x10020643 mov al, byte ptr [0x1004] ; add byte ptr [eax], al ; xor eax, eax ; pop esi ; ret
0x10020673 ret
0x10020672 pop ebx ; ret
0x10020671 pop ebp ; pop ebx ; ret
0x10020670 pop edi ; pop ebp ; pop ebx ; ret
0x1002066f lcall ptr [edi + 0x5d] ; pop ebx ; ret
0x1002066e enter 0x5fff, 0x5d ; pop ebx ; ret
0x1002066d or eax, 0xffffffff ; pop edi ; pop ebp ; pop ebx ; ret
0x1002066c pop es ; or eax, 0xffffffff ; pop edi ; pop ebp ; pop ebx ; ret
0x1002066b jne 9 ; or eax, 0xffffffff ; pop edi ; pop ebp ; pop ebx ; ret
0x1002066a push dword ptr [ebp + 7] ; or eax, 0xffffffff ; pop edi ; pop ebp ; pop ebx ; ret
0x10020669 test edi, edi ; jne 0xb ; or eax, 0xffffffff ; pop edi ; pop ebp ; pop ebx ; ret
0x100209c0 ret
0x100209bf pop ebx ; ret
0x100209be pop ebp ; pop ebx ; ret
0x100209bd pop edi ; pop ebp ; pop ebx ; ret
0x100209bc pop esi ; pop edi ; pop ebp ; pop ebx ; ret
0x100209ba mov eax, esi ; pop esi ; pop edi ; pop ebp ; pop ebx ; ret
0x100209b8 or esi, eax ; mov eax, esi ; pop esi ; pop edi ; pop ebp ; pop ebx ; ret
0x100209b6 les ecx, ptr [eax] ; or esi, eax ; mov eax, esi ; pop esi ; pop edi ; pop ebp ; pop ebx ; ret
0x10020c02 ret
0x10020c01 pop esi ; ret
0x10020c00 add al, 0x5e ; ret
0x10020bff les eax, ptr [esi + ebx*2] ; ret
0x10020bfe add esp, 4 ; pop esi ; ret
0x10020bf9 call 0xffff8b57 ; add esp, 4 ; pop esi ; ret
0x10020bf8 push eax ; call 0xffff8b58 ; add esp, 4 ; pop esi ; ret
0x10020c6e ret
0x10020c6c les ecx, ptr [eax] ; ret
0x10020c6b add esp, 8 ; ret
0x10020c6a pop esi ; add esp, 8 ; ret
0x10020c69 pop edi ; pop esi ; add esp, 8 ; ret
0x10020c67 mov eax, esi ; pop edi ; pop esi ; add esp, 8 ; ret
0x10020c66 or byte ptr [ebx - 0x7ca1a03a], cl ; les ecx, ptr [eax] ; ret
0x10020c65 je 0xa ; mov eax, esi ; pop edi ; pop esi ; add esp, 8 ; ret
0x10020d05 ret
0x10020d03 les ecx, ptr [eax] ; ret
0x10020d02 add esp, 8 ; ret
0x10020d01 pop esi ; add esp, 8 ; ret
0x10020d00 pop edi ; pop esi ; add esp, 8 ; ret
0x10020cff rcr byte ptr [edi + 0x5e], 0x83 ; les ecx, ptr [eax] ; ret
0x10020cfe xor eax, eax ; pop edi ; pop esi ; add esp, 8 ; ret
0x10020cfd add al, 0x33 ; rcr byte ptr [edi + 0x5e], 0x83 ; les ecx, ptr [eax] ; ret
0x10020cfc les eax, ptr [ebx + esi] ; rcr byte ptr [edi + 0x5e], 0x83 ; les ecx, ptr [eax] ; ret
0x10020cfb add esp, 4 ; xor eax, eax ; pop edi ; pop esi ; add esp, 8 ; ret
0x10020d1c ret
0x10020d1a idiv byte ptr [ebx] ; ret
0x10020dbd ret
0x10020dbc pop ebx ; ret
0x10020dbb pop esi ; pop ebx ; ret
0x10020dba pop edi ; pop esi ; pop ebx ; ret
0x10020db9 lcall ptr [edi + 0x5e] ; pop ebx ; ret
0x10020db8 enter 0x5fff, 0x5e ; pop ebx ; ret
0x10020db7 or eax, 0xffffffff ; pop edi ; pop esi ; pop ebx ; ret
0x10020db6 adc byte ptr [ebx + 0x5e5fffc8], al ; pop ebx ; ret
0x10020db5 add al, 0x10 ; or eax, 0xffffffff ; pop edi ; pop esi ; pop ebx ; ret
0x10020db4 mov al, byte ptr [0xc8831004] ; lcall ptr [edi + 0x5e] ; pop ebx ; ret
0x10020db3 shl byte ptr [eax - 0x377ceffc], 0xff ; pop edi ; pop esi ; pop ebx ; ret
0x10020e82 ret
0x10020e80 add bh, byte ptr [ebx] ; ret
0x10020e8b ret
0x10020e8a pop ebx ; ret
0x10020e89 pop esi ; pop ebx ; ret
0x10020e88 pop edi ; pop esi ; pop ebx ; ret
0x10020e87 lcall ptr [edi + 0x5e] ; pop ebx ; ret
0x10020e86 enter 0x5fff, 0x5e ; pop ebx ; ret
0x10020e85 or eax, 0xffffffff ; pop edi ; pop esi ; pop ebx ; ret
0x10020e84 pop es ; or eax, 0xffffffff ; pop edi ; pop esi ; pop ebx ; ret
0x10020e83 jne 9 ; or eax, 0xffffffff ; pop edi ; pop esi ; pop ebx ; ret
0x10020e82 ret ; jne 0xa ; or eax, 0xffffffff ; pop edi ; pop esi ; pop ebx ; ret
0x10020e81 cmp eax, ebx ; jne 0xb ; or eax, 0xffffffff ; pop edi ; pop esi ; pop ebx ; ret
0x10020eb2 ret
0x10020eb0 add al, 0x3b ; ret
0x10020eaf inc eax ; add al, 0x3b ; ret
0x10020eaa sub byte ptr [esi + 0x408b1002], dh ; add al, 0x3b ; ret
0x10020ea8 add al, 0xa1 ; sub byte ptr [esi + 0x408b1002], dh ; add al, 0x3b ; ret
0x10020ebb ret
0x10020eba pop ebx ; ret
0x10020eb9 pop esi ; pop ebx ; ret
0x10020eb8 pop edi ; pop esi ; pop ebx ; ret
0x10020eb7 lcall ptr [edi + 0x5e] ; pop ebx ; ret
0x10020eb6 enter 0x5fff, 0x5e ; pop ebx ; ret
0x10020eb5 or eax, 0xffffffff ; pop edi ; pop esi ; pop ebx ; ret
0x10020eb4 pop es ; or eax, 0xffffffff ; pop edi ; pop esi ; pop ebx ; ret
0x10020eb3 jne 9 ; or eax, 0xffffffff ; pop edi ; pop esi ; pop ebx ; ret
0x10020eb2 ret ; jne 0xa ; or eax, 0xffffffff ; pop edi ; pop esi ; pop ebx ; ret
0x10020eb1 cmp eax, ebx ; jne 0xb ; or eax, 0xffffffff ; pop edi ; pop esi ; pop ebx ; ret
0x10020edb ret
0x10020ed9 or byte ptr [ebx], bh ; ret
0x10020ed8 inc edx ; or byte ptr [ebx], bh ; ret
0x10020ed3 sub byte ptr [esi + 0x428b1002], dh ; or byte ptr [ebx], bh ; ret
0x10020ee4 ret
0x10020ee3 pop ebx ; ret
0x10020ee2 pop esi ; pop ebx ; ret
0x10020ee1 pop edi ; pop esi ; pop ebx ; ret
0x10020ee0 lcall ptr [edi + 0x5e] ; pop ebx ; ret
0x10020edf enter 0x5fff, 0x5e ; pop ebx ; ret
0x10020ede or eax, 0xffffffff ; pop edi ; pop esi ; pop ebx ; ret
0x10020edd pop es ; or eax, 0xffffffff ; pop edi ; pop esi ; pop ebx ; ret
0x10020edc jne 9 ; or eax, 0xffffffff ; pop edi ; pop esi ; pop ebx ; ret
0x10020edb ret ; jne 0xa ; or eax, 0xffffffff ; pop edi ; pop esi ; pop ebx ; ret
0x10020eda cmp eax, ebx ; jne 0xb ; or eax, 0xffffffff ; pop edi ; pop esi ; pop ebx ; ret
0x10020f05 ret
0x10020f03 add dl, byte ptr [eax] ; ret
0x10020f00 adc eax, 0x10028420 ; ret
0x10020eff mov byte ptr [0x10028420], dl ; ret
0x10020efd add byte ptr [eax], al ; mov byte ptr [0x10028420], dl ; ret
0x10020efb add dword ptr [eax], eax ; add byte ptr [eax], al ; mov byte ptr [0x10028420], dl ; ret
0x10020f2d ret
0x10020f2c in eax, dx ; ret
0x10020f2b jne 0xffffffef ; ret
0x10020f29 test al, al ; jne 0xfffffff1 ; ret
0x10020f27 mov al, byte ptr [ecx] ; test al, al ; jne 0xfffffff3 ; ret
0x10020f26 inc ecx ; mov al, byte ptr [ecx] ; test al, al ; jne 0xfffffff4 ; ret
0x10020f24 mov byte ptr [ecx], al ; inc ecx ; mov al, byte ptr [ecx] ; test al, al ; jne 0xfffffff6 ; ret
0x10020f23 xor byte ptr [eax + 0x18a4101], cl ; test al, al ; jne 0xfffffff7 ; ret
0x10020f76 ret
0x10020f75 pop esi ; ret
0x10020f73 add byte ptr [eax], al ; pop esi ; ret
0x10020f71 add dword ptr [eax], eax ; add byte ptr [eax], al ; pop esi ; ret
0x10020f70 mov eax, 1 ; pop esi ; ret
0x10020f6f pop es ; mov eax, 1 ; pop esi ; ret
0x10020f6e jne 9 ; mov eax, 1 ; pop esi ; ret
0x10020f6d div byte ptr [ebp + 7] ; mov eax, 1 ; pop esi ; ret
0x10020f6c test esi, esi ; jne 0xb ; mov eax, 1 ; pop esi ; ret
0x10020f79 ret
0x10020f9c ret
0x10020f9b pop esi ; ret
0x10020f99 add byte ptr [eax], al ; pop esi ; ret
0x10020f97 add dword ptr [eax], eax ; add byte ptr [eax], al ; pop esi ; ret
0x10020f96 mov eax, 1 ; pop esi ; ret
0x10020f95 add al, 0xb8 ; add dword ptr [eax], eax ; add byte ptr [eax], al ; pop esi ; ret
0x10020f94 les eax, ptr [eax + edi*4] ; add dword ptr [eax], eax ; add byte ptr [eax], al ; pop esi ; ret
0x10020f93 add esp, 4 ; mov eax, 1 ; pop esi ; ret
0x10020fea ret
0x10020fe9 pop esi ; ret
0x10020fe7 xor eax, eax ; pop esi ; ret
0x10020fe5 add al, 0x10 ; xor eax, eax ; pop esi ; ret
0x10020fe4 mov al, byte ptr [0xc0331004] ; pop esi ; ret
0x10020fe3 les esp, ptr [eax - 0x3fcceffc] ; pop esi ; ret
0x10020fe2 xor eax, 0x1004a0c4 ; xor eax, eax ; pop esi ; ret
0x10020fe1 mov dword ptr [0x1004a0c4], esi ; xor eax, eax ; pop esi ; ret
0x10020fe0 add al, 0x89 ; xor eax, 0x1004a0c4 ; xor eax, eax ; pop esi ; ret
0x1002103e ret
0x1002103d pop esi ; ret
0x1002103b xor eax, eax ; pop esi ; ret
0x10021039 add byte ptr [eax], al ; xor eax, eax ; pop esi ; ret
0x10021037 add byte ptr [eax], al ; add byte ptr [eax], al ; xor eax, eax ; pop esi ; ret
0x10021035 add al, 0x10 ; add byte ptr [eax], al ; add byte ptr [eax], al ; xor eax, eax ; pop esi ; ret
0x10021034 mov al, byte ptr [0x1004] ; add byte ptr [eax], al ; xor eax, eax ; pop esi ; ret
0x10021058 ret
0x10021057 pop ebx ; ret
0x10021056 pop esi ; pop ebx ; ret
0x10021055 lcall ptr [esi + 0x5b] ; ret
0x10021054 enter 0x5eff, 0x5b ; ret
0x10021053 or eax, 0xffffffff ; pop esi ; pop ebx ; ret
0x10021052 push es ; or eax, 0xffffffff ; pop esi ; pop ebx ; ret
0x10021051 jne 8 ; or eax, 0xffffffff ; pop esi ; pop ebx ; ret
0x1002104f test ebx, ebx ; jne 0xa ; or eax, 0xffffffff ; pop esi ; pop ebx ; ret
0x1002104e adc byte ptr [ebp - 0x7cf98a25], al ; enter 0x5eff, 0x5b ; ret
0x10021170 ret
0x1002118a ret
0x10021189 pop ebx ; ret
0x10021188 pop esi ; pop ebx ; ret
0x10021187 pop edi ; pop esi ; pop ebx ; ret
0x10021186 pop ebp ; pop edi ; pop esi ; pop ebx ; ret
0x10021184 mov eax, edi ; pop ebp ; pop edi ; pop esi ; pop ebx ; ret
0x10021183 clc ; mov eax, edi ; pop ebp ; pop edi ; pop esi ; pop ebx ; ret
0x10021182 or edi, eax ; mov eax, edi ; pop ebp ; pop edi ; pop esi ; pop ebx ; ret
0x10021181 adc byte ptr [ebx], cl ; clc ; mov eax, edi ; pop ebp ; pop edi ; pop esi ; pop ebx ; ret
0x10021180 les edx, ptr [eax] ; or edi, eax ; mov eax, edi ; pop ebp ; pop edi ; pop esi ; pop ebx ; ret
0x100211f5 ret
0x100211f4 pop esi ; ret
0x100211f3 add al, 0x5e ; ret
0x100211f2 les eax, ptr [esi + ebx*2] ; ret
0x100211f1 add esp, 4 ; pop esi ; ret
0x100211ec call 0xffff8564 ; add esp, 4 ; pop esi ; ret
0x100211eb push edx ; call 0xffff8565 ; add esp, 4 ; pop esi ; ret
0x10021438 ret
0x10021436 les esp, ptr [eax] ; ret
0x10021435 add esp, 0x20 ; ret
0x10021434 pop ebx ; add esp, 0x20 ; ret
0x10021433 pop ebp ; pop ebx ; add esp, 0x20 ; ret
0x10021432 pop esi ; pop ebp ; pop ebx ; add esp, 0x20 ; ret
0x10021431 pop edi ; pop esi ; pop ebp ; pop ebx ; add esp, 0x20 ; ret
0x10021430 rcr byte ptr [edi + 0x5e], 0x5d ; pop ebx ; add esp, 0x20 ; ret
0x1002142f xor eax, eax ; pop edi ; pop esi ; pop ebp ; pop ebx ; add esp, 0x20 ; ret
0x1002142e add al, 0x33 ; rcr byte ptr [edi + 0x5e], 0x5d ; pop ebx ; add esp, 0x20 ; ret
0x10021477 ret
0x10021475 les esp, ptr [eax] ; ret
0x10021474 add esp, 0x20 ; ret
0x10021473 pop ebx ; add esp, 0x20 ; ret
0x10021472 pop ebp ; pop ebx ; add esp, 0x20 ; ret
0x10021471 pop esi ; pop ebp ; pop ebx ; add esp, 0x20 ; ret
0x10021470 pop edi ; pop esi ; pop ebp ; pop ebx ; add esp, 0x20 ; ret
0x1002146f add byte ptr [edi + 0x5e], bl ; pop ebp ; pop ebx ; add esp, 0x20 ; ret
0x1002146e add byte ptr [eax], al ; pop edi ; pop esi ; pop ebp ; pop ebx ; add esp, 0x20 ; ret
0x1002146d add byte ptr [eax], al ; add byte ptr [edi + 0x5e], bl ; pop ebp ; pop ebx ; add esp, 0x20 ; ret
0x100214b9 ret
0x100214b7 les esp, ptr [eax] ; ret
0x100214b6 add esp, 0x20 ; ret
0x100214b5 pop ebx ; add esp, 0x20 ; ret
0x100214b4 pop ebp ; pop ebx ; add esp, 0x20 ; ret
0x100214b3 pop esi ; pop ebp ; pop ebx ; add esp, 0x20 ; ret
0x100214b2 pop edi ; pop esi ; pop ebp ; pop ebx ; add esp, 0x20 ; ret
0x100214b1 rcr byte ptr [edi + 0x5e], 0x5d ; pop ebx ; add esp, 0x20 ; ret
0x100214b0 xor eax, eax ; pop edi ; pop esi ; pop ebp ; pop ebx ; add esp, 0x20 ; ret
0x100214af adc byte ptr [ebx], dh ; rcr byte ptr [edi + 0x5e], 0x5d ; pop ebx ; add esp, 0x20 ; ret
0x100214fd ret
0x100214fc leave ; ret
0x100214fb pop esi ; leave ; ret
0x100214fa and byte ptr [esi - 0x37], bl ; ret
0x100214f9 les esp, ptr [eax] ; pop esi ; leave ; ret
0x100214f8 add esp, 0x20 ; pop esi ; leave ; ret
0x100214f6 mov eax, ecx ; add esp, 0x20 ; pop esi ; leave ; ret
0x100214f5 mov eax, ecx ; add esp, 0x20 ; pop esi ; leave ; ret
0x100214f4 jae 0xfffffff4 ; mov eax, ecx ; add esp, 0x20 ; pop esi ; leave ; ret
0x100214f3 and al, 0x73 ; mov eax, ecx ; add esp, 0x20 ; pop esi ; leave ; ret
0x10021537 ret
0x10021536 leave ; ret
0x10021535 pop edi ; leave ; ret
0x10021534 pop esi ; pop edi ; leave ; ret
0x10021533 pop ebx ; pop esi ; pop edi ; leave ; ret
0x10021532 rcr dword ptr [ebx + 0x5e], 0x5f ; leave ; ret
0x10021531 mov eax, ecx ; pop ebx ; pop esi ; pop edi ; leave ; ret
0x10021530 ror dword ptr [ebx + 0x5f5e5bc1], 1 ; leave ; ret
0x1002152f not ecx ; mov eax, ecx ; pop ebx ; pop esi ; pop edi ; leave ; ret
0x1002152e dec ecx ; not ecx ; mov eax, ecx ; pop ebx ; pop esi ; pop edi ; leave ; ret
0x1002152d dec ecx ; dec ecx ; not ecx ; mov eax, ecx ; pop ebx ; pop esi ; pop edi ; leave ; ret
0x10021579 ret
0x10021578 leave ; ret
0x10021577 pop esi ; leave ; ret
0x10021576 and byte ptr [esi - 0x37], bl ; ret
0x10021575 les esp, ptr [eax] ; pop esi ; leave ; ret
0x10021574 add esp, 0x20 ; pop esi ; leave ; ret
0x10021573 inc dword ptr [ebx - 0x36a1df3c] ; ret
0x10021572 inc esi ; inc dword ptr [ebx - 0x36a1df3c] ; ret
0x10021571 lea eax, dword ptr [esi - 1] ; add esp, 0x20 ; pop esi ; leave ; ret
0x10021570 lea eax, dword ptr [esi - 1] ; add esp, 0x20 ; pop esi ; leave ; ret
0x1002156f jae 0xfffffff5 ; lea eax, dword ptr [esi - 1] ; add esp, 0x20 ; pop esi ; leave ; ret
0x100216de ret
0x100216dd leave ; ret
0x100216dc pop edi ; leave ; ret
0x100216db pop esi ; pop edi ; leave ; ret
0x100216da or byte ptr [esi + 0x5f], bl ; leave ; ret
0x100216d9 inc ebp ; or byte ptr [esi + 0x5f], bl ; leave ; ret
0x100216d8 mov eax, dword ptr [ebp + 8] ; pop esi ; pop edi ; leave ; ret
0x100216d7 adc byte ptr [ebx + 0x5f5e0845], cl ; leave ; ret
0x100216d6 add dl, byte ptr [eax] ; mov eax, dword ptr [ebp + 8] ; pop esi ; pop edi ; leave ; ret
0x100216d5 pop ss ; add dl, byte ptr [eax] ; mov eax, dword ptr [ebp + 8] ; pop esi ; pop edi ; leave ; ret
0x100216d4 add byte ptr [edi], dl ; add dl, byte ptr [eax] ; mov eax, dword ptr [ebp + 8] ; pop esi ; pop edi ; leave ; ret
0x100216ea ret
0x100216e9 leave ; ret
0x100216e8 pop edi ; leave ; ret
0x100216e7 pop esi ; pop edi ; leave ; ret
0x100216e6 or byte ptr [esi + 0x5f], bl ; leave ; ret
0x100216e5 inc ebp ; or byte ptr [esi + 0x5f], bl ; leave ; ret
0x100216e4 mov eax, dword ptr [ebp + 8] ; pop esi ; pop edi ; leave ; ret
0x100216e3 pop es ; mov eax, dword ptr [ebp + 8] ; pop esi ; pop edi ; leave ; ret
0x100216e2 mov byte ptr [edi], al ; mov eax, dword ptr [ebp + 8] ; pop esi ; pop edi ; leave ; ret
0x100216e1 push es ; mov byte ptr [edi], al ; mov eax, dword ptr [ebp + 8] ; pop esi ; pop edi ; leave ; ret
0x100216e0 mov al, byte ptr [esi] ; mov byte ptr [edi], al ; mov eax, dword ptr [ebp + 8] ; pop esi ; pop edi ; leave ; ret
0x100216fc ret
0x100216fb leave ; ret
0x100216fa pop edi ; leave ; ret
0x100216f9 pop esi ; pop edi ; leave ; ret
0x100216f8 or byte ptr [esi + 0x5f], bl ; leave ; ret
0x100216f7 inc ebp ; or byte ptr [esi + 0x5f], bl ; leave ; ret
0x100216f6 mov eax, dword ptr [ebp + 8] ; pop esi ; pop edi ; leave ; ret
0x100216f5 add dword ptr [ebx + 0x5f5e0845], ecx ; leave ; ret
0x100216f4 inc edi ; add dword ptr [ebx + 0x5f5e0845], ecx ; leave ; ret
0x100216f3 mov byte ptr [edi + 1], al ; mov eax, dword ptr [ebp + 8] ; pop esi ; pop edi ; leave ; ret
0x100216f2 add dword ptr [eax + 0x458b0147], ecx ; or byte ptr [esi + 0x5f], bl ; leave ; ret
0x10021716 ret
0x10021715 leave ; ret
0x10021714 pop edi ; leave ; ret
0x10021713 pop esi ; pop edi ; leave ; ret
0x10021712 or byte ptr [esi + 0x5f], bl ; leave ; ret
0x10021711 inc ebp ; or byte ptr [esi + 0x5f], bl ; leave ; ret
0x10021710 mov eax, dword ptr [ebp + 8] ; pop esi ; pop edi ; leave ; ret
0x1002170f add cl, byte ptr [ebx + 0x5f5e0845] ; leave ; ret
0x1002170e inc edi ; add cl, byte ptr [ebx + 0x5f5e0845] ; leave ; ret
0x1002170d mov byte ptr [edi + 2], al ; mov eax, dword ptr [ebp + 8] ; pop esi ; pop edi ; leave ; ret
0x1002170c add cl, byte ptr [eax + 0x458b0247] ; or byte ptr [esi + 0x5f], bl ; leave ; ret
0x10021876 ret
0x10021875 leave ; ret
0x10021874 pop edi ; leave ; ret
0x10021873 pop esi ; pop edi ; leave ; ret
0x10021872 or byte ptr [esi + 0x5f], bl ; leave ; ret
0x10021871 inc ebp ; or byte ptr [esi + 0x5f], bl ; leave ; ret
0x10021870 mov eax, dword ptr [ebp + 8] ; pop esi ; pop edi ; leave ; ret
0x1002186f adc byte ptr [ebx + 0x5f5e0845], cl ; leave ; ret
0x1002186e add dl, byte ptr [eax] ; mov eax, dword ptr [ebp + 8] ; pop esi ; pop edi ; leave ; ret
0x1002186d sbb byte ptr [edx], al ; adc byte ptr [ebx + 0x5f5e0845], cl ; leave ; ret
0x1002186c pushfd ; sbb byte ptr [edx], al ; adc byte ptr [ebx + 0x5f5e0845], cl ; leave ; ret
0x10021884 ret
0x10021883 leave ; ret
0x10021882 pop edi ; leave ; ret
0x10021881 pop esi ; pop edi ; leave ; ret
0x10021880 or byte ptr [esi + 0x5f], bl ; leave ; ret
0x1002187f inc ebp ; or byte ptr [esi + 0x5f], bl ; leave ; ret
0x1002187e mov eax, dword ptr [ebp + 8] ; pop esi ; pop edi ; leave ; ret
0x1002187d add ecx, dword ptr [ebx + 0x5f5e0845] ; leave ; ret
0x1002187c inc edi ; add ecx, dword ptr [ebx + 0x5f5e0845] ; leave ; ret
0x1002187b mov byte ptr [edi + 3], al ; mov eax, dword ptr [ebp + 8] ; pop esi ; pop edi ; leave ; ret
0x1002187a add ecx, dword ptr [eax + 0x458b0347] ; or byte ptr [esi + 0x5f], bl ; leave ; ret
0x1002189a ret
0x10021899 leave ; ret
0x10021898 pop edi ; leave ; ret
0x10021897 pop esi ; pop edi ; leave ; ret
0x10021896 or byte ptr [esi + 0x5f], bl ; leave ; ret
0x10021895 inc ebp ; or byte ptr [esi + 0x5f], bl ; leave ; ret
0x10021894 mov eax, dword ptr [ebp + 8] ; pop esi ; pop edi ; leave ; ret
0x10021893 add cl, byte ptr [ebx + 0x5f5e0845] ; leave ; ret
0x10021892 inc edi ; add cl, byte ptr [ebx + 0x5f5e0845] ; leave ; ret
0x10021891 mov byte ptr [edi + 2], al ; mov eax, dword ptr [ebp + 8] ; pop esi ; pop edi ; leave ; ret
0x10021890 add cl, byte ptr [eax + 0x458b0247] ; or byte ptr [esi + 0x5f], bl ; leave ; ret
0x100218b4 ret
0x100218b3 leave ; ret
0x100218b2 pop edi ; leave ; ret
0x100218b1 pop esi ; pop edi ; leave ; ret
0x100218b0 or byte ptr [esi + 0x5f], bl ; leave ; ret
0x100218af inc ebp ; or byte ptr [esi + 0x5f], bl ; leave ; ret
0x100218ae mov eax, dword ptr [ebp + 8] ; pop esi ; pop edi ; leave ; ret
0x100218ad add dword ptr [ebx + 0x5f5e0845], ecx ; leave ; ret
0x100218ac inc edi ; add dword ptr [ebx + 0x5f5e0845], ecx ; leave ; ret
0x100218ab mov byte ptr [edi + 1], al ; mov eax, dword ptr [ebp + 8] ; pop esi ; pop edi ; leave ; ret
0x100218aa add dword ptr [eax + 0x458b0147], ecx ; or byte ptr [esi + 0x5f], bl ; leave ; ret
0x100218fa ret
0x100218f9 pop ebp ; ret
0x100218f8 in eax, 0x5d ; ret
0x100218f7 mov esp, ebp ; pop ebp ; ret
0x100218f6 pop esi ; mov esp, ebp ; pop ebp ; ret
0x100218f4 mov eax, esi ; pop esi ; mov esp, ebp ; pop ebp ; ret
0x100218f1 fldcw word ptr [ebp + 0xc] ; mov eax, esi ; pop esi ; mov esp, ebp ; pop ebp ; ret
0x10021917 ret
0x10021915 les ecx, ptr [eax] ; ret
0x10021914 add esp, 8 ; ret
0x1002190f call 0xffffffb1 ; add esp, 8 ; ret
0x1002190e push ecx ; call 0xffffffb2 ; add esp, 8 ; ret
0x1002190d push eax ; push ecx ; call 0xffffffb3 ; add esp, 8 ; ret
0x10021928 ret
0x10021932 ret
0x10021930 add dh, dh ; ret
0x1002192e add byte ptr [eax], al ; add dh, dh ; ret
0x1002192b add eax, 0x10b8 ; add dh, dh ; ret
0x10021939 ret
0x10021937 or dh, dh ; ret
0x10021940 ret
0x1002193e add al, 0xf6 ; ret
0x1002193a or byte ptr [edx + eax + 0xc], dh ; add al, 0xf6 ; ret
0x10021939 ret ; or byte ptr [edx + eax + 0xc], dh ; add al, 0xf6 ; ret
0x10021937 or dh, dh ; ret ; or byte ptr [edx + eax + 0xc], dh ; add al, 0xf6 ; ret
0x10021947 ret
0x10021945 add dh, dh ; ret
0x10021941 adc byte ptr [edx + eax + 0xc], dh ; add dh, dh ; ret
0x10021940 ret ; adc byte ptr [edx + eax + 0xc], dh ; add dh, dh ; ret
0x1002193e add al, 0xf6 ; ret ; adc byte ptr [edx + eax + 0xc], dh ; add dh, dh ; ret
0x1002194e ret
0x1002194c add esi, esi ; ret
0x10021948 and byte ptr [edx + eax + 0xc], dh ; add esi, esi ; ret
0x10021947 ret ; and byte ptr [edx + eax + 0xc], dh ; add esi, esi ; ret
0x10021945 add dh, dh ; ret ; and byte ptr [edx + eax + 0xc], dh ; add esi, esi ; ret
0x100219b5 ret
0x100219b4 pop ebx ; ret
0x100219b2 add al, 0 ; pop ebx ; ret
0x100219b1 add byte ptr [eax + eax], al ; pop ebx ; ret
0x100219b0 add byte ptr [eax], al ; add al, 0 ; pop ebx ; ret
0x100219af or eax, 0x40000 ; pop ebx ; ret
0x100219ad je 7 ; or eax, 0x40000 ; pop ebx ; ret
0x100219ac adc byte ptr [ebp + eax + 0xd], dh ; add byte ptr [eax], al ; add al, 0 ; pop ebx ; ret
0x10021a4a ret
0x10021a47 or ah, 0x10 ; ret
0x10021a45 je 5 ; or ah, 0x10 ; ret
0x10021a43 add al, 0 ; je 7 ; or ah, 0x10 ; ret
0x10021a42 add byte ptr [eax + eax], al ; je 8 ; or ah, 0x10 ; ret
0x10021a41 add byte ptr [eax], al ; add al, 0 ; je 9 ; or ah, 0x10 ; ret
0x10021a40 ret 0 ; add al, 0 ; je 0xa ; or ah, 0x10 ; ret
0x10021a8c ret
0x10021a8b pop esi ; ret
0x10021a89 xor eax, eax ; pop esi ; ret
0x10021a87 je 6 ; xor eax, eax ; pop esi ; ret
0x10021a85 test edx, ecx ; je 8 ; xor eax, eax ; pop esi ; ret
0x10021a83 not edx ; test edx, ecx ; je 0xa ; xor eax, eax ; pop esi ; ret
0x10021aaa ret
0x10021aa9 pop esi ; ret
0x10021aa7 add byte ptr [eax], al ; pop esi ; ret
0x10021aa5 add dword ptr [eax], eax ; add byte ptr [eax], al ; pop esi ; ret
0x10021aa4 mov eax, 1 ; pop esi ; ret
0x10021aa3 mov eax, 1 ; pop esi ; ret
0x10021aa2 jl 0xfffffff4 ; mov eax, 1 ; pop esi ; ret
0x10021aa1 add edi, dword ptr [edx + esi*8 - 0x48] ; add dword ptr [eax], eax ; add byte ptr [eax], al ; pop esi ; ret
0x10021aa0 inc byte ptr [ebx] ; jl 0xfffffff6 ; mov eax, 1 ; pop esi ; ret
0x10021aae ret
0x10021aad pop esi ; ret
0x10021aab xor eax, eax ; pop esi ; ret
0x10021aaa ret ; xor eax, eax ; pop esi ; ret
0x10021aa9 pop esi ; ret ; xor eax, eax ; pop esi ; ret
0x10021aa8 add byte ptr [esi - 0x3d], bl ; xor eax, eax ; pop esi ; ret
0x10021aa7 add byte ptr [eax], al ; pop esi ; ret ; xor eax, eax ; pop esi ; ret
0x10021aa6 add byte ptr [eax], al ; add byte ptr [esi - 0x3d], bl ; xor eax, eax ; pop esi ; ret
0x10021aa5 add dword ptr [eax], eax ; add byte ptr [eax], al ; pop esi ; ret ; xor eax, eax ; pop esi ; ret
0x10021aa4 mov eax, 1 ; pop esi ; ret ; xor eax, eax ; pop esi ; ret
0x10021ab5 ret
0x10021ab4 pop esi ; ret
0x10021ab2 add byte ptr [eax], al ; pop esi ; ret
0x10021ab0 add dword ptr [eax], eax ; add byte ptr [eax], al ; pop esi ; ret
0x10021aaf mov eax, 1 ; pop esi ; ret
0x10021aae ret ; mov eax, 1 ; pop esi ; ret
0x10021aad pop esi ; ret ; mov eax, 1 ; pop esi ; ret
0x10021aac rcr byte ptr [esi - 0x3d], 0xb8 ; add dword ptr [eax], eax ; add byte ptr [eax], al ; pop esi ; ret
0x10021aab xor eax, eax ; pop esi ; ret ; mov eax, 1 ; pop esi ; ret
0x10021b28 ret
0x10021b27 pop ebx ; ret
0x10021b26 pop esi ; pop ebx ; ret
0x10021b25 pop edi ; pop esi ; pop ebx ; ret
0x10021b24 out 0x5f, al ; pop esi ; pop ebx ; ret
0x10021b23 jge 0xffffffe8 ; pop edi ; pop esi ; pop ebx ; ret
0x10021b22 idiv byte ptr [ebp - 0x1a] ; pop edi ; pop esi ; pop ebx ; ret
0x10021b21 test esi, esi ; jge 0xffffffea ; pop edi ; pop esi ; pop ebx ; ret
0x10021b20 add al, 0x85 ; idiv byte ptr [ebp - 0x1a] ; pop edi ; pop esi ; pop ebx ; ret
0x10021b1f out dx, eax ; add al, 0x85 ; idiv byte ptr [ebp - 0x1a] ; pop edi ; pop esi ; pop ebx ; ret
0x10021b1e sub edi, 4 ; test esi, esi ; jge 0xffffffed ; pop edi ; pop esi ; pop ebx ; ret
0x10021bcc ret
0x10021bcb pop ecx ; ret
0x10021bca pop ebx ; pop ecx ; ret
0x10021bc9 ret 0x595b ; ret
0x10021bc8 mov eax, edx ; pop ebx ; pop ecx ; ret
0x10021bc7 pop ebp ; mov eax, edx ; pop ebx ; pop ecx ; ret
0x10021bc6 pop esi ; pop ebp ; mov eax, edx ; pop ebx ; pop ecx ; ret
0x10021bc5 pop edi ; pop esi ; pop ebp ; mov eax, edx ; pop ebx ; pop ecx ; ret
0x10021bc4 stosd dword ptr es:[edi], eax ; pop edi ; pop esi ; pop ebp ; mov eax, edx ; pop ebx ; pop ecx ; ret
0x10021bc3 rep stosd dword ptr es:[edi], eax ; pop edi ; pop esi ; pop ebp ; mov eax, edx ; pop ebx ; pop ecx ; ret
0x10021bc2 sal bl, 0xab ; pop edi ; pop esi ; pop ebp ; mov eax, edx ; pop ebx ; pop ecx ; ret
0x10021bec ret
0x10021beb pop esi ; ret
0x10021bea cmc ; pop esi ; ret
0x10021be9 jne 0xfffffff7 ; pop esi ; ret
0x10021be8 dec edx ; jne 0xfffffff8 ; pop esi ; ret
0x10021be7 add al, 0x4a ; jne 0xfffffff9 ; pop esi ; ret
0x10021be6 rol byte ptr [edx + ecx*2], 0x75 ; cmc ; pop esi ; ret
0x10021be5 add eax, 4 ; dec edx ; jne 0xfffffffb ; pop esi ; ret
0x10021be4 or byte ptr [ebx + 0x754a04c0], al ; cmc ; pop esi ; ret
0x10021be3 xor al, 8 ; add eax, 4 ; dec edx ; jne 0xfffffffd ; pop esi ; ret
0x10021be2 mov dword ptr [eax + ecx], esi ; add eax, 4 ; dec edx ; jne 0xfffffffe ; pop esi ; ret
0x10021bfe ret
0x10021bfb mov dword ptr [ecx + 8], eax ; ret
0x10021bf8 mov dword ptr [ecx + 4], eax ; mov dword ptr [ecx + 8], eax ; ret
0x10021bf6 mov dword ptr [ecx], eax ; mov dword ptr [ecx + 4], eax ; mov dword ptr [ecx + 8], eax ; ret
0x10021bf4 xor eax, eax ; mov dword ptr [ecx], eax ; mov dword ptr [ecx + 4], eax ; mov dword ptr [ecx + 8], eax ; ret
0x10021c19 ret
0x10021c17 add byte ptr [eax], al ; ret
0x10021c15 add dword ptr [eax], eax ; add byte ptr [eax], al ; ret
0x10021c14 mov eax, 1 ; ret
0x10021c13 mov eax, 1 ; ret
0x10021c12 jl 0xfffffff4 ; mov eax, 1 ; ret
0x10021c11 add edi, dword ptr [edx + esi*8 - 0x48] ; add dword ptr [eax], eax ; add byte ptr [eax], al ; ret
0x10021c10 clc ; add edi, dword ptr [edx + esi*8 - 0x48] ; add dword ptr [eax], eax ; add byte ptr [eax], al ; ret
0x10021c0f cmp eax, 3 ; jl 0xfffffff7 ; mov eax, 1 ; ret
0x10021c1c ret
0x10021c1a xor eax, eax ; ret
0x10021c19 ret ; xor eax, eax ; ret
0x10021c18 add bl, al ; xor eax, eax ; ret
0x10021c17 add byte ptr [eax], al ; ret ; xor eax, eax ; ret
0x10021c16 add byte ptr [eax], al ; add bl, al ; xor eax, eax ; ret
0x10021c15 add dword ptr [eax], eax ; add byte ptr [eax], al ; ret ; xor eax, eax ; ret
0x10021c14 mov eax, 1 ; ret ; xor eax, eax ; ret
0x10021c13 mov eax, 1 ; ret ; xor eax, eax ; ret
0x10021c12 jl 0xfffffff4 ; mov eax, 1 ; ret ; xor eax, eax ; ret
0x10021cd0 ret
0x10021cce les ecx, ptr [eax] ; ret
0x10021ccd add esp, 8 ; ret
0x10021ccc pop ebx ; add esp, 8 ; ret
0x10021ccb pop ebp ; pop ebx ; add esp, 8 ; ret
0x10021cca pop esi ; pop ebp ; pop ebx ; add esp, 8 ; ret
0x10021cc9 pop edi ; pop esi ; pop ebp ; pop ebx ; add esp, 8 ; ret
0x10021cc8 fistp dword ptr [edi + 0x5e] ; pop ebp ; pop ebx ; add esp, 8 ; ret
0x10021cc7 jns 0xffffffdd ; pop edi ; pop esi ; pop ebp ; pop ebx ; add esp, 8 ; ret
0x10021cc6 add al, 0x79 ; fistp dword ptr [edi + 0x5e] ; pop ebp ; pop ebx ; add esp, 8 ; ret
0x10021dae ret
0x10021e9b ret
0x10021e99 les ebx, ptr [eax] ; ret
0x10021e98 add esp, 0x18 ; ret
0x10021e97 pop ebx ; add esp, 0x18 ; ret
0x10021e96 pop ebp ; pop ebx ; add esp, 0x18 ; ret
0x10021e95 pop esi ; pop ebp ; pop ebx ; add esp, 0x18 ; ret
0x10021e94 pop edi ; pop esi ; pop ebp ; pop ebx ; add esp, 0x18 ; ret
0x10021e93 adc dword ptr [edi + 0x5e], ebx ; pop ebp ; pop ebx ; add esp, 0x18 ; ret
0x10021e92 mov dword ptr [ecx], edx ; pop edi ; pop esi ; pop ebp ; pop ebx ; add esp, 0x18 ; ret
0x10021e91 add al, 0x89 ; adc dword ptr [edi + 0x5e], ebx ; pop ebp ; pop ebx ; add esp, 0x18 ; ret
0x10021eae ret
0x10021eac les ebx, ptr [eax] ; ret
0x10021eab add esp, 0x18 ; ret
0x10021eaa pop ebx ; add esp, 0x18 ; ret
0x10021ea9 pop ebp ; pop ebx ; add esp, 0x18 ; ret
0x10021ea8 pop esi ; pop ebp ; pop ebx ; add esp, 0x18 ; ret
0x10021ea7 pop edi ; pop esi ; pop ebp ; pop ebx ; add esp, 0x18 ; ret
0x10021ea6 xor dword ptr [edi + 0x5e], ebx ; pop ebp ; pop ebx ; add esp, 0x18 ; ret
0x10021ea5 mov dword ptr [ecx], esi ; pop edi ; pop esi ; pop ebp ; pop ebx ; add esp, 0x18 ; ret
0x10021ea4 xor byte ptr [ecx + 0x5d5e5f31], cl ; pop ebx ; add esp, 0x18 ; ret
0x10021ec7 ret
0x10021ec4 add esp, 0xc ; ret
0x10021ebf call 0xfffffe21 ; add esp, 0xc ; ret
0x10021ebe push ecx ; call 0xfffffe22 ; add esp, 0xc ; ret
0x10021ebd push eax ; push ecx ; call 0xfffffe23 ; add esp, 0xc ; ret
0x10021ee7 ret
0x10021ee4 add esp, 0xc ; ret
0x10021edf call 0xfffffe01 ; add esp, 0xc ; ret
0x10021ede push ecx ; call 0xfffffe02 ; add esp, 0xc ; ret
0x10021edd push eax ; push ecx ; call 0xfffffe03 ; add esp, 0xc ; ret
0x10021f27 ret
0x10021f24 add esp, 0xc ; ret
0x10021f22 les ecx, ptr [eax] ; add esp, 0xc ; ret
0x10021f21 add esp, 8 ; add esp, 0xc ; ret
0x10021f67 ret
0x10021f64 add esp, 0xc ; ret
0x10021f62 les ecx, ptr [eax] ; add esp, 0xc ; ret
0x10021f61 add esp, 8 ; add esp, 0xc ; ret
0x10021fde ret
0x10021fdd pop ebx ; ret
0x10021fdc pop ebp ; pop ebx ; ret
0x10021fdb pop esi ; pop ebp ; pop ebx ; ret
0x10021fda pop edi ; pop esi ; pop ebp ; pop ebx ; ret
0x10021fd9 add al, 0x5f ; pop esi ; pop ebp ; pop ebx ; ret
0x10021fd8 inc ecx ; add al, 0x5f ; pop esi ; pop ebp ; pop ebx ; ret
0x10021fd7 inc dword ptr [ecx + 4] ; pop edi ; pop esi ; pop ebp ; pop ebx ; ret
0x10021fd6 or bh, bh ; inc ecx ; add al, 0x5f ; pop esi ; pop ebp ; pop ebx ; ret
0x10021fd5 jne 0xa ; inc dword ptr [ecx + 4] ; pop edi ; pop esi ; pop ebp ; pop ebx ; ret
0x10021fd4 xor dword ptr [ebp + 8], esi ; inc dword ptr [ecx + 4] ; pop edi ; pop esi ; pop ebp ; pop ebx ; ret
0x10022000 ret
0x10021fff pop ebx ; ret
0x10021ffe pop ebp ; pop ebx ; ret
0x10021ffd pop esi ; pop ebp ; pop ebx ; ret
0x10021ffc pop edi ; pop esi ; pop ebp ; pop ebx ; ret
0x10021ffb movsb byte ptr es:[edi], byte ptr [esi] ; pop edi ; pop esi ; pop ebp ; pop ebx ; ret
0x10021ffa rep movsb byte ptr es:[edi], byte ptr [esi] ; pop edi ; pop esi ; pop ebp ; pop ebx ; ret
0x10021ff9 add esi, ebx ; movsb byte ptr es:[edi], byte ptr [esi] ; pop edi ; pop esi ; pop ebp ; pop ebx ; ret
0x10021ff8 loope 5 ; rep movsb byte ptr es:[edi], byte ptr [esi] ; pop edi ; pop esi ; pop ebp ; pop ebx ; ret
0x10021ff7 and ecx, 3 ; rep movsb byte ptr es:[edi], byte ptr [esi] ; pop edi ; pop esi ; pop ebp ; pop ebx ; ret
0x10021ff6 enter -0x1e7d, 3 ; rep movsb byte ptr es:[edi], byte ptr [esi] ; pop edi ; pop esi ; pop ebp ; pop ebx ; ret
0x1002209a ret
0x10022098 les ebp, ptr [eax] ; ret
0x10022097 add esp, 0x28 ; ret
0x10022096 pop ebx ; add esp, 0x28 ; ret
0x10022095 ret 0x835b ; les ebp, ptr [eax] ; ret
0x10022094 mov eax, edx ; pop ebx ; add esp, 0x28 ; ret
0x10022093 pop esi ; mov eax, edx ; pop ebx ; add esp, 0x28 ; ret
0x10022092 or al, 0x5e ; mov eax, edx ; pop ebx ; add esp, 0x28 ; ret
0x10022091 inc edx ; or al, 0x5e ; mov eax, edx ; pop ebx ; add esp, 0x28 ; ret
0x10022090 mov dword ptr [edx + 0xc], eax ; pop esi ; mov eax, edx ; pop ebx ; add esp, 0x28 ; ret
0x10022109 pop ebx ; ret
0x10022108 pop ebp ; pop ebx ; ret
0x10022107 pop esi ; pop ebp ; pop ebx ; ret
0x10022106 pop edi ; pop esi ; pop ebp ; pop ebx ; ret
0x10022105 or byte ptr [edi + 0x5e], bl ; pop ebp ; pop ebx ; ret
0x10022104 pop eax ; or byte ptr [edi + 0x5e], bl ; pop ebp ; pop ebx ; ret
0x10022103 mov dword ptr [eax + 8], ebx ; pop edi ; pop esi ; pop ebp ; pop ebx ; ret
0x10022102 mov word ptr [eax + 8], bx ; pop edi ; pop esi ; pop ebp ; pop ebx ; ret
0x10022101 sbb byte ptr [esi - 0x77], ah ; pop eax ; or byte ptr [edi + 0x5e], bl ; pop ebp ; pop ebx ; ret
0x10022100 mov dword ptr [eax], ebx ; mov word ptr [eax + 8], bx ; pop edi ; pop esi ; pop ebp ; pop ebx ; ret
0x1002215d ret
0x1002215c pop ebx ; ret
0x1002215b pop ebp ; pop ebx ; ret
0x1002215a pop esi ; pop ebp ; pop ebx ; ret
0x10022159 or byte ptr [esi + 0x5d], bl ; pop ebx ; ret
0x10022158 jo 0xa ; pop esi ; pop ebp ; pop ebx ; ret
0x10022157 mov dword ptr [eax + 8], esi ; pop esi ; pop ebp ; pop ebx ; ret
0x10022156 mov word ptr [eax + 8], si ; pop esi ; pop ebp ; pop ebx ; ret
0x10022155 pop edi ; mov word ptr [eax + 8], si ; pop esi ; pop ebp ; pop ebx ; ret
0x10022154 cmc ; pop edi ; mov word ptr [eax + 8], si ; pop esi ; pop ebp ; pop ebx ; ret
0x10022153 or esi, ebp ; pop edi ; mov word ptr [eax + 8], si ; pop esi ; pop ebp ; pop ebx ; ret
0x1002216a ret
0x10022167 add esp, 4 ; ret
0x10022162 call 0xffff8a8e ; add esp, 4 ; ret
0x10022160 push 2 ; call 0xffff8a90 ; add esp, 4 ; ret
0x10022180 ret
0x1002217e xor eax, eax ; ret
0x1002217c jb 5 ; xor eax, eax ; ret
0x1002217a cmp eax, ecx ; jb 7 ; xor eax, eax ; ret
0x10022178 add al, 0x10 ; cmp eax, ecx ; jb 9 ; xor eax, eax ; ret
0x10022176 add byte ptr [edi - 0x3ec4effc], dh ; jb 0xb ; xor eax, eax ; ret
0x1002219a ret
0x10022199 inc eax ; ret
0x10022198 loopne 0x42 ; ret
0x10022197 and eax, 0x40 ; ret
0x10022196 add al, 0x83 ; loopne 0x44 ; ret
0x10022195 nop ; add al, 0x83 ; loopne 0x45 ; ret
0x10022194 inc esp ; nop ; add al, 0x83 ; loopne 0x46 ; ret
0x10022193 mov al, byte ptr [eax + edx*4 + 4] ; and eax, 0x40 ; ret
0x10022192 adc byte ptr [edx - 0x7cfb6fbc], cl ; loopne 0x48 ; ret
0x10022191 add al, 0x10 ; mov al, byte ptr [eax + edx*4 + 4] ; and eax, 0x40 ; ret
0x10022190 mov dh, 4 ; adc byte ptr [edx - 0x7cfb6fbc], cl ; loopne 0x4a ; ret
0x10022273 ret
0x100222a7 ret
0x100222a1 mov byte ptr [eax - 0x7cfffffc], al ; ret
0x10022307 ret
0x10022305 les ecx, ptr [eax] ; ret
0x10022304 add esp, 8 ; ret
0x10022303 pop ebx ; add esp, 8 ; ret
0x10022302 pop ebp ; pop ebx ; add esp, 8 ; ret
0x10022301 pop esi ; pop ebp ; pop ebx ; add esp, 8 ; ret
0x10022300 pop edi ; pop esi ; pop ebp ; pop ebx ; add esp, 8 ; ret
0x100222ff add al, 0x5f ; pop esi ; pop ebp ; pop ebx ; add esp, 8 ; ret
0x100222fe les eax, ptr [edi + ebx*2] ; pop esi ; pop ebp ; pop ebx ; add esp, 8 ; ret
0x100222fd add esp, 4 ; pop edi ; pop esi ; pop ebp ; pop ebx ; add esp, 8 ; ret
0x1002236b ret
0x1002236a pop ebx ; ret
0x10022369 pop esi ; pop ebx ; ret
0x10022368 pop edi ; pop esi ; pop ebx ; ret
0x10022367 rcr byte ptr [edi + 0x5e], 0x5b ; ret
0x10022366 xor eax, eax ; pop edi ; pop esi ; pop ebx ; ret
0x10022365 xor byte ptr [ebx], dh ; rcr byte ptr [edi + 0x5e], 0x5b ; ret
0x10022364 sbb al, 0x30 ; xor eax, eax ; pop edi ; pop esi ; pop ebx ; ret
0x10022363 mov dword ptr [eax + esi], ebx ; xor eax, eax ; pop edi ; pop esi ; pop ebx ; ret
0x10022362 pop es ; mov dword ptr [eax + esi], ebx ; xor eax, eax ; pop edi ; pop esi ; pop ebx ; ret
0x10022361 mov eax, dword ptr [edi] ; mov dword ptr [eax + esi], ebx ; xor eax, eax ; pop edi ; pop esi ; pop ebx ; ret
0x1002237f ret
0x1002237e pop ebx ; ret
0x1002237d pop esi ; pop ebx ; ret
0x1002237c pop edi ; pop esi ; pop ebx ; ret
0x1002237b rcr byte ptr [edi + 0x5e], 0x5b ; ret
0x1002237a xor eax, eax ; pop edi ; pop esi ; pop ebx ; ret
0x10022379 xor byte ptr [ebx], dh ; rcr byte ptr [edi + 0x5e], 0x5b ; ret
0x10022378 sbb al, 0x30 ; xor eax, eax ; pop edi ; pop esi ; pop ebx ; ret
0x10022377 mov dword ptr [eax + esi], ebx ; xor eax, eax ; pop edi ; pop esi ; pop ebx ; ret
0x10022376 pop es ; mov dword ptr [eax + esi], ebx ; xor eax, eax ; pop edi ; pop esi ; pop ebx ; ret
0x10022375 mov eax, dword ptr [edi] ; mov dword ptr [eax + esi], ebx ; xor eax, eax ; pop edi ; pop esi ; pop ebx ; ret
0x10022393 ret
0x10022392 pop ebx ; ret
0x10022391 pop esi ; pop ebx ; ret
0x10022390 pop edi ; pop esi ; pop ebx ; ret
0x1002238f rcr byte ptr [edi + 0x5e], 0x5b ; ret
0x1002238e xor eax, eax ; pop edi ; pop esi ; pop ebx ; ret
0x1002238d xor byte ptr [ebx], dh ; rcr byte ptr [edi + 0x5e], 0x5b ; ret
0x1002238c sbb al, 0x30 ; xor eax, eax ; pop edi ; pop esi ; pop ebx ; ret
0x1002238b mov dword ptr [eax + esi], ebx ; xor eax, eax ; pop edi ; pop esi ; pop ebx ; ret
0x1002238a pop es ; mov dword ptr [eax + esi], ebx ; xor eax, eax ; pop edi ; pop esi ; pop ebx ; ret
0x10022389 mov eax, dword ptr [edi] ; mov dword ptr [eax + esi], ebx ; xor eax, eax ; pop edi ; pop esi ; pop ebx ; ret
0x100223b0 ret
0x100223af pop ebx ; ret
0x100223ac or eax, 0xffffffff ; pop ebx ; ret
0x100223ab pop esi ; or eax, 0xffffffff ; pop ebx ; ret
0x100223a9 add byte ptr [eax], al ; pop esi ; or eax, 0xffffffff ; pop ebx ; ret
0x100223a7 add byte ptr [eax], al ; add byte ptr [eax], al ; pop esi ; or eax, 0xffffffff ; pop ebx ; ret
0x10022435 ret
0x10022434 pop ebx ; ret
0x10022433 pop esi ; pop ebx ; ret
0x10022432 pop edi ; pop esi ; pop ebx ; ret
0x10022431 rcr byte ptr [edi + 0x5e], 0x5b ; ret
0x10022430 xor eax, eax ; pop edi ; pop esi ; pop ebx ; ret
0x1002242f push dword ptr [ebx] ; rcr byte ptr [edi + 0x5e], 0x5b ; ret
0x10022452 ret
0x10022451 pop ebx ; ret
0x1002244e or eax, 0xffffffff ; pop ebx ; ret
0x1002244d pop esi ; or eax, 0xffffffff ; pop ebx ; ret
0x1002244b add byte ptr [eax], al ; pop esi ; or eax, 0xffffffff ; pop ebx ; ret
0x10022449 add byte ptr [eax], al ; add byte ptr [eax], al ; pop esi ; or eax, 0xffffffff ; pop ebx ; ret
0x1002248e ret
0x1002248c mov eax, dword ptr [eax] ; ret
0x1002248a je 5 ; mov eax, dword ptr [eax] ; ret
0x10022487 test cl, 1 ; je 8 ; mov eax, dword ptr [eax] ; ret
0x10022486 nop ; test cl, 1 ; je 9 ; mov eax, dword ptr [eax] ; ret
0x10022485 add al, 0x90 ; test cl, 1 ; je 0xa ; mov eax, dword ptr [eax] ; ret
0x10022484 lea eax, dword ptr [eax + edx*4] ; test cl, 1 ; je 0xb ; mov eax, dword ptr [eax] ; ret
0x100224a8 ret
0x100224a5 or eax, 0xffffffff ; ret
0x100224a3 add byte ptr [eax], al ; or eax, 0xffffffff ; ret
0x100224a1 add byte ptr [eax], al ; add byte ptr [eax], al ; or eax, 0xffffffff ; ret
0x1002249f mov dword ptr [eax], 0 ; or eax, 0xffffffff ; ret
0x10022514 ret
0x10022513 pop ebx ; ret
0x10022512 pop esi ; pop ebx ; ret
0x10022511 pop edi ; pop esi ; pop ebx ; ret
0x10022510 adc byte ptr [edi + 0x5e], bl ; pop ebx ; ret
0x1002250f add al, 0x10 ; pop edi ; pop esi ; pop ebx ; ret
0x1002250e rol dword ptr [eax + edx], 1 ; pop edi ; pop esi ; pop ebx ; ret
0x1002250d test al, 0xd1 ; add al, 0x10 ; pop edi ; pop esi ; pop ebx ; ret
0x1002250c adc eax, 0x1004d1a8 ; pop edi ; pop esi ; pop ebx ; ret
0x1002250b call dword ptr [0x1004d1a8] ; pop edi ; pop esi ; pop ebx ; ret
0x10022541 ret
0x1002253f add al, 0x10 ; ret
0x1002253e rol dword ptr [eax + edx], 1 ; ret
0x1002253d lodsb al, byte ptr [esi] ; rol dword ptr [eax + edx], 1 ; ret
0x1002253c adc eax, 0x1004d1ac ; ret
0x1002253b call dword ptr [0x1004d1ac] ; ret
0x1002253a push ecx ; call dword ptr [0x1004d1ac] ; ret
0x10022539 or al, 0x51 ; call dword ptr [0x1004d1ac] ; ret
0x10022538 nop ; or al, 0x51 ; call dword ptr [0x1004d1ac] ; ret
0x10022537 dec esp ; nop ; or al, 0x51 ; call dword ptr [0x1004d1ac] ; ret
0x100225aa ret
0x100225a8 add al, 0x8b ; ret
0x100225a7 les eax, ptr [ebx + ecx*4] ; ret
0x100225a2 mov edx, 0x83ffff87 ; les eax, ptr [ebx + ecx*4] ; ret
0x100225a0 adc ebp, eax ; mov edx, 0x83ffff87 ; les eax, ptr [ebx + ecx*4] ; ret
0x100225ae ret
0x100225ad pop ebx ; ret
0x100225ac pop esi ; pop ebx ; ret
0x100225ab pop edi ; pop esi ; pop ebx ; ret
0x100225aa ret ; pop edi ; pop esi ; pop ebx ; ret
0x100225a9 mov eax, ebx ; pop edi ; pop esi ; pop ebx ; ret
0x100225a8 add al, 0x8b ; ret ; pop edi ; pop esi ; pop ebx ; ret
0x100225a7 les eax, ptr [ebx + ecx*4] ; ret ; pop edi ; pop esi ; pop ebx ; ret
0x100225a6 add esp, 4 ; mov eax, ebx ; pop edi ; pop esi ; pop ebx ; ret
0x100225a5 inc dword ptr [ebx - 0x3c74fb3c] ; pop edi ; pop esi ; pop ebx ; ret
0x100225b8 ret
0x100225bb ret
0x100225ba pop ebx ; ret
0x100225b9 pop esi ; pop ebx ; ret
0x100225b8 ret ; pop esi ; pop ebx ; ret
0x100225b7 mov eax, ebx ; pop esi ; pop ebx ; ret
0x100225b6 pop edi ; mov eax, ebx ; pop esi ; pop ebx ; ret
0x100225b5 xlatb ; pop edi ; mov eax, ebx ; pop esi ; pop ebx ; ret
0x100225b4 call edi ; pop edi ; mov eax, ebx ; pop esi ; pop ebx ; ret
0x100225b3 adc bh, bh ; xlatb ; pop edi ; mov eax, ebx ; pop esi ; pop ebx ; ret
0x100225b2 add al, 0x10 ; call edi ; pop edi ; mov eax, ebx ; pop esi ; pop ebx ; ret
0x100225b1 mov bh, 4 ; adc bh, bh ; xlatb ; pop edi ; mov eax, ebx ; pop esi ; pop ebx ; ret
0x100225c8 ret
0x100225c6 jne 3 ; ret
0x100225c4 test eax, eax ; jne 5 ; ret
0x100225c2 and al, 4 ; test eax, eax ; jne 7 ; ret
0x100225c1 inc esp ; and al, 4 ; test eax, eax ; jne 8 ; ret
0x100225c0 mov eax, dword ptr [esp + 4] ; test eax, eax ; jne 9 ; ret
0x100225bf nop ; mov eax, dword ptr [esp + 4] ; test eax, eax ; jne 0xa ; ret
0x100225be nop ; nop ; mov eax, dword ptr [esp + 4] ; test eax, eax ; jne 0xb ; ret
0x100225e6 ret
0x100225e4 add byte ptr [eax], al ; ret
0x100225e2 add dword ptr [eax], eax ; add byte ptr [eax], al ; ret
0x100225e1 mov eax, 1 ; ret
0x100225e0 or byte ptr [eax + 1], bh ; ret
0x100225df mov byte ptr [eax], cl ; mov eax, 1 ; ret
0x100225de inc esp ; mov byte ptr [eax], cl ; mov eax, 1 ; ret
0x100225dd ja 0x46 ; mov byte ptr [eax], cl ; mov eax, 1 ; ret
0x100225dc add byte ptr [edi + 0x44], dh ; mov byte ptr [eax], cl ; mov eax, 1 ; ret
0x10022631 ret
0x1002262e or eax, 0xffffffff ; ret
0x1002262c add byte ptr [eax], al ; or eax, 0xffffffff ; ret
0x1002262a sub al, byte ptr [eax] ; add byte ptr [eax], al ; or eax, 0xffffffff ; ret
0x10022628 mov dword ptr [eax], 0x2a ; or eax, 0xffffffff ; ret
0x10022810 ret
0x1002280e add byte ptr [eax], al ; ret
0x1002280c add al, 0x10 ; add byte ptr [eax], al ; ret
0x1002280b les eax, ptr [eax + edx] ; add byte ptr [eax], al ; ret
0x10022809 pop ebx ; add esp, 0x1004 ; ret
0x10022808 pop ebp ; pop ebx ; add esp, 0x1004 ; ret
0x10022807 pop esi ; pop ebp ; pop ebx ; add esp, 0x1004 ; ret
0x10022806 pop edi ; pop esi ; pop ebp ; pop ebx ; add esp, 0x1004 ; ret
0x1002286f ret
0x1002286d add byte ptr [eax], al ; ret
0x1002286b add al, 0x10 ; add byte ptr [eax], al ; ret
0x1002286a les eax, ptr [eax + edx] ; add byte ptr [eax], al ; ret
0x10022869 add esp, 0x1004 ; ret
0x10022868 pop ebx ; add esp, 0x1004 ; ret
0x10022867 pop ebp ; pop ebx ; add esp, 0x1004 ; ret
0x10022866 pop esi ; pop ebp ; pop ebx ; add esp, 0x1004 ; ret
0x10022865 pop edi ; pop esi ; pop ebp ; pop ebx ; add esp, 0x1004 ; ret
0x1002287d ret
0x1002287b add byte ptr [eax], al ; ret
0x10022879 add al, 0x10 ; add byte ptr [eax], al ; ret
0x10022878 les eax, ptr [eax + edx] ; add byte ptr [eax], al ; ret
0x10022877 add esp, 0x1004 ; ret
0x10022876 pop ebx ; add esp, 0x1004 ; ret
0x10022875 lcall ptr [ebx - 0x7f] ; les eax, ptr [eax + edx] ; add byte ptr [eax], al ; ret
0x10022874 enter 0x5bff, -0x7f ; les eax, ptr [eax + edx] ; add byte ptr [eax], al ; ret
0x10022873 or eax, 0xffffffff ; pop ebx ; add esp, 0x1004 ; ret
0x1002289a ret
0x10022897 sub eax, 0x20 ; ret
0x10022895 jg 0x6c ; sub eax, 0x20 ; ret
0x10022892 cmp eax, 0x7a ; jg 0x6f ; sub eax, 0x20 ; ret
0x10022891 outsd dx, dword ptr [esi] ; cmp eax, 0x7a ; jg 0x70 ; sub eax, 0x20 ; ret
0x10022890 jl 0x71 ; cmp eax, 0x7a ; jg 0x71 ; sub eax, 0x20 ; ret
0x100228f0 ret
0x100228ee add al, 0x8b ; ret
0x100228ed les eax, ptr [ebx + ecx*4] ; ret
0x100228f4 ret
0x100228f3 pop edi ; ret
0x100228f2 pop esi ; pop edi ; ret
0x100228f1 pop ebx ; pop esi ; pop edi ; ret
0x100228f0 ret ; pop ebx ; pop esi ; pop edi ; ret
0x100228ef mov eax, ebx ; pop ebx ; pop esi ; pop edi ; ret
0x100228ee add al, 0x8b ; ret ; pop ebx ; pop esi ; pop edi ; ret
0x100228ed les eax, ptr [ebx + ecx*4] ; ret ; pop ebx ; pop esi ; pop edi ; ret
0x100228ec add esp, 4 ; mov eax, ebx ; pop ebx ; pop esi ; pop edi ; ret
0x100228eb inc dword ptr [ebx - 0x3c74fb3c] ; pop ebx ; pop esi ; pop edi ; ret
0x100228fd ret
0x10022901 ret
0x10022900 pop edi ; ret
0x100228ff pop esi ; pop edi ; ret
0x100228fe pop ebx ; pop esi ; pop edi ; ret
0x100228fd ret ; pop ebx ; pop esi ; pop edi ; ret
0x100228fc mov eax, ebx ; pop ebx ; pop esi ; pop edi ; ret
0x100228fb xlatb ; mov eax, ebx ; pop ebx ; pop esi ; pop edi ; ret
0x100228fa call edi ; mov eax, ebx ; pop ebx ; pop esi ; pop edi ; ret
0x100228f9 adc bh, bh ; xlatb ; mov eax, ebx ; pop ebx ; pop esi ; pop edi ; ret
0x100228f8 add al, 0x10 ; call edi ; mov eax, ebx ; pop ebx ; pop esi ; pop edi ; ret
0x100228f7 mov bh, 4 ; adc bh, bh ; xlatb ; mov eax, ebx ; pop ebx ; pop esi ; pop edi ; ret
0x1002293a ret
0x10022938 les ecx, ptr [eax] ; ret
0x10022937 add esp, 8 ; ret
0x10022936 pop ebx ; add esp, 8 ; ret
0x10022935 and byte ptr [ebx - 0x7d], bl ; les ecx, ptr [eax] ; ret
0x10022933 sub eax, 0x20 ; pop ebx ; add esp, 8 ; ret
0x10022932 add byte ptr [ebx - 0x7ca4df18], al ; les ecx, ptr [eax] ; ret
0x10022931 add byte ptr [eax], al ; sub eax, 0x20 ; pop ebx ; add esp, 8 ; ret
0x10022930 add byte ptr [eax], al ; add byte ptr [ebx - 0x7ca4df18], al ; les ecx, ptr [eax] ; ret
0x1002296d ret
0x10022969 sal byte ptr [ebp + 7], 0x8b ; ret
0x10022967 add al, byte ptr [ebp - 0x74f88a40] ; ret
0x10022972 ret
0x10022970 les ecx, ptr [eax] ; ret
0x1002296f add esp, 8 ; ret
0x1002296e pop ebx ; add esp, 8 ; ret
0x1002296d ret ; pop ebx ; add esp, 8 ; ret
0x1002296c mov eax, ebx ; pop ebx ; add esp, 8 ; ret
0x1002296b pop es ; mov eax, ebx ; pop ebx ; add esp, 8 ; ret
0x1002296a jne 9 ; mov eax, ebx ; pop ebx ; add esp, 8 ; ret
0x10022969 sal byte ptr [ebp + 7], 0x8b ; ret ; pop ebx ; add esp, 8 ; ret
0x10022968 test eax, eax ; jne 0xb ; mov eax, ebx ; pop ebx ; add esp, 8 ; ret
0x1002297a ret
0x100229d6 ret
0x100229d2 sal byte ptr [ebp + 7], 0x8b ; ret
0x100229d0 sbb al, 0x85 ; sal byte ptr [ebp + 7], 0x8b ; ret
0x100229cf les ebx, ptr [eax*4 - 0x74f88a40] ; ret
0x100229db ret
0x100229d9 les ecx, ptr [eax] ; ret
0x100229d8 add esp, 8 ; ret
0x100229d7 pop ebx ; add esp, 8 ; ret
0x100229d6 ret ; pop ebx ; add esp, 8 ; ret
0x100229d5 mov eax, ebx ; pop ebx ; add esp, 8 ; ret
0x100229d4 pop es ; mov eax, ebx ; pop ebx ; add esp, 8 ; ret
0x100229d3 jne 9 ; mov eax, ebx ; pop ebx ; add esp, 8 ; ret
0x100229d2 sal byte ptr [ebp + 7], 0x8b ; ret ; pop ebx ; add esp, 8 ; ret
0x100229d1 test eax, eax ; jne 0xb ; mov eax, ebx ; pop ebx ; add esp, 8 ; ret
0x100229ee ret
0x100229ec les ecx, ptr [eax] ; ret
0x100229eb add esp, 8 ; ret
0x100229ea pop ebx ; add esp, 8 ; ret
0x100229e9 add byte ptr [ebx - 0x7d], bl ; les ecx, ptr [eax] ; ret
0x100229e8 add byte ptr [eax], al ; pop ebx ; add esp, 8 ; ret
0x100229e7 add byte ptr [eax], al ; add byte ptr [ebx - 0x7d], bl ; les ecx, ptr [eax] ; ret
0x100229e6 inc dword ptr [eax] ; add byte ptr [eax], al ; pop ebx ; add esp, 8 ; ret
0x100229e5 and eax, 0xff ; pop ebx ; add esp, 8 ; ret
0x100229e4 add al, 0x25 ; inc dword ptr [eax] ; add byte ptr [eax], al ; pop ebx ; add esp, 8 ; ret
0x10022a0b ret
0x10022a09 les ecx, ptr [eax] ; ret
0x10022a08 add esp, 8 ; ret
0x10022a07 pop ebx ; add esp, 8 ; ret
0x10022a05 or eax, ecx ; pop ebx ; add esp, 8 ; ret
0x10022a03 loopne 0xa ; or eax, ecx ; pop ebx ; add esp, 8 ; ret
0x10022a02 shl eax, 8 ; or eax, ecx ; pop ebx ; add esp, 8 ; ret
0x10022a01 add cl, al ; loopne 0xc ; or eax, ecx ; pop ebx ; add esp, 8 ; ret
0x10022a36 ret
0x10022a35 leave ; ret
0x10022a34 pop edi ; leave ; ret
0x10022a33 cld ; pop edi ; leave ; ret
0x10022a31 mov eax, edi ; cld ; pop edi ; leave ; ret
0x10022a30 add cl, byte ptr [ebx - 0x36a00339] ; ret
0x10022a2f jmp 4 ; mov eax, edi ; cld ; pop edi ; leave ; ret
0x10022a2e shr bl, 2 ; mov eax, edi ; cld ; pop edi ; leave ; ret
0x10022a2d xor eax, eax ; jmp 6 ; mov eax, edi ; cld ; pop edi ; leave ; ret
0x10022a2c add al, 0x33 ; shr bl, 2 ; mov eax, edi ; cld ; pop edi ; leave ; ret
0x10022a9f ret
0x10022a9d add al, 0x8b ; ret
0x10022a9c les eax, ptr [ebx + ecx*4] ; ret
0x10022a97 lds eax, ptr [edx - 0x3b7c0001] ; add al, 0x8b ; ret
0x10022a95 adc ebp, eax ; lds eax, ptr [edx - 0x3b7c0001] ; add al, 0x8b ; ret
0x10022aa3 ret
0x10022aa2 pop ebx ; ret
0x10022aa1 pop esi ; pop ebx ; ret
0x10022aa0 pop edi ; pop esi ; pop ebx ; ret
0x10022a9f ret ; pop edi ; pop esi ; pop ebx ; ret
0x10022a9e mov eax, ebx ; pop edi ; pop esi ; pop ebx ; ret
0x10022a9d add al, 0x8b ; ret ; pop edi ; pop esi ; pop ebx ; ret
0x10022a9c les eax, ptr [ebx + ecx*4] ; ret ; pop edi ; pop esi ; pop ebx ; ret
0x10022a9b add esp, 4 ; mov eax, ebx ; pop edi ; pop esi ; pop ebx ; ret
0x10022a9a inc dword ptr [ebx - 0x3c74fb3c] ; pop edi ; pop esi ; pop ebx ; ret
0x10022aad ret
0x10022ab0 ret
0x10022aaf pop ebx ; ret
0x10022aae pop esi ; pop ebx ; ret
0x10022aad ret ; pop esi ; pop ebx ; ret
0x10022aac mov eax, ebx ; pop esi ; pop ebx ; ret
0x10022aab pop edi ; mov eax, ebx ; pop esi ; pop ebx ; ret
0x10022aaa xlatb ; pop edi ; mov eax, ebx ; pop esi ; pop ebx ; ret
0x10022aa9 call edi ; pop edi ; mov eax, ebx ; pop esi ; pop ebx ; ret
0x10022aa8 adc bh, bh ; xlatb ; pop edi ; mov eax, ebx ; pop esi ; pop ebx ; ret
0x10022aa7 add al, 0x10 ; call edi ; pop edi ; mov eax, ebx ; pop esi ; pop ebx ; ret
0x10022aa6 mov bh, 4 ; adc bh, bh ; xlatb ; pop edi ; mov eax, ebx ; pop esi ; pop ebx ; ret
0x10022af5 ret
0x10022af4 pop esi ; ret
0x10022af3 pop edi ; pop esi ; ret
0x10022af1 xor eax, eax ; pop edi ; pop esi ; ret
0x10022aef add byte ptr [eax], al ; xor eax, eax ; pop edi ; pop esi ; ret
0x10022aed mov dword ptr [eax], 0xc0330000 ; pop edi ; pop esi ; ret
0x10022aec mov word ptr [eax], 0 ; xor eax, eax ; pop edi ; pop esi ; ret
0x10022b1a ret
0x10022b19 pop esi ; ret
0x10022b18 pop edi ; pop esi ; ret
0x10022b17 add byte ptr [edi + 0x5e], bl ; ret
0x10022b16 add byte ptr [eax], al ; pop edi ; pop esi ; ret
0x10022b15 add byte ptr [eax], al ; add byte ptr [edi + 0x5e], bl ; ret
0x10022b14 add dword ptr [eax], eax ; add byte ptr [eax], al ; pop edi ; pop esi ; ret
0x10022b13 mov eax, 1 ; pop edi ; pop esi ; ret
0x10022b12 add dword ptr [eax + 1], edi ; pop edi ; pop esi ; ret
0x10022b11 mov dword ptr [ecx], eax ; mov eax, 1 ; pop edi ; pop esi ; ret
0x10022b10 mov word ptr [ecx], ax ; mov eax, 1 ; pop edi ; pop esi ; ret
0x10022b7c ret
0x10022b7b pop esi ; ret
0x10022b7a pop edi ; pop esi ; ret
0x10022b79 lcall ptr [edi + 0x5e] ; ret
0x10022b78 enter 0x5fff, 0x5e ; ret
0x10022b77 or eax, 0xffffffff ; pop edi ; pop esi ; ret
0x10022b76 add byte ptr [ebx + 0x5e5fffc8], al ; ret
0x10022b75 add byte ptr [eax], al ; or eax, 0xffffffff ; pop edi ; pop esi ; ret
0x10022b74 add byte ptr [eax], al ; add byte ptr [ebx + 0x5e5fffc8], al ; ret
0x10022b73 sub al, byte ptr [eax] ; add byte ptr [eax], al ; or eax, 0xffffffff ; pop edi ; pop esi ; ret
0x10022b72 add byte ptr [edx], ch ; add byte ptr [eax], al ; add byte ptr [ebx + 0x5e5fffc8], al ; ret
0x10022bb0 ret
0x10022baf pop esi ; ret
0x10022bae pop edi ; pop esi ; ret
0x10022bad lcall ptr [edi + 0x5e] ; ret
0x10022bac enter 0x5fff, 0x5e ; ret
0x10022bab or eax, 0xffffffff ; pop edi ; pop esi ; ret
0x10022baa add byte ptr [ebx + 0x5e5fffc8], al ; ret
0x10022ba9 add byte ptr [eax], al ; or eax, 0xffffffff ; pop edi ; pop esi ; ret
0x10022ba8 add byte ptr [eax], al ; add byte ptr [ebx + 0x5e5fffc8], al ; ret
0x10022ba7 sub al, byte ptr [eax] ; add byte ptr [eax], al ; or eax, 0xffffffff ; pop edi ; pop esi ; ret
0x10022ba6 add byte ptr [edx], ch ; add byte ptr [eax], al ; add byte ptr [ebx + 0x5e5fffc8], al ; ret
0x10022bb8 ret
0x10022bb7 pop esi ; ret
0x10022bb6 pop edi ; pop esi ; ret
0x10022bb5 add byte ptr [edi + 0x5e], bl ; ret
0x10022bb4 add byte ptr [eax], al ; pop edi ; pop esi ; ret
0x10022bb3 add byte ptr [eax], al ; add byte ptr [edi + 0x5e], bl ; ret
0x10022bb2 add dword ptr [eax], eax ; add byte ptr [eax], al ; pop edi ; pop esi ; ret
0x10022bb1 mov eax, 1 ; pop edi ; pop esi ; ret
0x10022bb0 ret ; mov eax, 1 ; pop edi ; pop esi ; ret
0x10022baf pop esi ; ret ; mov eax, 1 ; pop edi ; pop esi ; ret
0x10022bae pop edi ; pop esi ; ret ; mov eax, 1 ; pop edi ; pop esi ; ret
0x10022bbd ret
0x10022bbc pop esi ; ret
0x10022bbb pop edi ; pop esi ; ret
0x10022bb9 xor eax, eax ; pop edi ; pop esi ; ret
0x10022bb8 ret ; xor eax, eax ; pop edi ; pop esi ; ret
0x10022bb7 pop esi ; ret ; xor eax, eax ; pop edi ; pop esi ; ret
0x10022bb6 pop edi ; pop esi ; ret ; xor eax, eax ; pop edi ; pop esi ; ret
0x10022bb5 add byte ptr [edi + 0x5e], bl ; ret ; xor eax, eax ; pop edi ; pop esi ; ret
0x10022bb4 add byte ptr [eax], al ; pop edi ; pop esi ; ret ; xor eax, eax ; pop edi ; pop esi ; ret
0x10022bb3 add byte ptr [eax], al ; add byte ptr [edi + 0x5e], bl ; ret ; xor eax, eax ; pop edi ; pop esi ; ret
0x10022bd8 ret
0x10022bd6 les ecx, ptr [eax] ; ret
0x10022bd5 add esp, 8 ; ret
0x10022bd2 imul edi, edi, 0x8c483ff ; ret
0x10022bd1 sti ; imul edi, edi, 0x8c483ff ; ret
0x10022bd0 call 0xffff6a00 ; add esp, 8 ; ret
0x10022bcf push eax ; call 0xffff6a01 ; add esp, 8 ; ret
0x10022bce or byte ptr [eax - 0x18], dl ; sti ; imul edi, edi, 0x8c483ff ; ret
0x10022be9 ret
0x10022be7 loopne 0xa ; ret
0x10022be6 and eax, 8 ; ret
0x10022be5 dec edx ; and eax, 8 ; ret
0x10022be4 add al, 0x4a ; and eax, 8 ; ret
0x10022be3 mov al, byte ptr [edx + ecx*2] ; and eax, 8 ; ret
0x10022be1 add dl, byte ptr [eax] ; mov al, byte ptr [edx + ecx*2] ; and eax, 8 ; ret
0x10022bdf adc byte ptr [edx + 0x48a1002], al ; dec edx ; and eax, 8 ; ret
0x10022c3f ret
0x10022c3d shl eax, cl ; ret
0x10022c3c ret 0xe0d3 ; ret
0x10022c3b movsd dword ptr es:[edi], dword ptr [esi] ; ret 0xe0d3 ; ret
0x10022c3a shld edx, eax, cl ; shl eax, cl ; ret
0x10022c39 push es ; shld edx, eax, cl ; shl eax, cl ; ret
0x10022c38 jae 8 ; shld edx, eax, cl ; shl eax, cl ; ret
0x10022c37 and byte ptr [ebx + 6], dh ; shld edx, eax, cl ; shl eax, cl ; ret
0x10022c36 stc ; and byte ptr [ebx + 6], dh ; shld edx, eax, cl ; shl eax, cl ; ret
0x10022c35 cmp cl, 0x20 ; jae 0xb ; shld edx, eax, cl ; shl eax, cl ; ret
0x10022c49 ret
0x10022c47 shl edx, cl ; ret
0x10022c46 pop ds ; shl edx, cl ; ret
0x10022c45 loope 0x21 ; shl edx, cl ; ret
0x10022c44 and cl, 0x1f ; shl edx, cl ; ret
0x10022c42 xor eax, eax ; and cl, 0x1f ; shl edx, cl ; ret
0x10022c40 mov edx, eax ; xor eax, eax ; and cl, 0x1f ; shl edx, cl ; ret
0x10022c3f ret ; mov edx, eax ; xor eax, eax ; and cl, 0x1f ; shl edx, cl ; ret
0x10022c4e ret
0x10022c4c xor edx, edx ; ret
0x10022c4b sal byte ptr [ebx], 0xd2 ; ret
0x10022c4a xor eax, eax ; xor edx, edx ; ret
0x10022c49 ret ; xor eax, eax ; xor edx, edx ; ret
0x10022c48 loop 0xffffffc5 ; xor eax, eax ; xor edx, edx ; ret
0x10022c47 shl edx, cl ; ret ; xor eax, eax ; xor edx, edx ; ret
0x10022c46 pop ds ; shl edx, cl ; ret ; xor eax, eax ; xor edx, edx ; ret
0x10022c45 loope 0x21 ; shl edx, cl ; ret ; xor eax, eax ; xor edx, edx ; ret
0x10022c44 and cl, 0x1f ; shl edx, cl ; ret ; xor eax, eax ; xor edx, edx ; ret
0x10022d13 ret
0x10022d11 les ebx, ptr [eax] ; ret
0x10022d10 add esp, 0x18 ; ret
0x10022d0f pop ebx ; add esp, 0x18 ; ret
0x10022d0e pop ebp ; pop ebx ; add esp, 0x18 ; ret
0x10022d0d pop esi ; pop ebp ; pop ebx ; add esp, 0x18 ; ret
0x10022d0c pop edi ; pop esi ; pop ebp ; pop ebx ; add esp, 0x18 ; ret
0x10022d0b rcr dword ptr [edi + 0x5e], cl ; pop ebp ; pop ebx ; add esp, 0x18 ; ret
0x10022d09 push eax ; call ebx ; pop edi ; pop esi ; pop ebp ; pop ebx ; add esp, 0x18 ; ret
0x10022d51 ret
0x10022d4f les ebx, ptr [eax] ; ret
0x10022d4e add esp, 0x18 ; ret
0x10022d4d pop ebx ; add esp, 0x18 ; ret
0x10022d4c pop ebp ; pop ebx ; add esp, 0x18 ; ret
0x10022d4b pop esi ; pop ebp ; pop ebx ; add esp, 0x18 ; ret
0x10022d4a pop edi ; pop esi ; pop ebp ; pop ebx ; add esp, 0x18 ; ret
0x10022d49 add byte ptr [edi + 0x5e], bl ; pop ebp ; pop ebx ; add esp, 0x18 ; ret
0x10022d48 add byte ptr [eax], al ; pop edi ; pop esi ; pop ebp ; pop ebx ; add esp, 0x18 ; ret
0x10022d47 add byte ptr [eax], al ; add byte ptr [edi + 0x5e], bl ; pop ebp ; pop ebx ; add esp, 0x18 ; ret
0x10022d63 ret
0x10022d61 les ebx, ptr [eax] ; ret
0x10022d60 add esp, 0x18 ; ret
0x10022d5f pop ebx ; add esp, 0x18 ; ret
0x10022d5e pop ebp ; pop ebx ; add esp, 0x18 ; ret
0x10022d5d pop esi ; pop ebp ; pop ebx ; add esp, 0x18 ; ret
0x10022d5c pop edi ; pop esi ; pop ebp ; pop ebx ; add esp, 0x18 ; ret
0x10022d5b add byte ptr [edi + 0x5e], bl ; pop ebp ; pop ebx ; add esp, 0x18 ; ret
0x10022d5a add byte ptr [eax], al ; pop edi ; pop esi ; pop ebp ; pop ebx ; add esp, 0x18 ; ret
0x10022d59 add byte ptr [eax], al ; add byte ptr [edi + 0x5e], bl ; pop ebp ; pop ebx ; add esp, 0x18 ; ret
0x10022d75 ret
0x10022d73 les ebx, ptr [eax] ; ret
0x10022d72 add esp, 0x18 ; ret
0x10022d71 pop ebx ; add esp, 0x18 ; ret
0x10022d70 pop ebp ; pop ebx ; add esp, 0x18 ; ret
0x10022d6f pop esi ; pop ebp ; pop ebx ; add esp, 0x18 ; ret
0x10022d6e pop edi ; pop esi ; pop ebp ; pop ebx ; add esp, 0x18 ; ret
0x10022d6d add byte ptr [edi + 0x5e], bl ; pop ebp ; pop ebx ; add esp, 0x18 ; ret
0x10022d6c add byte ptr [eax], al ; pop edi ; pop esi ; pop ebp ; pop ebx ; add esp, 0x18 ; ret
0x10022d6b add byte ptr [eax], al ; add byte ptr [edi + 0x5e], bl ; pop ebp ; pop ebx ; add esp, 0x18 ; ret
0x10022d8d ret
0x10022d8b les ebx, ptr [eax] ; ret
0x10022d8a add esp, 0x18 ; ret
0x10022d89 pop ebx ; add esp, 0x18 ; ret
0x10022d88 pop ebp ; pop ebx ; add esp, 0x18 ; ret
0x10022d87 pop esi ; pop ebp ; pop ebx ; add esp, 0x18 ; ret
0x10022d86 pop edi ; pop esi ; pop ebp ; pop ebx ; add esp, 0x18 ; ret
0x10022d85 or byte ptr [edi + 0x5e], bl ; pop ebp ; pop ebx ; add esp, 0x18 ; ret
0x10022d84 jne 0xa ; pop edi ; pop esi ; pop ebp ; pop ebx ; add esp, 0x18 ; ret
0x10022d83 sal byte ptr [ebp + 8], 0x5f ; pop esi ; pop ebp ; pop ebx ; add esp, 0x18 ; ret
0x10022da5 ret
0x10022da3 les ebx, ptr [eax] ; ret
0x10022da2 add esp, 0x18 ; ret
0x10022da1 pop ebx ; add esp, 0x18 ; ret
0x10022da0 pop ebp ; pop ebx ; add esp, 0x18 ; ret
0x10022d9f pop esi ; pop ebp ; pop ebx ; add esp, 0x18 ; ret
0x10022d9e pop edi ; pop esi ; pop ebp ; pop ebx ; add esp, 0x18 ; ret
0x10022d9d add byte ptr [edi + 0x5e], bl ; pop ebp ; pop ebx ; add esp, 0x18 ; ret
0x10022d9c add byte ptr [eax], al ; pop edi ; pop esi ; pop ebp ; pop ebx ; add esp, 0x18 ; ret
0x10022d9b add byte ptr [eax], al ; add byte ptr [edi + 0x5e], bl ; pop ebp ; pop ebx ; add esp, 0x18 ; ret
0x10022ddc ret
0x10022dda les ebx, ptr [eax] ; ret
0x10022dd9 add esp, 0x18 ; ret
0x10022dd8 pop ebx ; add esp, 0x18 ; ret
0x10022dd7 pop ebp ; pop ebx ; add esp, 0x18 ; ret
0x10022dd6 pop esi ; pop ebp ; pop ebx ; add esp, 0x18 ; ret
0x10022dd5 pop edi ; pop esi ; pop ebp ; pop ebx ; add esp, 0x18 ; ret
0x10022dd4 add byte ptr [edi + 0x5e], bl ; pop ebp ; pop ebx ; add esp, 0x18 ; ret
0x10022dd3 add byte ptr [eax], al ; pop edi ; pop esi ; pop ebp ; pop ebx ; add esp, 0x18 ; ret
0x10022dd2 add byte ptr [eax], al ; add byte ptr [edi + 0x5e], bl ; pop ebp ; pop ebx ; add esp, 0x18 ; ret
0x10022df4 ret
0x10022df2 les ebx, ptr [eax] ; ret
0x10022df1 add esp, 0x18 ; ret
0x10022df0 pop ebx ; add esp, 0x18 ; ret
0x10022def pop ebp ; pop ebx ; add esp, 0x18 ; ret
0x10022dee pop esi ; pop ebp ; pop ebx ; add esp, 0x18 ; ret
0x10022ded pop edi ; pop esi ; pop ebp ; pop ebx ; add esp, 0x18 ; ret
0x10022dec add byte ptr [edi + 0x5e], bl ; pop ebp ; pop ebx ; add esp, 0x18 ; ret
0x10022deb add byte ptr [eax], al ; pop edi ; pop esi ; pop ebp ; pop ebx ; add esp, 0x18 ; ret
0x10022dea add byte ptr [eax], al ; add byte ptr [edi + 0x5e], bl ; pop ebp ; pop ebx ; add esp, 0x18 ; ret
0x10022e2e ret
0x10022e2c les ebx, ptr [eax] ; ret
0x10022e2b add esp, 0x18 ; ret
0x10022e2a pop ebx ; add esp, 0x18 ; ret
0x10022e29 pop ebp ; pop ebx ; add esp, 0x18 ; ret
0x10022e28 pop esi ; pop ebp ; pop ebx ; add esp, 0x18 ; ret
0x10022e27 pop edi ; pop esi ; pop ebp ; pop ebx ; add esp, 0x18 ; ret
0x10022e26 add byte ptr [edi + 0x5e], bl ; pop ebp ; pop ebx ; add esp, 0x18 ; ret
0x10022e25 add byte ptr [eax], al ; pop edi ; pop esi ; pop ebp ; pop ebx ; add esp, 0x18 ; ret
0x10022e24 add byte ptr [eax], al ; add byte ptr [edi + 0x5e], bl ; pop ebp ; pop ebx ; add esp, 0x18 ; ret
0x10022e3b ret
0x10022e39 les ebx, ptr [eax] ; ret
0x10022e38 add esp, 0x18 ; ret
0x10022e37 pop ebx ; add esp, 0x18 ; ret
0x10022e36 pop ebp ; pop ebx ; add esp, 0x18 ; ret
0x10022e35 pop esi ; pop ebp ; pop ebx ; add esp, 0x18 ; ret
0x10022e34 pop edi ; pop esi ; pop ebp ; pop ebx ; add esp, 0x18 ; ret
0x10022e33 add byte ptr [edi + 0x5e], bl ; pop ebp ; pop ebx ; add esp, 0x18 ; ret
0x10022e32 add byte ptr [eax], al ; pop edi ; pop esi ; pop ebp ; pop ebx ; add esp, 0x18 ; ret
0x10022e31 add byte ptr [eax], al ; add byte ptr [edi + 0x5e], bl ; pop ebp ; pop ebx ; add esp, 0x18 ; ret
0x10022e5a ret
0x10022e58 les ebx, ptr [eax] ; ret
0x10022e57 add esp, 0x18 ; ret
0x10022e56 pop ebx ; add esp, 0x18 ; ret
0x10022e55 pop ebp ; pop ebx ; add esp, 0x18 ; ret
0x10022e54 pop esi ; pop ebp ; pop ebx ; add esp, 0x18 ; ret
0x10022e53 pop edi ; pop esi ; pop ebp ; pop ebx ; add esp, 0x18 ; ret
0x10022e52 or byte ptr [edi + 0x5e], bl ; pop ebp ; pop ebx ; add esp, 0x18 ; ret
0x10022e51 jne 0xa ; pop edi ; pop esi ; pop ebp ; pop ebx ; add esp, 0x18 ; ret
0x10022e50 in eax, dx ; jne 0xb ; pop edi ; pop esi ; pop ebp ; pop ebx ; add esp, 0x18 ; ret
0x10022e79 ret
0x10022e77 les ebx, ptr [eax] ; ret
0x10022e76 add esp, 0x18 ; ret
0x10022e75 pop ebx ; add esp, 0x18 ; ret
0x10022e74 pop ebp ; pop ebx ; add esp, 0x18 ; ret
0x10022e73 pop esi ; pop ebp ; pop ebx ; add esp, 0x18 ; ret
0x10022e72 pop edi ; pop esi ; pop ebp ; pop ebx ; add esp, 0x18 ; ret
0x10022e71 rcr byte ptr [edi + 0x5e], 0x5d ; pop ebx ; add esp, 0x18 ; ret
0x10022e70 xor eax, eax ; pop edi ; pop esi ; pop ebp ; pop ebx ; add esp, 0x18 ; ret
0x10022e6f or dh, byte ptr [ebx] ; rcr byte ptr [edi + 0x5e], 0x5d ; pop ebx ; add esp, 0x18 ; ret
0x10022f14 ret
0x10022f12 les ebx, ptr [eax] ; ret
0x10022f11 add esp, 0x18 ; ret
0x10022f10 pop ebx ; add esp, 0x18 ; ret
0x10022f0f pop ebp ; pop ebx ; add esp, 0x18 ; ret
0x10022f0e pop esi ; pop ebp ; pop ebx ; add esp, 0x18 ; ret
0x10022f0d pop edi ; pop esi ; pop ebp ; pop ebx ; add esp, 0x18 ; ret
0x10022f0b mov eax, esi ; pop edi ; pop esi ; pop ebp ; pop ebx ; add esp, 0x18 ; ret
0x10022f49 ret
0x10022f48 pop esi ; ret
0x10022f47 pop edi ; pop esi ; ret
0x10022f45 sub eax, esi ; pop edi ; pop esi ; ret
0x10022f44 add eax, 0x5e5fc62b ; ret
0x10022f43 jne 7 ; sub eax, esi ; pop edi ; pop esi ; ret
0x10022f42 add byte ptr [ebp + 5], dh ; sub eax, esi ; pop edi ; pop esi ; ret
0x10022f41 cmp byte ptr [eax], al ; jne 9 ; sub eax, esi ; pop edi ; pop esi ; ret
0x10022f40 cmp byte ptr [eax], 0 ; jne 0xa ; sub eax, esi ; pop edi ; pop esi ; ret
0x10022f3f cmp byte ptr [eax], 0 ; jne 0xb ; sub eax, esi ; pop edi ; pop esi ; ret
0x10022f4e ret
0x10022f4c mov eax, edx ; ret
0x10022f4b pop esi ; mov eax, edx ; ret
0x10022f4a pop edi ; pop esi ; mov eax, edx ; ret
0x10022f49 ret ; pop edi ; pop esi ; mov eax, edx ; ret
0x10022f48 pop esi ; ret ; pop edi ; pop esi ; mov eax, edx ; ret
0x10022f47 pop edi ; pop esi ; ret ; pop edi ; pop esi ; mov eax, edx ; ret
0x10022f45 sub eax, esi ; pop edi ; pop esi ; ret ; pop edi ; pop esi ; mov eax, edx ; ret
0x10022f44 add eax, 0x5e5fc62b ; ret ; pop edi ; pop esi ; mov eax, edx ; ret
0x10022fcd ret
0x10022fcc pop ecx ; ret
0x10022fcb pop ebx ; pop ecx ; ret
0x10022fca pop ebp ; pop ebx ; pop ecx ; ret
0x10022fc9 pop esi ; pop ebp ; pop ebx ; pop ecx ; ret
0x10022fc8 pop edi ; pop esi ; pop ebp ; pop ebx ; pop ecx ; ret
0x10022fc7 lcall ptr [edi + 0x5e] ; pop ebp ; pop ebx ; pop ecx ; ret
0x10022fc6 enter 0x5fff, 0x5e ; pop ebp ; pop ebx ; pop ecx ; ret
0x10022fc5 or eax, 0xffffffff ; pop edi ; pop esi ; pop ebp ; pop ebx ; pop ecx ; ret
0x10022fc4 pop eax ; or eax, 0xffffffff ; pop edi ; pop esi ; pop ebp ; pop ebx ; pop ecx ; ret
0x10022fc3 je 0x5a ; or eax, 0xffffffff ; pop edi ; pop esi ; pop ebp ; pop ebx ; pop ecx ; ret
0x10022fd9 ret
0x10022fd8 pop ecx ; ret
0x10022fd7 pop ebx ; pop ecx ; ret
0x10022fd6 pop ebp ; pop ebx ; pop ecx ; ret
0x10022fd5 pop esi ; pop ebp ; pop ebx ; pop ecx ; ret
0x10022fd4 pop edi ; pop esi ; pop ebp ; pop ebx ; pop ecx ; ret
0x10022fd3 rcr byte ptr [edi + 0x5e], 0x5d ; pop ebx ; pop ecx ; ret
0x10022fd2 xor eax, eax ; pop edi ; pop esi ; pop ebp ; pop ebx ; pop ecx ; ret
0x10022fd1 or byte ptr [ebx], dh ; rcr byte ptr [edi + 0x5e], 0x5d ; pop ebx ; pop ecx ; ret
0x10022fd0 je 0xa ; xor eax, eax ; pop edi ; pop esi ; pop ebp ; pop ebx ; pop ecx ; ret
0x10022fcf in eax, dx ; je 0xb ; xor eax, eax ; pop edi ; pop esi ; pop ebp ; pop ebx ; pop ecx ; ret
0x10023105 ret
0x10023104 pop ecx ; ret
0x10023103 pop ebx ; pop ecx ; ret
0x10023102 pop ebp ; pop ebx ; pop ecx ; ret
0x10023101 pop esi ; pop ebp ; pop ebx ; pop ecx ; ret
0x10023100 pop edi ; pop esi ; pop ebp ; pop ebx ; pop ecx ; ret
0x100230ff rcr byte ptr [edi + 0x5e], 0x5d ; pop ebx ; pop ecx ; ret
0x100230fe xor eax, eax ; pop edi ; pop esi ; pop ebp ; pop ebx ; pop ecx ; ret
0x100230fd add al, 0x33 ; rcr byte ptr [edi + 0x5e], 0x5d ; pop ebx ; pop ecx ; ret
0x100230fc les eax, ptr [ebx + esi] ; rcr byte ptr [edi + 0x5e], 0x5d ; pop ebx ; pop ecx ; ret
0x100230fb add esp, 4 ; xor eax, eax ; pop edi ; pop esi ; pop ebp ; pop ebx ; pop ecx ; ret
0x1002310d ret
0x1002310c pop ecx ; ret
0x1002310b pop ebx ; pop ecx ; ret
0x10023109 pop esi ; pop ebp ; pop ebx ; pop ecx ; ret
0x10023108 pop edi ; pop esi ; pop ebp ; pop ebx ; pop ecx ; ret
0x10023107 rcr byte ptr [edi + 0x5e], 0x5d ; pop ebx ; pop ecx ; ret
0x10023106 xor eax, eax ; pop edi ; pop esi ; pop ebp ; pop ebx ; pop ecx ; ret
0x10023105 ret ; xor eax, eax ; pop edi ; pop esi ; pop ebp ; pop ebx ; pop ecx ; ret
0x10023104 pop ecx ; ret ; xor eax, eax ; pop edi ; pop esi ; pop ebp ; pop ebx ; pop ecx ; ret
0x10023103 pop ebx ; pop ecx ; ret ; xor eax, eax ; pop edi ; pop esi ; pop ebp ; pop ebx ; pop ecx ; ret
0x10023116 ret
0x10023115 pop ecx ; ret
0x10023114 pop ebx ; pop ecx ; ret
0x10023113 lcall ptr [ebx + 0x59] ; ret
0x10023112 enter 0x5bff, 0x59 ; ret
0x10023111 or eax, 0xffffffff ; pop ebx ; pop ecx ; ret
0x10023110 pop ebp ; or eax, 0xffffffff ; pop ebx ; pop ecx ; ret
0x1002310f pop esi ; pop ebp ; or eax, 0xffffffff ; pop ebx ; pop ecx ; ret
0x1002310e pop edi ; pop esi ; pop ebp ; or eax, 0xffffffff ; pop ebx ; pop ecx ; ret
0x1002310d ret ; pop edi ; pop esi ; pop ebp ; or eax, 0xffffffff ; pop ebx ; pop ecx ; ret
0x1002310c pop ecx ; ret ; pop edi ; pop esi ; pop ebp ; or eax, 0xffffffff ; pop ebx ; pop ecx ; ret
0x100231af ret
0x100231ae pop ebx ; ret
0x100231ad pop esi ; pop ebx ; ret
0x100231ac pop edi ; pop esi ; pop ebx ; ret
0x100231ab fcomp dword ptr [edi + 0x5e] ; pop ebx ; ret
0x100231aa neg eax ; pop edi ; pop esi ; pop ebx ; ret
0x100231a9 add dh, bh ; fcomp dword ptr [edi + 0x5e] ; pop ebx ; ret
0x100231a8 clc ; add dh, bh ; fcomp dword ptr [edi + 0x5e] ; pop ebx ; ret
0x100231a7 sar eax, 2 ; neg eax ; pop edi ; pop esi ; pop ebx ; ret
0x100231a6 mov cl, 0xf8 ; add dh, bh ; fcomp dword ptr [edi + 0x5e] ; pop ebx ; ret
0x100231a5 sub eax, esi ; sar eax, 2 ; neg eax ; pop edi ; pop esi ; pop ebx ; ret
0x100231c0 ret
0x100231bf pop ebx ; ret
0x100231be pop esi ; pop ebx ; ret
0x100231bd pop edi ; pop esi ; pop ebx ; ret
0x100231bc add bl, byte ptr [edi + 0x5e] ; pop ebx ; ret
0x100231bb clc ; add bl, byte ptr [edi + 0x5e] ; pop ebx ; ret
0x100231ba sar eax, 2 ; pop edi ; pop esi ; pop ebx ; ret
0x100231b9 ret 0xf8c1 ; add bl, byte ptr [edi + 0x5e] ; pop ebx ; ret
0x100231b8 sub eax, edx ; sar eax, 2 ; pop edi ; pop esi ; pop ebx ; ret
0x100231b6 mov eax, esi ; sub eax, edx ; sar eax, 2 ; pop edi ; pop esi ; pop ebx ; ret
0x100231d3 ret
0x100231d1 neg eax ; ret
0x100231d0 pop ebx ; neg eax ; ret
0x100231cf pop esi ; pop ebx ; neg eax ; ret
0x100231ce add bl, byte ptr [esi + 0x5b] ; neg eax ; ret
0x100231cd clc ; add bl, byte ptr [esi + 0x5b] ; neg eax ; ret
0x100231cc sar eax, 2 ; pop esi ; pop ebx ; neg eax ; ret
0x100231cb pop edi ; sar eax, 2 ; pop esi ; pop ebx ; neg eax ; ret
0x100231c9 sub eax, esi ; pop edi ; sar eax, 2 ; pop esi ; pop ebx ; neg eax ; ret
0x100231ee ret
0x100231ed pop edi ; ret
0x100231eb xor eax, eax ; pop edi ; ret
0x100231e9 jne 6 ; xor eax, eax ; pop edi ; ret
0x100231e8 push dword ptr [ebp + 4] ; xor eax, eax ; pop edi ; ret
0x100231e7 test edi, edi ; jne 8 ; xor eax, eax ; pop edi ; ret
0x100231e6 leave ; test edi, edi ; jne 9 ; xor eax, eax ; pop edi ; ret
0x100231e5 xor ecx, ecx ; test edi, edi ; jne 0xa ; xor eax, eax ; pop edi ; ret
0x100231e4 or byte ptr [ebx], dh ; leave ; test edi, edi ; jne 0xb ; xor eax, eax ; pop edi ; ret
0x10023244 ret
0x10023240 sal byte ptr [ebp - 0x17], 0x8b ; ret
0x1002323e add al, 0x85 ; sal byte ptr [ebp - 0x17], 0x8b ; ret
0x1002324e ret
0x1002324d pop edi ; ret
0x1002324c pop esi ; pop edi ; ret
0x1002324b pop ebx ; pop esi ; pop edi ; ret
0x1002324a add byte ptr [ebx + 0x5e], bl ; pop edi ; ret
0x10023249 add byte ptr [eax], al ; pop ebx ; pop esi ; pop edi ; ret
0x10023248 add byte ptr [eax], al ; add byte ptr [ebx + 0x5e], bl ; pop edi ; ret
0x10023247 add byte ptr [eax], al ; add byte ptr [eax], al ; pop ebx ; pop esi ; pop edi ; ret
0x10023246 push es ; add byte ptr [eax], al ; add byte ptr [eax], al ; pop ebx ; pop esi ; pop edi ; ret
0x10023245 mov dword ptr [esi], 0 ; pop ebx ; pop esi ; pop edi ; ret
0x10023244 ret ; mov dword ptr [esi], 0 ; pop ebx ; pop esi ; pop edi ; ret
0x10023314 ret
0x10023313 pop ebp ; ret
0x10023312 in eax, 0x5d ; ret
0x10023311 mov esp, ebp ; pop ebp ; ret
0x10023310 pop ebx ; mov esp, ebp ; pop ebp ; ret
0x1002330f pop esi ; pop ebx ; mov esp, ebp ; pop ebp ; ret
0x1002330e pop edi ; pop esi ; pop ebx ; mov esp, ebp ; pop ebp ; ret
0x1002330d pop ebp ; pop edi ; pop esi ; pop ebx ; mov esp, ebp ; pop ebp ; ret
0x1002330c add byte ptr [ebp + 0x5f], bl ; pop esi ; pop ebx ; mov esp, ebp ; pop ebp ; ret
0x1002330b add byte ptr [eax], al ; pop ebp ; pop edi ; pop esi ; pop ebx ; mov esp, ebp ; pop ebp ; ret
0x100233b8 ret
0x100233b7 pop ebx ; ret
0x100233b6 pop esi ; pop ebx ; ret
0x100233b5 pop edi ; pop esi ; pop ebx ; ret
0x100233b4 adc byte ptr [edi + 0x5e], bl ; pop ebx ; ret
0x100233b3 add al, 0x10 ; pop edi ; pop esi ; pop ebx ; ret
0x100233b2 mov eax, dword ptr [0x5e5f1004] ; pop ebx ; ret
0x100233b1 add byte ptr [ecx + 0x5e5f1004], ah ; pop ebx ; ret
0x100233b0 adc eax, 0x1004a100 ; pop edi ; pop esi ; pop ebx ; ret
0x100233af call dword ptr [0x1004a100] ; pop edi ; pop esi ; pop ebx ; ret
0x100233ae push ebx ; call dword ptr [0x1004a100] ; pop edi ; pop esi ; pop ebx ; ret
0x100233be ret
0x100233bd pop ebx ; ret
0x100233bb xor eax, eax ; pop ebx ; ret
0x100233ba pop esi ; xor eax, eax ; pop ebx ; ret
0x100233b9 pop edi ; pop esi ; xor eax, eax ; pop ebx ; ret
0x100233b8 ret ; pop edi ; pop esi ; xor eax, eax ; pop ebx ; ret
0x100233b7 pop ebx ; ret ; pop edi ; pop esi ; xor eax, eax ; pop ebx ; ret
0x100233b6 pop esi ; pop ebx ; ret ; pop edi ; pop esi ; xor eax, eax ; pop ebx ; ret
0x100233b5 pop edi ; pop esi ; pop ebx ; ret ; pop edi ; pop esi ; xor eax, eax ; pop ebx ; ret
0x100233b4 adc byte ptr [edi + 0x5e], bl ; pop ebx ; ret ; pop edi ; pop esi ; xor eax, eax ; pop ebx ; ret
0x10023492 ret
0x10023490 add byte ptr [eax], al ; ret
0x1002348e test byte ptr [eax], al ; add byte ptr [eax], al ; ret
0x1002348c add esp, 0x84 ; ret
0x1002348b pop ebx ; add esp, 0x84 ; ret
0x1002348a pop ebp ; pop ebx ; add esp, 0x84 ; ret
0x10023489 pop esi ; pop ebp ; pop ebx ; add esp, 0x84 ; ret
0x10023488 pop edi ; pop esi ; pop ebp ; pop ebx ; add esp, 0x84 ; ret
0x100234bf ret
0x100234bd add byte ptr [eax], al ; ret
0x100234bb test byte ptr [eax], al ; add byte ptr [eax], al ; ret
0x100234b9 add esp, 0x84 ; ret
0x100234b8 pop ebx ; add esp, 0x84 ; ret
0x100234b7 pop ebp ; pop ebx ; add esp, 0x84 ; ret
0x100234b6 pop esi ; pop ebp ; pop ebx ; add esp, 0x84 ; ret
0x100234b5 pop edi ; pop esi ; pop ebp ; pop ebx ; add esp, 0x84 ; ret
0x10023541 ret
0x1002355d ret
0x1002355b add byte ptr [eax], al ; ret
0x10023559 test byte ptr [eax], al ; add byte ptr [eax], al ; ret
0x10023557 add esp, 0x84 ; ret
0x10023556 pop ebx ; add esp, 0x84 ; ret
0x10023555 pop ebp ; pop ebx ; add esp, 0x84 ; ret
0x10023554 pop esi ; pop ebp ; pop ebx ; add esp, 0x84 ; ret
0x10023553 pop edi ; pop esi ; pop ebp ; pop ebx ; add esp, 0x84 ; ret
0x1002356b ret
0x10023569 add byte ptr [eax], al ; ret
0x10023567 test byte ptr [eax], al ; add byte ptr [eax], al ; ret
0x10023565 add esp, 0x84 ; ret
0x10023564 pop ebx ; add esp, 0x84 ; ret
0x10023561 or eax, 0xffffffff ; pop ebx ; add esp, 0x84 ; ret
0x100235d7 ret
0x100235d6 pop ebx ; ret
0x100235d5 pop ebp ; pop ebx ; ret
0x100235d4 pop esi ; pop ebp ; pop ebx ; ret
0x100235d3 pop edi ; pop esi ; pop ebp ; pop ebx ; ret
0x100235d2 salc ; pop edi ; pop esi ; pop ebp ; pop ebx ; ret
0x100235d1 call esi ; pop edi ; pop esi ; pop ebp ; pop ebx ; ret
0x100235d0 push eax ; call esi ; pop edi ; pop esi ; pop ebp ; pop ebx ; ret
0x100235cf push edx ; push eax ; call esi ; pop edi ; pop esi ; pop ebp ; pop ebx ; ret
0x100235ce push ecx ; push edx ; push eax ; call esi ; pop edi ; pop esi ; pop ebp ; pop ebx ; ret
0x100235cd sbb byte ptr [ecx + 0x52], dl ; push eax ; call esi ; pop edi ; pop esi ; pop ebp ; pop ebx ; ret
0x10023611 ret
0x10023610 pop ebx ; ret
0x1002360f pop ebp ; pop ebx ; ret
0x1002360e pop esi ; pop ebp ; pop ebx ; ret
0x1002360d pop edi ; pop esi ; pop ebp ; pop ebx ; ret
0x1002360c add eax, 0x5b5d5e5f ; ret
0x1002360b jne 7 ; pop edi ; pop esi ; pop ebp ; pop ebx ; ret
0x10023609 test esi, esi ; jne 9 ; pop edi ; pop esi ; pop ebp ; pop ebx ; ret
0x10023607 mov esi, eax ; test esi, esi ; jne 0xb ; pop edi ; pop esi ; pop ebp ; pop ebx ; ret
0x10023625 ret
0x10023624 pop ebx ; ret
0x10023623 pop ebp ; pop ebx ; ret
0x10023622 pop esi ; pop ebp ; pop ebx ; ret
0x10023621 pop edi ; pop esi ; pop ebp ; pop ebx ; ret
0x10023620 add eax, 0x5b5d5e5f ; ret
0x1002361f jne 7 ; pop edi ; pop esi ; pop ebp ; pop ebx ; ret
0x1002361e push dword ptr [ebp + 5] ; pop edi ; pop esi ; pop ebp ; pop ebx ; ret
0x1002361d test edi, edi ; jne 9 ; pop edi ; pop esi ; pop ebp ; pop ebx ; ret
0x1002361c add al, 0x85 ; push dword ptr [ebp + 5] ; pop edi ; pop esi ; pop ebp ; pop ebx ; ret
0x1002361b les eax, ptr [eax*4 + 0x5f0575ff] ; pop esi ; pop ebp ; pop ebx ; ret
0x10023663 ret
0x10023662 pop ebx ; ret
0x10023661 pop ebp ; pop ebx ; ret
0x10023660 pop esi ; pop ebp ; pop ebx ; ret
0x1002365f pop edi ; pop esi ; pop ebp ; pop ebx ; ret
0x1002365d mov eax, esi ; pop edi ; pop esi ; pop ebp ; pop ebx ; ret
0x1002365a add esp, 4 ; mov eax, esi ; pop edi ; pop esi ; pop ebp ; pop ebx ; ret
0x10023659 inc dword ptr [ebx - 0x3974fb3c] ; pop edi ; pop esi ; pop ebp ; pop ebx ; ret
0x1002368f ret
0x1002368e pop ebx ; ret
0x1002368d pop ebp ; pop ebx ; ret
0x1002368c pop esi ; pop ebp ; pop ebx ; ret
0x1002368b pop edi ; pop esi ; pop ebp ; pop ebx ; ret
0x1002368a rcr byte ptr [edi + 0x5e], 0x5d ; pop ebx ; ret
0x10023689 xor eax, eax ; pop edi ; pop esi ; pop ebp ; pop ebx ; ret
0x10023688 add al, 0x33 ; rcr byte ptr [edi + 0x5e], 0x5d ; pop ebx ; ret
0x10023687 les eax, ptr [ebx + esi] ; rcr byte ptr [edi + 0x5e], 0x5d ; pop ebx ; ret
0x10023686 add esp, 4 ; xor eax, eax ; pop edi ; pop esi ; pop ebp ; pop ebx ; ret
0x10023685 inc dword ptr [ebx - 0x3fccfb3c] ; pop edi ; pop esi ; pop ebp ; pop ebx ; ret
0x1002369f ret
0x1002369e pop ebx ; ret
0x1002369d pop ebp ; pop ebx ; ret
0x1002369c pop esi ; pop ebp ; pop ebx ; ret
0x1002369b pop edi ; pop esi ; pop ebp ; pop ebx ; ret
0x10023699 mov eax, esi ; pop edi ; pop esi ; pop ebp ; pop ebx ; ret
0x10023696 add esp, 4 ; mov eax, esi ; pop edi ; pop esi ; pop ebp ; pop ebx ; ret
0x10023695 inc dword ptr [ebx - 0x3974fb3c] ; pop edi ; pop esi ; pop ebp ; pop ebx ; ret
0x10023707 ret
0x10023706 pop ebx ; ret
0x10023705 pop ebp ; pop ebx ; ret
0x10023704 pop esi ; pop ebp ; pop ebx ; ret
0x10023703 pop edi ; pop esi ; pop ebp ; pop ebx ; ret
0x10023702 salc ; pop edi ; pop esi ; pop ebp ; pop ebx ; ret
0x10023701 call esi ; pop edi ; pop esi ; pop ebp ; pop ebx ; ret
0x10023700 push eax ; call esi ; pop edi ; pop esi ; pop ebp ; pop ebx ; ret
0x100236ff push edx ; push eax ; call esi ; pop edi ; pop esi ; pop ebp ; pop ebx ; ret
0x100236fe push ecx ; push edx ; push eax ; call esi ; pop edi ; pop esi ; pop ebp ; pop ebx ; ret
0x100236fd sbb byte ptr [ecx + 0x52], dl ; push eax ; call esi ; pop edi ; pop esi ; pop ebp ; pop ebx ; ret
0x10023741 ret
0x10023740 pop ebx ; ret
0x1002373f pop ebp ; pop ebx ; ret
0x1002373e pop esi ; pop ebp ; pop ebx ; ret
0x1002373d pop edi ; pop esi ; pop ebp ; pop ebx ; ret
0x1002373c add eax, 0x5b5d5e5f ; ret
0x1002373b jne 7 ; pop edi ; pop esi ; pop ebp ; pop ebx ; ret
0x1002373a push dword ptr [ebp + 5] ; pop edi ; pop esi ; pop ebp ; pop ebx ; ret
0x10023739 test edi, edi ; jne 9 ; pop edi ; pop esi ; pop ebp ; pop ebx ; ret
0x10023738 clc ; test edi, edi ; jne 0xa ; pop edi ; pop esi ; pop ebp ; pop ebx ; ret
0x10023737 mov edi, eax ; test edi, edi ; jne 0xb ; pop edi ; pop esi ; pop ebp ; pop ebx ; ret
0x10023758 ret
0x10023757 pop ebx ; ret
0x10023756 pop ebp ; pop ebx ; ret
0x10023755 pop esi ; pop ebp ; pop ebx ; ret
0x10023754 pop edi ; pop esi ; pop ebp ; pop ebx ; ret
0x10023753 add eax, 0x5b5d5e5f ; ret
0x10023752 jne 7 ; pop edi ; pop esi ; pop ebp ; pop ebx ; ret
0x10023751 div byte ptr [ebp + 5] ; pop edi ; pop esi ; pop ebp ; pop ebx ; ret
0x10023750 test esi, esi ; jne 9 ; pop edi ; pop esi ; pop ebp ; pop ebx ; ret
0x1002374f add al, 0x85 ; div byte ptr [ebp + 5] ; pop edi ; pop esi ; pop ebp ; pop ebx ; ret
0x1002374e les eax, ptr [eax*4 + 0x5f0575f6] ; pop esi ; pop ebp ; pop ebx ; ret
0x1002379f ret
0x1002379e pop ebx ; ret
0x1002379d pop ebp ; pop ebx ; ret
0x1002379c pop esi ; pop ebp ; pop ebx ; ret
0x1002379b pop edi ; pop esi ; pop ebp ; pop ebx ; ret
0x10023799 mov eax, edi ; pop edi ; pop esi ; pop ebp ; pop ebx ; ret
0x10023796 add esp, 4 ; mov eax, edi ; pop edi ; pop esi ; pop ebp ; pop ebx ; ret
0x10023795 inc dword ptr [ebx - 0x3874fb3c] ; pop edi ; pop esi ; pop ebp ; pop ebx ; ret
0x100237ce ret
0x100237cd pop ebx ; ret
0x100237cc pop ebp ; pop ebx ; ret
0x100237cb pop esi ; pop ebp ; pop ebx ; ret
0x100237ca pop edi ; pop esi ; pop ebp ; pop ebx ; ret
0x100237c9 rcr byte ptr [edi + 0x5e], 0x5d ; pop ebx ; ret
0x100237c8 xor eax, eax ; pop edi ; pop esi ; pop ebp ; pop ebx ; ret
0x100237c7 add al, 0x33 ; rcr byte ptr [edi + 0x5e], 0x5d ; pop ebx ; ret
0x100237c6 les eax, ptr [ebx + esi] ; rcr byte ptr [edi + 0x5e], 0x5d ; pop ebx ; ret
0x100237c5 add esp, 4 ; xor eax, eax ; pop edi ; pop esi ; pop ebp ; pop ebx ; ret
0x100237c4 inc dword ptr [ebx - 0x3fccfb3c] ; pop edi ; pop esi ; pop ebp ; pop ebx ; ret
0x100237de ret
0x100237dd pop ebx ; ret
0x100237dc pop ebp ; pop ebx ; ret
0x100237db pop esi ; pop ebp ; pop ebx ; ret
0x100237da pop edi ; pop esi ; pop ebp ; pop ebx ; ret
0x100237d8 mov eax, edi ; pop edi ; pop esi ; pop ebp ; pop ebx ; ret
0x100237d5 add esp, 4 ; mov eax, edi ; pop edi ; pop esi ; pop ebp ; pop ebx ; ret
0x100237d4 inc dword ptr [ebx - 0x3874fb3c] ; pop edi ; pop esi ; pop ebp ; pop ebx ; ret
0x10023887 ret
0x10023885 add al, 0x38 ; ret
0x10023884 les eax, ptr [eax + edi] ; ret
0x100238aa ret
0x100238a8 add al, 0x8b ; ret
0x100238a7 les eax, ptr [ebx + ecx*4] ; ret
0x100238a2 mov edx, 0x83ffff74 ; les eax, ptr [ebx + ecx*4] ; ret
0x100238a0 adc ebp, eax ; mov edx, 0x83ffff74 ; les eax, ptr [ebx + ecx*4] ; ret
0x100238af ret
0x100238ae leave ; ret
0x100238ad pop edi ; leave ; ret
0x100238ac pop esi ; pop edi ; leave ; ret
0x100238ab pop ebx ; pop esi ; pop edi ; leave ; ret
0x100238aa ret ; pop ebx ; pop esi ; pop edi ; leave ; ret
0x100238a9 mov eax, ebx ; pop ebx ; pop esi ; pop edi ; leave ; ret
0x100238a8 add al, 0x8b ; ret ; pop ebx ; pop esi ; pop edi ; leave ; ret
0x100238a7 les eax, ptr [ebx + ecx*4] ; ret ; pop ebx ; pop esi ; pop edi ; leave ; ret
0x100238a6 add esp, 4 ; mov eax, ebx ; pop ebx ; pop esi ; pop edi ; leave ; ret
0x100238a5 inc dword ptr [ebx - 0x3c74fb3c] ; pop ebx ; pop esi ; pop edi ; leave ; ret
0x100238d2 ret
0x100238d0 mov dword ptr [edx], ecx ; ret
0x100238cf pop esi ; mov dword ptr [edx], ecx ; ret
0x100238cd and al, 0x10 ; pop esi ; mov dword ptr [edx], ecx ; ret
0x100238cc push esp ; and al, 0x10 ; pop esi ; mov dword ptr [edx], ecx ; ret
0x100238cb mov edx, dword ptr [esp + 0x10] ; pop esi ; mov dword ptr [edx], ecx ; ret
0x100238ca add byte ptr [ebx + 0x5e102454], cl ; mov dword ptr [edx], ecx ; ret
0x100238c9 add byte ptr [eax], al ; mov edx, dword ptr [esp + 0x10] ; pop esi ; mov dword ptr [edx], ecx ; ret
0x100238c8 add byte ptr [eax], al ; add byte ptr [ebx + 0x5e102454], cl ; mov dword ptr [edx], ecx ; ret
0x10023947 ret
0x10023946 pop esi ; ret
0x10023945 pop edi ; pop esi ; ret
0x10023944 or al, 0x5f ; pop esi ; ret
0x10023943 les ecx, ptr [edi + ebx*2] ; pop esi ; ret
0x10023942 add esp, 0xc ; pop edi ; pop esi ; ret
0x10023941 inc dword ptr [ebx + 0x5e5f0cc4] ; ret
0x1002393d call 0xffffff73 ; add esp, 0xc ; pop edi ; pop esi ; ret
0x1002397d ret
0x1002397c pop esi ; ret
0x10023979 mov dword ptr [eax + 8], ecx ; pop esi ; ret
0x10023978 pop edi ; mov dword ptr [eax + 8], ecx ; pop esi ; ret
0x10023976 or ecx, edx ; pop edi ; mov dword ptr [eax + 8], ecx ; pop esi ; ret
0x10023974 shl ecx, 1 ; or ecx, edx ; pop edi ; mov dword ptr [eax + 8], ecx ; pop esi ; ret
0x10023973 pop ds ; shl ecx, 1 ; or ecx, edx ; pop edi ; mov dword ptr [eax + 8], ecx ; pop esi ; ret
0x100239ac ret
0x100239ab pop esi ; ret
0x100239a9 mov dword ptr [eax], ecx ; pop esi ; ret
0x100239a6 mov dword ptr [eax + 8], edx ; mov dword ptr [eax], ecx ; pop esi ; ret
0x100239a5 pop edi ; mov dword ptr [eax + 8], edx ; mov dword ptr [eax], ecx ; pop esi ; ret
0x100239a4 iretd ; pop edi ; mov dword ptr [eax + 8], edx ; mov dword ptr [eax], ecx ; pop esi ; ret
0x100239a3 or ecx, edi ; pop edi ; mov dword ptr [eax + 8], edx ; mov dword ptr [eax], ecx ; pop esi ; ret
0x100239a2 ljmp 0x850:0x895fcf0b ; mov dword ptr [eax], ecx ; pop esi ; ret
0x10023a7c ret
0x10023a92 ret
0x10023aa0 ret
0x10023a9d add esp, 0xc ; ret
0x10023a9c pop ebx ; add esp, 0xc ; ret
0x10023a9b pop ebp ; pop ebx ; add esp, 0xc ; ret
0x10023a9a pop esi ; pop ebp ; pop ebx ; add esp, 0xc ; ret
0x10023a99 pop edi ; pop esi ; pop ebp ; pop ebx ; add esp, 0xc ; ret
0x10023a98 or bl, byte ptr [edi + 0x5e] ; pop ebp ; pop ebx ; add esp, 0xc ; ret
0x10023a97 jle 0xc ; pop edi ; pop esi ; pop ebp ; pop ebx ; add esp, 0xc ; ret
0x10023a96 mov dword ptr [esi + 0xa], edi ; pop edi ; pop esi ; pop ebp ; pop ebx ; add esp, 0xc ; ret
0x10023b66 ret
0x10023bd1 ret
0x10023cb5 ret
0x10023d09 ret
0x10023d06 add byte ptr [eax - 0x18], dl ; ret
0x10023d04 add byte ptr [eax], al ; add byte ptr [eax - 0x18], dl ; ret
0x10023d59 ret
0x10023e09 ret
0x10023f4c ret
0x10023f47 sal byte ptr [ebx + esi + 0xf], 0xbe ; ret
0x100240bd ret
0x100240c3 ret
0x100240c2 pushal ; ret
0x100240c0 add esp, 0x60 ; ret
0x100240bf pop ebx ; add esp, 0x60 ; ret
0x100240be pop ebp ; pop ebx ; add esp, 0x60 ; ret
0x100240bd ret ; pop ebp ; pop ebx ; add esp, 0x60 ; ret
0x100240bc mov eax, ebx ; pop ebp ; pop ebx ; add esp, 0x60 ; ret
0x100240bb pop esi ; mov eax, ebx ; pop ebp ; pop ebx ; add esp, 0x60 ; ret
0x100240ba pop edi ; pop esi ; mov eax, ebx ; pop ebp ; pop ebx ; add esp, 0x60 ; ret
0x100240b9 or bl, byte ptr [edi + 0x5e] ; mov eax, ebx ; pop ebp ; pop ebx ; add esp, 0x60 ; ret
0x1002431b ret
0x10024319 les esp, ptr [eax] ; ret
0x10024318 add esp, 0x20 ; ret
0x10024317 pop ebx ; add esp, 0x20 ; ret
0x10024316 pop ebp ; pop ebx ; add esp, 0x20 ; ret
0x10024315 pop esi ; pop ebp ; pop ebx ; add esp, 0x20 ; ret
0x10024314 pop edi ; pop esi ; pop ebp ; pop ebx ; add esp, 0x20 ; ret
0x10024313 rcr byte ptr [edi + 0x5e], 0x5d ; pop ebx ; add esp, 0x20 ; ret
0x10024312 xor eax, eax ; pop edi ; pop esi ; pop ebp ; pop ebx ; add esp, 0x20 ; ret
0x10024311 push es ; xor eax, eax ; pop edi ; pop esi ; pop ebp ; pop ebx ; add esp, 0x20 ; ret
0x10024350 ret
0x1002434e les esp, ptr [eax] ; ret
0x1002434d add esp, 0x20 ; ret
0x1002434c pop ebx ; add esp, 0x20 ; ret
0x1002434b pop ebp ; pop ebx ; add esp, 0x20 ; ret
0x1002434a pop esi ; pop ebp ; pop ebx ; add esp, 0x20 ; ret
0x10024349 pop edi ; pop esi ; pop ebp ; pop ebx ; add esp, 0x20 ; ret
0x10024348 add al, 0x5f ; pop esi ; pop ebp ; pop ebx ; add esp, 0x20 ; ret
0x10024347 dec edx ; add al, 0x5f ; pop esi ; pop ebp ; pop ebx ; add esp, 0x20 ; ret
0x10024346 mov dword ptr [edx + 4], ecx ; pop edi ; pop esi ; pop ebp ; pop ebx ; add esp, 0x20 ; ret
0x10024380 ret
0x1002437e les esp, ptr [eax] ; ret
0x1002437d add esp, 0x20 ; ret
0x1002437c pop ebx ; add esp, 0x20 ; ret
0x1002437b pop ebp ; pop ebx ; add esp, 0x20 ; ret
0x1002437a pop esi ; pop ebp ; pop ebx ; add esp, 0x20 ; ret
0x10024379 pop edi ; pop esi ; pop ebp ; pop ebx ; add esp, 0x20 ; ret
0x10024378 add al, 0x5f ; pop esi ; pop ebp ; pop ebx ; add esp, 0x20 ; ret
0x10024377 dec edx ; add al, 0x5f ; pop esi ; pop ebp ; pop ebx ; add esp, 0x20 ; ret
0x10024376 mov dword ptr [edx + 4], ecx ; pop edi ; pop esi ; pop ebp ; pop ebx ; add esp, 0x20 ; ret
0x100243ac ret
0x100243aa les esp, ptr [eax] ; ret
0x100243a9 add esp, 0x20 ; ret
0x100243a8 pop ebx ; add esp, 0x20 ; ret
0x100243a7 pop ebp ; pop ebx ; add esp, 0x20 ; ret
0x100243a6 pop esi ; pop ebp ; pop ebx ; add esp, 0x20 ; ret
0x100243a5 pop edi ; pop esi ; pop ebp ; pop ebx ; add esp, 0x20 ; ret
0x100243a4 rcr byte ptr [edi + 0x5e], 0x5d ; pop ebx ; add esp, 0x20 ; ret
0x100243a3 xor eax, eax ; pop edi ; pop esi ; pop ebp ; pop ebx ; add esp, 0x20 ; ret
0x100243a2 push es ; xor eax, eax ; pop edi ; pop esi ; pop ebp ; pop ebx ; add esp, 0x20 ; ret
0x1002446b ret
0x10024469 les esp, ptr [eax] ; ret
0x10024468 add esp, 0x20 ; ret
0x10024467 pop ebx ; add esp, 0x20 ; ret
0x10024466 pop ebp ; pop ebx ; add esp, 0x20 ; ret
0x10024465 pop esi ; pop ebp ; pop ebx ; add esp, 0x20 ; ret
0x10024464 pop edi ; pop esi ; pop ebp ; pop ebx ; add esp, 0x20 ; ret
0x10024463 add byte ptr [edi + 0x5e], bl ; pop ebp ; pop ebx ; add esp, 0x20 ; ret
0x10024462 add byte ptr [eax], al ; pop edi ; pop esi ; pop ebp ; pop ebx ; add esp, 0x20 ; ret
0x10024461 add byte ptr [eax], al ; add byte ptr [edi + 0x5e], bl ; pop ebp ; pop ebx ; add esp, 0x20 ; ret
0x100245a1 ret
0x1002459f les esp, ptr [eax] ; ret
0x1002459e add esp, 0x20 ; ret
0x1002459d pop ebx ; add esp, 0x20 ; ret
0x1002459c pop ebp ; pop ebx ; add esp, 0x20 ; ret
0x1002459b pop esi ; pop ebp ; pop ebx ; add esp, 0x20 ; ret
0x1002459a pop edi ; pop esi ; pop ebp ; pop ebx ; add esp, 0x20 ; ret
0x10024599 add byte ptr [edi + 0x5e], bl ; pop ebp ; pop ebx ; add esp, 0x20 ; ret
0x10024598 add byte ptr [eax], al ; pop edi ; pop esi ; pop ebp ; pop ebx ; add esp, 0x20 ; ret
0x10024597 add byte ptr [eax], al ; add byte ptr [edi + 0x5e], bl ; pop ebp ; pop ebx ; add esp, 0x20 ; ret
0x100245c1 ret
0x100245bf les esp, ptr [eax] ; ret
0x100245be add esp, 0x20 ; ret
0x100245bd pop ebx ; add esp, 0x20 ; ret
0x100245bc add al, 0x5b ; add esp, 0x20 ; ret
0x100245bb and al, 4 ; pop ebx ; add esp, 0x20 ; ret
0x100245ba inc esp ; and al, 4 ; pop ebx ; add esp, 0x20 ; ret
0x100245b9 mov eax, dword ptr [esp + 4] ; pop ebx ; add esp, 0x20 ; ret
0x100245b8 add byte ptr [ebx + 0x5b042444], cl ; add esp, 0x20 ; ret
0x100245b7 add al, 0 ; mov eax, dword ptr [esp + 4] ; pop ebx ; add esp, 0x20 ; ret
0x10024623 ret
0x10024622 pop esi ; ret
0x10024620 add byte ptr [eax], al ; pop esi ; ret
0x1002461f add byte ptr [eax], 0 ; pop esi ; ret
0x1002461d add eax, 0x8000 ; pop esi ; ret
0x1002461c inc dword ptr [0x8000] ; pop esi ; ret
0x1002461a sar bh, 0xff ; add eax, 0x8000 ; pop esi ; ret
0x10024633 ret
0x10024632 pop esi ; ret
0x1002462f or eax, 0xffffffff ; pop esi ; ret
0x1002462d add byte ptr [eax], al ; or eax, 0xffffffff ; pop esi ; ret
0x10024629 mov dword ptr [eax], 0x16 ; or eax, 0xffffffff ; pop esi ; ret
0x1002466e ret
0x1002466d push eax ; ret
0x1002466c add al, 0x50 ; ret
0x1002466b inc eax ; add al, 0x50 ; ret
0x1002466a mov eax, dword ptr [eax + 4] ; push eax ; ret
0x10024668 mov ecx, dword ptr [eax] ; mov eax, dword ptr [eax + 4] ; push eax ; ret
0x10024666 mov esp, ecx ; mov ecx, dword ptr [eax] ; mov eax, dword ptr [eax + 4] ; push eax ; ret
0x10024665 add dword ptr [ebx - 0x74f7741f], ecx ; inc eax ; add al, 0x50 ; ret
0x10024664 test dword ptr [ecx], eax ; mov esp, ecx ; mov ecx, dword ptr [eax] ; mov eax, dword ptr [eax + 4] ; push eax ; ret
0x10024693 ret
0x10024691 les ecx, ptr [eax] ; ret
0x10024690 add esp, 8 ; ret
0x1002468f pop ebx ; add esp, 8 ; ret
0x1002468e pop ebp ; pop ebx ; add esp, 8 ; ret
0x1002468d pop esi ; pop ebp ; pop ebx ; add esp, 8 ; ret
0x1002468c pop edi ; pop esi ; pop ebp ; pop ebx ; add esp, 8 ; ret
0x1002468b add al, 0x5f ; pop esi ; pop ebp ; pop ebx ; add esp, 8 ; ret
0x1002468a les eax, ptr [edi + ebx*2] ; pop esi ; pop ebp ; pop ebx ; add esp, 8 ; ret
0x10024689 add esp, 4 ; pop edi ; pop esi ; pop ebp ; pop ebx ; add esp, 8 ; ret
0x100246ae ret
0x100246ac les ecx, ptr [eax] ; ret
0x100246ab add esp, 8 ; ret
0x100246aa pop ebx ; add esp, 8 ; ret
0x100246a9 pop ebp ; pop ebx ; add esp, 8 ; ret
0x100246a8 pop esi ; pop ebp ; pop ebx ; add esp, 8 ; ret
0x100246a7 pop edi ; pop esi ; pop ebp ; pop ebx ; add esp, 8 ; ret
0x100246a6 rcr byte ptr [edi + 0x5e], 0x5d ; pop ebx ; add esp, 8 ; ret
0x100246a5 xor eax, eax ; pop edi ; pop esi ; pop ebp ; pop ebx ; add esp, 8 ; ret
0x100246a4 add al, 0x33 ; rcr byte ptr [edi + 0x5e], 0x5d ; pop ebx ; add esp, 8 ; ret
0x10024815 ret
0x10024813 les ecx, ptr [eax] ; ret
0x10024812 add esp, 8 ; ret
0x10024811 pop ebx ; add esp, 8 ; ret
0x10024810 pop ebp ; pop ebx ; add esp, 8 ; ret
0x1002480f pop esi ; pop ebp ; pop ebx ; add esp, 8 ; ret
0x1002480e pop edi ; pop esi ; pop ebp ; pop ebx ; add esp, 8 ; ret
0x1002480d lcall ptr [edi + 0x5e] ; pop ebp ; pop ebx ; add esp, 8 ; ret
0x10024819 ret
0x1002481f ret
0x1002481d les ecx, ptr [eax] ; ret
0x1002481c add esp, 8 ; ret
0x1002481b pop ebx ; add esp, 8 ; ret
0x1002481a pop ebp ; pop ebx ; add esp, 8 ; ret
0x10024819 ret ; pop ebp ; pop ebx ; add esp, 8 ; ret
0x10024818 mov eax, ebx ; pop ebp ; pop ebx ; add esp, 8 ; ret
0x10024817 pop esi ; mov eax, ebx ; pop ebp ; pop ebx ; add esp, 8 ; ret
0x10024816 pop edi ; pop esi ; mov eax, ebx ; pop ebp ; pop ebx ; add esp, 8 ; ret
0x10024815 ret ; pop edi ; pop esi ; mov eax, ebx ; pop ebp ; pop ebx ; add esp, 8 ; ret
0x10024841 ret
0x10024840 pop ebx ; ret
0x1002483f pop esi ; pop ebx ; ret
0x1002483e pop edi ; pop esi ; pop ebx ; ret
0x1002483d or byte ptr [edi + 0x5e], bl ; pop ebx ; ret
0x1002483c les ecx, ptr [eax] ; pop edi ; pop esi ; pop ebx ; ret
0x1002483b add esp, 8 ; pop edi ; pop esi ; pop ebx ; ret
0x1002483a inc dword ptr [ebx + 0x5e5f08c4] ; pop ebx ; ret
0x10024838 mov dl, 0xff ; inc dword ptr [ebx + 0x5e5f08c4] ; pop ebx ; ret
0x10024837 add eax, 0x83ffffb2 ; les ecx, ptr [eax] ; pop edi ; pop esi ; pop ebx ; ret
0x100248c0 ret
0x100248bf pop ebx ; ret
0x100248be pop esi ; pop ebx ; ret
0x100248bd pop edi ; pop esi ; pop ebx ; ret
0x100248bb and eax, edi ; pop edi ; pop esi ; pop ebx ; ret
0x100248ba dec eax ; and eax, edi ; pop edi ; pop esi ; pop ebx ; ret
0x100248b9 ror byte ptr [eax + 0x23], 0xc7 ; pop edi ; pop esi ; pop ebx ; ret
0x100248b8 xchg eax, ebp ; ror byte ptr [eax + 0x23], 0xc7 ; pop edi ; pop esi ; pop ebx ; ret
0x100248b7 setne al ; dec eax ; and eax, edi ; pop edi ; pop esi ; pop ebx ; ret
0x100248b6 fimul word ptr [edi] ; xchg eax, ebp ; ror byte ptr [eax + 0x23], 0xc7 ; pop edi ; pop esi ; pop ebx ; ret
0x100248d0 ret
0x100248cf pop ebx ; ret
0x100248ce pop esi ; pop ebx ; ret
0x100248cd pop edi ; pop esi ; pop ebx ; ret
0x100248cc rcr byte ptr [edi + 0x5e], 0x5b ; ret
0x100248cb xor eax, eax ; pop edi ; pop esi ; pop ebx ; ret
0x100248ca add al, 0x33 ; rcr byte ptr [edi + 0x5e], 0x5b ; ret
0x100248c9 les eax, ptr [ebx + esi] ; rcr byte ptr [edi + 0x5e], 0x5b ; ret
0x100248c8 add esp, 4 ; xor eax, eax ; pop edi ; pop esi ; pop ebx ; ret
0x100248c7 inc dword ptr [ebx - 0x3fccfb3c] ; pop edi ; pop esi ; pop ebx ; ret
0x100248e1 ret
0x100248e0 pop ebx ; ret
0x100248df pop esi ; pop ebx ; ret
0x100248de pop edi ; pop esi ; pop ebx ; ret
0x100248dd lcall ptr [edi + 0x5e] ; pop ebx ; ret
0x100248dc inc edi ; lcall ptr [edi + 0x5e] ; pop ebx ; ret
0x100248db lea eax, dword ptr [edi - 1] ; pop edi ; pop esi ; pop ebx ; ret
0x100248da add al, 0x8d ; inc edi ; lcall ptr [edi + 0x5e] ; pop ebx ; ret
0x100248d9 les eax, ptr [ecx*4 + 0x5e5fff47] ; pop ebx ; ret
0x100248d8 add esp, 4 ; lea eax, dword ptr [edi - 1] ; pop edi ; pop esi ; pop ebx ; ret
0x100248d7 inc dword ptr [ebx + 0x478d04c4] ; lcall ptr [edi + 0x5e] ; pop ebx ; ret
0x1002496f ret
0x1002496c add esp, 0x24 ; ret
0x1002496b pop ebx ; add esp, 0x24 ; ret
0x1002496a pop ebp ; pop ebx ; add esp, 0x24 ; ret
0x10024969 pop esi ; pop ebp ; pop ebx ; add esp, 0x24 ; ret
0x10024968 pop edi ; pop esi ; pop ebp ; pop ebx ; add esp, 0x24 ; ret
0x10024967 sub bl, byte ptr [edi + 0x5e] ; pop ebp ; pop ebx ; add esp, 0x24 ; ret
0x10024966 mov dword ptr [edx], ebp ; pop edi ; pop esi ; pop ebp ; pop ebx ; add esp, 0x24 ; ret
0x10024965 add al, 0x89 ; sub bl, byte ptr [edi + 0x5e] ; pop ebp ; pop ebx ; add esp, 0x24 ; ret
0x10024998 ret
0x10024995 add esp, 0x24 ; ret
0x10024994 pop ebx ; add esp, 0x24 ; ret
0x10024993 pop ebp ; pop ebx ; add esp, 0x24 ; ret
0x10024992 pop esi ; pop ebp ; pop ebx ; add esp, 0x24 ; ret
0x10024991 pop edi ; pop esi ; pop ebp ; pop ebx ; add esp, 0x24 ; ret
0x10024990 or bl, byte ptr [edi + 0x5e] ; pop ebp ; pop ebx ; add esp, 0x24 ; ret
0x1002498f push 0xa ; pop edi ; pop esi ; pop ebp ; pop ebx ; add esp, 0x24 ; ret
0x1002498e mov dword ptr [edx + 0xa], ebp ; pop edi ; pop esi ; pop ebp ; pop ebx ; add esp, 0x24 ; ret
0x100249c5 ret
0x100249c2 add esp, 0x24 ; ret
0x100249c1 pop ebx ; add esp, 0x24 ; ret
0x100249c0 pop ebp ; pop ebx ; add esp, 0x24 ; ret
0x100249bf pop esi ; pop ebp ; pop ebx ; add esp, 0x24 ; ret
0x100249be pop edi ; pop esi ; pop ebp ; pop ebx ; add esp, 0x24 ; ret
0x100249bd sub bl, byte ptr [edi + 0x5e] ; pop ebp ; pop ebx ; add esp, 0x24 ; ret
0x100249bc mov dword ptr [edx], ebp ; pop edi ; pop esi ; pop ebp ; pop ebx ; add esp, 0x24 ; ret
0x100249bb add al, 0x89 ; sub bl, byte ptr [edi + 0x5e] ; pop ebp ; pop ebx ; add esp, 0x24 ; ret
0x10024a53 ret
0x10024a9d ret
0x10024aa9 ret
0x10024b62 ret
0x10024b5f add esp, 0x24 ; ret
0x10024b5e pop ebx ; add esp, 0x24 ; ret
0x10024b5d pop ebp ; pop ebx ; add esp, 0x24 ; ret
0x10024b5c pop esi ; pop ebp ; pop ebx ; add esp, 0x24 ; ret
0x10024b5b pop edi ; pop esi ; pop ebp ; pop ebx ; add esp, 0x24 ; ret
0x10024b5a or byte ptr [edi + 0x5e], bl ; pop ebp ; pop ebx ; add esp, 0x24 ; ret
0x10024b59 jb 0xa ; pop edi ; pop esi ; pop ebp ; pop ebx ; add esp, 0x24 ; ret
0x10024b58 mov dword ptr [edx + 8], esi ; pop edi ; pop esi ; pop ebp ; pop ebx ; add esp, 0x24 ; ret
0x10024b86 ret
0x10024b83 add esp, 0x24 ; ret
0x10024b82 pop ebx ; add esp, 0x24 ; ret
0x10024b81 pop ebp ; pop ebx ; add esp, 0x24 ; ret
0x10024b80 pop esi ; pop ebp ; pop ebx ; add esp, 0x24 ; ret
0x10024b7f pop edi ; pop esi ; pop ebp ; pop ebx ; add esp, 0x24 ; ret
0x10024b7e or bl, byte ptr [edi + 0x5e] ; pop ebp ; pop ebx ; add esp, 0x24 ; ret
0x10024b7d pop edx ; or bl, byte ptr [edi + 0x5e] ; pop ebp ; pop ebx ; add esp, 0x24 ; ret
0x10024b7c mov dword ptr [edx + 0xa], ebx ; pop edi ; pop esi ; pop ebp ; pop ebx ; add esp, 0x24 ; ret
0x10024ba7 ret
0x10024ba4 add esp, 0x24 ; ret
0x10024ba3 pop ebx ; add esp, 0x24 ; ret
0x10024ba2 pop ebp ; pop ebx ; add esp, 0x24 ; ret
0x10024ba1 pop esi ; pop ebp ; pop ebx ; add esp, 0x24 ; ret
0x10024ba0 or byte ptr [esi + 0x5d], bl ; pop ebx ; add esp, 0x24 ; ret
0x10024b9f jb 0xa ; pop esi ; pop ebp ; pop ebx ; add esp, 0x24 ; ret
0x10024b9e mov dword ptr [edx + 8], esi ; pop esi ; pop ebp ; pop ebx ; add esp, 0x24 ; ret
0x10024b9d sub cl, byte ptr [ecx + 0x5d5e0872] ; pop ebx ; add esp, 0x24 ; ret
0x10024c39 ret
0x10024c36 add esp, 0xc ; ret
0x10024c35 pop ebx ; add esp, 0xc ; ret
0x10024c34 pop esi ; pop ebx ; add esp, 0xc ; ret
0x10024c33 pop edi ; pop esi ; pop ebx ; add esp, 0xc ; ret
0x10024c32 mov ah, 0x5f ; pop esi ; pop ebx ; add esp, 0xc ; ret
0x10024c31 jne 0xffffffb6 ; pop edi ; pop esi ; pop ebx ; add esp, 0xc ; ret
0x10024c30 div byte ptr [ebp - 0x4c] ; pop edi ; pop esi ; pop ebx ; add esp, 0xc ; ret
0x10024c2f test esi, esi ; jne 0xffffffb8 ; pop edi ; pop esi ; pop ebx ; add esp, 0xc ; ret
0x10024d19 ret
0x10024d13 inc dword ptr [ebx + 0x3b5904c4] ; ret
0x10024d22 ret
0x10024d50 ret
0x10024d4f leave ; ret
0x10024d4e pop edi ; leave ; ret
0x10024d4d pop esi ; pop edi ; leave ; ret
0x10024d4c pop ebx ; pop esi ; pop edi ; leave ; ret
0x10024d4b rcr dword ptr [ebx + 0x5e], 0x5f ; leave ; ret
0x10024d4a mov eax, ecx ; pop ebx ; pop esi ; pop edi ; leave ; ret
0x10024d49 retf ; mov eax, ecx ; pop ebx ; pop esi ; pop edi ; leave ; ret
0x10024d48 mov ecx, ebx ; mov eax, ecx ; pop ebx ; pop esi ; pop edi ; leave ; ret
0x10024d47 add al, 0x8b ; retf ; mov eax, ecx ; pop ebx ; pop esi ; pop edi ; leave ; ret
0x10024d46 les eax, ptr [ebx + ecx*4] ; retf ; mov eax, ecx ; pop ebx ; pop esi ; pop edi ; leave ; ret
0x1000209e retf
0x1000209c sbb al, 0xfe ; retf
0x1000209b pop esi ; sbb al, 0xfe ; retf
0x10002296 retf
0x1000229f retf
0x100022bc retf
0x100022c7 retf
0x1000258f retf
0x10003407 retf
0x10003a40 retf
0x10003a3e adc byte ptr [ebx], al ; retf
0x10003a3a xor byte ptr [ebx + 0x310245c], cl ; retf
0x10003aad retf
0x10003aab adc al, byte ptr [ebx] ; retf
0x100042cf retf
0x100042cd or al, 0x3b ; retf
0x100042c9 jne 0x3b0c74cf ; retf
0x10004954 retf
0x100054fd retf
0x100054fb add al, 3 ; retf
0x100061a1 retf
0x1000619f add byte ptr [ebx], bh ; retf
0x1000619d add byte ptr [eax], al ; add byte ptr [ebx], bh ; retf
0x1000619c movsb byte ptr es:[edi], byte ptr [esi] ; add byte ptr [eax], al ; add byte ptr [ebx], bh ; retf
0x10006fff retf
0x100076c3 retf
0x100076c1 cmp al, 0x8b ; retf
0x100076c0 pop esi ; cmp al, 0x8b ; retf
0x100079cc retf
0x100079ca or byte ptr [ebx], al ; retf
0x100079c8 adc al, 0x8b ; or byte ptr [ebx], al ; retf
0x100079c7 les edx, ptr [ebx + ecx*4] ; or byte ptr [ebx], al ; retf
0x100079d8 retf
0x100079d6 shr dword ptr [ebx], cl ; retf
0x100079d4 xor byte ptr [ebx], al ; shr dword ptr [ebx], cl ; retf
0x100079d3 dec edi ; xor byte ptr [ebx], al ; shr dword ptr [ebx], cl ; retf
0x100079d1 xor al, 0x8b ; dec edi ; xor byte ptr [ebx], al ; shr dword ptr [ebx], cl ; retf
0x100079d0 push edi ; xor al, 0x8b ; dec edi ; xor byte ptr [ebx], al ; shr dword ptr [ebx], cl ; retf
0x100079ce or byte ptr [ebx + 0x4f8b3457], cl ; xor byte ptr [ebx], al ; shr dword ptr [ebx], cl ; retf
0x10007d4f retf
0x10007e22 retf
0x10007e20 sub al, 0x8b ; retf
0x10007e1e je 0x26 ; sub al, 0x8b ; retf
0x10007e1c xor dword ptr [ebx - 0x74d3db8c], ecx ; retf
0x10008266 retf
0x100087bc retf
0x100088a8 retf
0x10008d7f retf
0x10008d7b ret
0x10008d7a pop esi ; ret
0x10008d78 add byte ptr [eax], al ; pop esi ; ret
0x10008d76 add dword ptr [eax], eax ; add byte ptr [eax], al ; pop esi ; ret
0x10008d75 mov eax, 1 ; pop esi ; ret
0x10008d87 retf
0x100094cf retf
0x100094cd sbb cl, ch ; retf
0x10009aab retf
0x10009aa9 add byte ptr [ebx], bh ; retf
0x10009aa7 add byte ptr [eax], al ; add byte ptr [ebx], bh ; retf
0x10009aa5 xchg eax, ebx ; add byte ptr [eax], al ; add byte ptr [ebx], bh ; retf
0x10009aa3 jo 0xffffff8d ; xchg eax, ebx ; add byte ptr [eax], al ; add byte ptr [ebx], bh ; retf
0x1000a42b retf
0x1000b6df retf
0x1000b6f9 retf
0x1000b6f7 add al, 0x8b ; retf
0x1000b6f6 les eax, ptr [ebx + ecx*4] ; retf
0x1000b6f0 add byte ptr [ebx - 0x7cef00fa], cl ; les eax, ptr [ebx + ecx*4] ; retf
0x1000cca9 retf
0x1000ccb5 retf
0x1000ccb3 adc byte ptr [ebx], ah ; retf
0x1000ccb9 retf
0x1000ccb8 retf
0x1000ccb6 add byte ptr [eax], dl ; retf
0x1000ccb5 retf ; add byte ptr [eax], dl ; retf
0x1000ccb4 and ecx, ebx ; add byte ptr [eax], dl ; retf
0x1000ccb3 adc byte ptr [ebx], ah ; retf ; add byte ptr [eax], dl ; retf
0x1000ccb2 add byte ptr [eax], dl ; and ecx, ebx ; add byte ptr [eax], dl ; retf
0x1000ccb1 retf 0x1000 ; and ecx, ebx ; add byte ptr [eax], dl ; retf
0x1000ccb0 sti ; retf 0x1000 ; and ecx, ebx ; add byte ptr [eax], dl ; retf
0x1000ccaf adc bl, bh ; retf 0x1000 ; and ecx, ebx ; add byte ptr [eax], dl ; retf
0x1000ccbd retf
0x1000ccbb adc byte ptr [ebx], ah ; retf
0x1000ccc5 retf
0x1000ccc3 adc byte ptr [ebx], al ; retf
0x1000ccc9 retf
0x1000ccc7 adc byte ptr [ebx], ah ; retf
0x1000cccd retf
0x1000cccc dec edx ; retf
0x1000ccca add byte ptr [eax], dl ; dec edx ; retf
0x1000ccc9 retf ; add byte ptr [eax], dl ; dec edx ; retf
0x1000ccc8 and ecx, ebx ; add byte ptr [eax], dl ; dec edx ; retf
0x1000ccc7 adc byte ptr [ebx], ah ; retf ; add byte ptr [eax], dl ; dec edx ; retf
0x1000ccc6 add byte ptr [eax], dl ; and ecx, ebx ; add byte ptr [eax], dl ; dec edx ; retf
0x1000ccc5 retf ; add byte ptr [eax], dl ; and ecx, ebx ; add byte ptr [eax], dl ; dec edx ; retf
0x1000ccc4 add ecx, ebx ; add byte ptr [eax], dl ; and ecx, ebx ; add byte ptr [eax], dl ; dec edx ; retf
0x1000ccc3 adc byte ptr [ebx], al ; retf ; add byte ptr [eax], dl ; and ecx, ebx ; add byte ptr [eax], dl ; dec edx ; retf
0x1000ccd1 retf
0x1000cccf adc byte ptr [ebx], ah ; retf
0x1000ccd5 retf
0x1000ccd3 adc dh, bh ; retf
0x1000cce5 retf
0x1000cced retf
0x1000ccec sahf ; retf
0x1000ccea add byte ptr [eax], dl ; sahf ; retf
0x1000cce9 int3 ; add byte ptr [eax], dl ; sahf ; retf
0x1000cce8 and al, 0xcc ; add byte ptr [eax], dl ; sahf ; retf
0x1000cce7 adc byte ptr [esp + ecx*8], ah ; add byte ptr [eax], dl ; sahf ; retf
0x1000cce6 add byte ptr [eax], dl ; and al, 0xcc ; add byte ptr [eax], dl ; sahf ; retf
0x1000cce5 retf ; add byte ptr [eax], dl ; and al, 0xcc ; add byte ptr [eax], dl ; sahf ; retf
0x1000cce4 or bl, 0 ; adc byte ptr [esp + ecx*8], ah ; add byte ptr [eax], dl ; sahf ; retf
0x1000cce3 adc byte ptr [edx + 0x241000cb], al ; int3 ; add byte ptr [eax], dl ; sahf ; retf
0x1000ccf1 retf
0x1000cceb adc byte ptr [esi - 0x45efff35], bl ; retf
0x1000ccf5 retf
0x1000ccf3 adc dh, bl ; retf
0x1000ccf0 mov edx, 0xde1000cb ; retf
0x1000ccef adc byte ptr [edx - 0x21efff35], bh ; retf
0x1000ccee add byte ptr [eax], dl ; mov edx, 0xde1000cb ; retf
0x1000cced retf ; add byte ptr [eax], dl ; mov edx, 0xde1000cb ; retf
0x1000ccec sahf ; retf ; add byte ptr [eax], dl ; mov edx, 0xde1000cb ; retf
0x1000d0f6 retf
0x1000d0f3 ror byte ptr [edi], 0x84 ; retf
0x1000d0f1 add al, 0x85 ; ror byte ptr [edi], 0x84 ; retf
0x1000d609 retf
0x1000e314 retf
0x1000e73b retf
0x1000f11d retf
0x1000f11a ror byte ptr [edi], 0x84 ; retf
0x1000f466 retf
0x1000fdaa retf
0x10010793 retf
0x100107b3 retf
0x100107b1 adc cl, bl ; retf
0x1001080d retf
0x1001080b sub al, 0xd9 ; retf
0x10010829 retf
0x10010827 adc cl, bl ; retf
0x10010837 retf
0x10010835 sbb cl, bl ; retf
0x1001084d retf
0x1001084b and cl, bl ; retf
0x10010861 retf
0x1001085f adc cl, bl ; retf
0x10010897 retf
0x10010895 sub al, 0xd9 ; retf
0x100108f2 retf
0x100108f0 and cl, bl ; retf
0x1001096e retf
0x1001096c adc cl, bl ; retf
0x10010990 retf
0x1001098e adc cl, bl ; retf
0x10010996 retf
0x10010994 and cl, bl ; retf
0x100109c6 retf
0x100109c4 sub al, 0xd9 ; retf
0x100111a1 retf
0x1001119f and cl, bl ; retf
0x1001119e pop eax ; and cl, bl ; retf
0x1001119c int 0xd9 ; pop eax ; and cl, bl ; retf
0x1001119a sbb cl, bl ; int 0xd9 ; pop eax ; and cl, bl ; retf
0x100111fd retf
0x100111fb add cl, bl ; retf
0x100111f9 add byte ptr [eax], al ; add cl, bl ; retf
0x100111f8 mov al, byte ptr [0xd9000000] ; retf
0x100111f4 mov edi, 0xa081d932 ; add byte ptr [eax], al ; add cl, bl ; retf
0x100112c8 retf
0x100112c6 int 0xde ; retf
0x100112c4 and al, 0xd9 ; int 0xde ; retf
0x100112de retf
0x100112dc sub cl, bl ; retf
0x1001130d retf
0x10011317 retf
0x10011315 sbb al, 0xd9 ; retf
0x1001134f retf
0x1001134d adc cl, bl ; retf
0x1001136d retf
0x1001136b adc cl, bl ; retf
0x100113b9 retf
0x100113b7 sub al, 0xd9 ; retf
0x100113f1 retf
0x100113ef sub cl, bl ; retf
0x10011413 retf
0x10011411 sbb cl, bl ; retf
0x100114f8 retf
0x100114f6 or cl, bl ; retf
0x100114f5 or cl, bl ; retf
0x1001152b retf
0x10011529 sbb al, 0xd9 ; retf
0x10011588 retf
0x10011586 sub cl, bl ; retf
0x100119b8 retf
0x100119b6 or byte ptr [ebx], ch ; retf
0x100119b5 stc ; or byte ptr [ebx], ch ; retf
0x100119b3 loope 0xffffffc3 ; stc ; or byte ptr [ebx], ch ; retf
0x100119b1 sub edx, ecx ; loope 0xffffffc5 ; stc ; or byte ptr [ebx], ch ; retf
0x100119ec retf
0x100119ea adc al, 0x2b ; retf
0x100119fa retf
0x100119f8 and byte ptr [ebx], al ; retf
0x100119f4 xor byte ptr [ebx + 0x320244c], cl ; retf
0x10011a3a retf
0x10011a38 sbb al, 3 ; retf
0x10011ae4 retf
0x10011ae2 adc byte ptr [ebx], ch ; retf
0x10011ade add cl, byte ptr [ebx + 0x2b10245c] ; retf
0x10011add pop eax ; add cl, byte ptr [ebx + 0x2b10245c] ; retf
0x10013151 retf
0x10013b01 retf
0x10013afe add byte ptr [ecx - 0x18], dl ; retf
0x10013e95 retf
0x100143e9 retf
0x100143e7 sbb byte ptr [ebx], al ; retf
0x100143e3 add byte ptr [ebx + 0x318246c], cl ; retf
0x100143e2 adc eax, 0x246c8b00 ; sbb byte ptr [ebx], al ; retf
0x100143e1 pop esp ; adc eax, 0x246c8b00 ; sbb byte ptr [ebx], al ; retf
0x100143f6 retf
0x100143f4 add byte ptr [ebx], al ; retf
0x100143f0 adc byte ptr [edx + 0x300155c], cl ; retf
0x100143ee fisttp dword ptr [edx + 0x155c8a10] ; add byte ptr [ebx], al ; retf
0x100143ec sal byte ptr [ebx], cl ; fisttp dword ptr [edx + 0x155c8a10] ; add byte ptr [ebx], al ; retf
0x1001446c retf
0x1001446a sbb al, 0x2b ; retf
0x10014466 cmp byte ptr [ecx + 0x2b1c2444], cl ; retf
0x10014a21 retf
0x10014a1f add al, 3 ; retf
0x10014a1e out dx, eax ; add al, 3 ; retf
0x10014a19 rol dword ptr [ebx - 0x107cfe1d], cl ; add al, 3 ; retf
0x10014a17 add al, 0xf7 ; rol dword ptr [ebx - 0x107cfe1d], cl ; add al, 3 ; retf
0x10014f1d retf
0x10014f1b add byte ptr [ebx], bh ; retf
0x10014f19 add al, 0 ; add byte ptr [ebx], bh ; retf
0x10014f18 dec esp ; add al, 0 ; add byte ptr [ebx], bh ; retf
0x10014f17 and al, 0x4c ; add al, 0 ; add byte ptr [ebx], bh ; retf
0x10014f16 pushfd ; and al, 0x4c ; add al, 0 ; add byte ptr [ebx], bh ; retf
0x10014f60 retf
0x10014f5e add ch, byte ptr [ebx] ; retf
0x10014fc0 retf
0x10014fbe add al, 0x3b ; retf
0x10014fbd ret 0x3b04 ; retf
0x10015074 retf
0x10015072 add byte ptr [ebx], ch ; retf
0x10015070 add al, byte ptr [eax] ; add byte ptr [ebx], ch ; retf
0x1001506e and al, 0x3c ; add al, byte ptr [eax] ; add byte ptr [ebx], ch ; retf
0x1001506d mov word ptr [esp + edi], fs ; add al, byte ptr [eax] ; add byte ptr [ebx], ch ; retf
0x1001508a retf
0x10015088 add byte ptr [ebx], ch ; retf
0x10015086 add al, byte ptr [eax] ; add byte ptr [ebx], ch ; retf
0x10015085 inc eax ; add al, byte ptr [eax] ; add byte ptr [ebx], ch ; retf
0x10015084 and al, 0x40 ; add al, byte ptr [eax] ; add byte ptr [ebx], ch ; retf
0x10015083 mov word ptr [eax + eax*2], fs ; add al, byte ptr [eax] ; add byte ptr [ebx], ch ; retf
0x100153ad retf
0x100153ab sbb al, 0x8b ; retf
0x100153a7 sbb byte ptr [ebx - 0x74e3dbac], cl ; retf
0x10015581 retf
0x1001578f retf
0x10015813 retf
0x10015943 retf
0x10015941 and al, 0xeb ; retf
0x10015b86 retf
0x1001619d retf
0x1001619b add edi, dword ptr [edx] ; retf
0x10016198 retf -0x1e40 ; add edi, dword ptr [edx] ; retf
0x10016196 or eax, 0xe1c0ca8a ; add edi, dword ptr [edx] ; retf
0x10016195 pop eax ; or eax, 0xe1c0ca8a ; add edi, dword ptr [edx] ; retf
0x100161b7 retf
0x100161b5 add edi, dword ptr [edx] ; retf
0x100161b2 add eax, 0x3a03e1c0 ; retf
0x100161af retf -0x163f ; add eax, 0x3a03e1c0 ; retf
0x10016983 retf
0x1001697d add dword ptr [ecx - 0x75f881fe], ecx ; retf
0x1001697c sti ; add dword ptr [ecx - 0x75f881fe], ecx ; retf
0x1001697a loopne 0xffffff82 ; sti ; add dword ptr [ecx - 0x75f881fe], ecx ; retf
0x10016bc0 retf
0x10016be0 retf
0x10018420 retf
0x10019791 retf
0x1001978f or eax, ebp ; retf
0x1001978d or al, 0x6a ; or eax, ebp ; retf
0x1001978c les ecx, ptr [edx + ebp*2] ; or eax, ebp ; retf
0x10019b97 retf
0x10019c0e retf
0x10019c0c or al, 0x84 ; retf
0x10019c0b dec eax ; or al, 0x84 ; retf
0x10019c09 mov cl, 0x8b ; dec eax ; or al, 0x84 ; retf
0x10019c06 or byte ptr [ebx + 0x488bb104], cl ; or al, 0x84 ; retf
0x1001a981 retf
0x1001a97d div byte ptr [eax + ebx - 0x75] ; retf
0x1001a97b add al, 0x85 ; div byte ptr [eax + ebx - 0x75] ; retf
0x1001a97a les eax, ptr [eax*4 - 0x74e78b0a] ; retf
0x1001ab01 retf
0x1001aee1 retf
0x1001be0c retf
0x1001be80 retf
0x1001be7e or ch, byte ptr [ebx] ; retf
0x1001c272 retf
0x1001c270 or al, 0x3a ; retf
0x1001c26a adc byte ptr [edx + 0x74c98408], cl ; or al, 0x3a ; retf
0x1001c268 test byte ptr [edx], al ; adc byte ptr [edx + 0x74c98408], cl ; or al, 0x3a ; retf
0x1001c567 retf
0x1001c562 sub eax, 0x3c1940f ; retf
0x1001c561 cli ; sub eax, 0x3c1940f ; retf
0x1001c9a7 retf
0x1001c9a5 int 0x3b ; retf
0x1001c9a1 sub byte ptr [ebx + 0x3bcd2bcf], cl ; retf
0x1001d018 retf
0x1001d18b retf
0x1001d50f retf
0x1001d853 retf
0x1001db91 retf
0x1001db8f add eax, ebp ; retf
0x1001dc40 retf
0x1001dc3b jmp 0x8ba5f307 ; retf
0x1001de85 retf
0x1001de7f sbb ecx, dword ptr [ebx - 0x7f31743a] ; retf
0x1001e2a0 retf
0x1001e29b sal byte ptr [eax + ecx + 0xf], 0xbe ; retf
0x1001e299 add al, 0x85 ; sal byte ptr [eax + ecx + 0xf], 0xbe ; retf
0x1001e386 retf
0x1001e385 push edi ; retf
0x1001e708 retf
0x1001ec5c retf
0x1001ec91 retf
0x1001fa82 retf
0x1001fa80 div dword ptr [ebx] ; retf
0x1001ffb8 retf
0x1001ffdb retf
0x100204c3 retf
0x100204bd dec dword ptr [ebx - 0x74510d06] ; retf
0x100204bc leave ; dec dword ptr [ebx - 0x74510d06] ; retf
0x100204cb retf
0x100204c6 jmp 0x8ba5f307 ; retf
0x100204f9 retf
0x10020501 retf
0x100204fc jmp 0x8ba5f307 ; retf
0x10020527 retf
0x1002052f retf
0x1002052a jmp 0x8ba5f307 ; retf
0x10020d81 retf
0x10020d7e adc byte ptr [ecx - 0x18], dl ; retf
0x10020d7c mov al, byte ptr [0xe8511004] ; retf
0x10021519 retf
0x10021517 fld dword ptr [ebx] ; retf
0x10021b81 retf
0x10021e1a retf
0x10021e13 les eax, ptr [ecx*4 - 0x7eefdbbc] ; retf
0x10021e11 or al, 0x83 ; les eax, ptr [ecx*4 - 0x7eefdbbc] ; retf
0x10021e10 push edi ; or al, 0x83 ; les eax, ptr [ecx*4 - 0x7eefdbbc] ; retf
0x10022089 retf
0x10022084 jmp 0x8ba5f307 ; retf
0x10022120 retf
0x1002211e retf -0x34f5
0x1002211c or ecx, dword ptr [ebx] ; retf -0x34f5
0x10022119 adc eax, 0xb0be2c1 ; retf -0x34f5
0x10022dbf retf
0x10022dbd sbb byte ptr [edx], bh ; retf
0x10022e11 retf
0x10022e0f or dword ptr [edx], edi ; retf
0x10023231 retf
0x1002322f add al, 0xe8 ; retf
0x10023a81 retf
0x10023ec2 retf
0x10023ebd sal byte ptr [esi + 0xf], 0xbe ; retf
0x10023ebb add al, 0x85 ; sal byte ptr [esi + 0xf], 0xbe ; retf
0x10024ced retf
0x10024d49 retf
0x10024d47 add al, 0x8b ; retf
0x10024d46 les eax, ptr [ebx + ecx*4] ; retf
